Archive member included to satisfy reference by file (symbol)

/usr/lib/gcc/arm-none-eabi/13.2.1/libgcc.a(_udivsi3.o)
                              build/kernel/os_core.o (__aeabi_uidiv)
/usr/lib/gcc/arm-none-eabi/13.2.1/libgcc.a(_divsi3.o)
                              build/drivers/os_uart.o (__aeabi_idiv)
/usr/lib/gcc/arm-none-eabi/13.2.1/libgcc.a(_dvmd_tls.o)
                              /usr/lib/gcc/arm-none-eabi/13.2.1/libgcc.a(_udivsi3.o) (__aeabi_idiv0)

There are no discarded input sections

Memory Configuration

Name             Origin             Length             Attributes
*default*        0x00000000         0xffffffff

Linker script and memory map

LOAD build/arch/os_cpu_context_switch.o
LOAD build/arch/startup.o
LOAD build/user/main.o
LOAD build/arch/os_cpu_init.o
LOAD build/drivers/os_bsp.o
LOAD build/drivers/os_timer.o
LOAD build/drivers/os_uart.o
LOAD build/kernel/os.o
LOAD build/kernel/os_core.o
LOAD build/kernel/os_mbox.o
LOAD build/kernel/os_mem.o
LOAD build/kernel/os_mutex.o
LOAD build/kernel/os_q.o
LOAD build/kernel/os_sem.o
LOAD build/kernel/os_task.o
LOAD build/kernel/os_time.o
LOAD build/lib/os_lib.o
LOAD /usr/lib/gcc/arm-none-eabi/13.2.1/libgcc.a
                0x30000000                        . = 0x30000000

.text           0x30000000     0x6e91
 *startup.o(.text)
 .text          0x30000000      0x314 build/arch/startup.o
                0x30000000                _start
                0x30000000                my_entry
 *(.text)
 .text          0x30000314      0x144 build/arch/os_cpu_context_switch.o
                0x30000314                OS_CPU_SR_Save
                0x30000324                OS_CPU_SR_Restore
                0x3000032c                OSStartHighRdy
                0x30000350                OSCtxSw
                0x3000039c                OSIntCtxSw
                0x300003cc                OSTickISR
 .text          0x30000458      0x774 build/user/main.o
                0x30000458                main
                0x3000049c                Task_Start
                0x30000624                Task_Input
                0x300008ac                Task_Work
                0x30000970                Task_Display
                0x30000aec                Task_Monitor
 .text          0x30000bcc      0x2c4 build/arch/os_cpu_init.o
                0x30000bcc                OSTaskStkInit
                0x30000d78                OSTaskCreateHook
                0x30000d98                OSTaskDelHook
                0x30000de0                OSTaskSwHook
                0x30000df8                OSTaskStatHook
                0x30000e10                OSTimeTickHook
                0x30000e28                OSInitHookBegin
                0x30000e40                OSInitHookEnd
                0x30000e58                OSTCBInitHook
                0x30000e78                OSTaskIdleHook
 .text          0x30000e90      0x2e0 build/drivers/os_bsp.o
                0x30000e90                Beep_Ctrl
                0x30000eec                Beep_Init
                0x30000f38                LED_Set
                0x30000ff0                LED_Init
                0x3000103c                Key_Scan
                0x300010fc                Key_Init
                0x30001134                BSP_Init
 .text          0x30001170      0x114 build/drivers/os_timer.o
                0x30001170                InitTimer4
 .text          0x30001284      0x834 build/drivers/os_uart.o
                0x30001284                Uart_Init
                0x3000136c                Uart_SendByte
                0x300016ec                Uart_Printf
 .text          0x30001ab8        0x0 build/kernel/os.o
 .text          0x30001ab8     0x1274 build/kernel/os_core.o
                0x30001d18                OSInit
                0x30001d58                OSIntEnter
                0x30001db0                OSIntExit
                0x30001f0c                OSSchedLock
                0x30001f7c                OSSchedUnlock
                0x30002028                OSStart
                0x3000210c                OSStatInit
                0x3000218c                OSTimeTick
                0x300022e4                OS_Dummy
                0x300022fc                OS_EventTaskRdy
                0x300024cc                OS_EventTaskWait
                0x30002630                OS_EventTO
                0x3000273c                OS_EventWaitListInit
                0x30002894                OS_Sched
                0x300029a0                OS_TaskIdle
                0x300029e4                OS_TaskStat
                0x30002b04                OS_TCBInit
 .text          0x30002d2c      0x66c build/kernel/os_mbox.o
                0x30002d2c                OSMboxAccept
                0x30002da4                OSMboxCreate
                0x30002e60                OSMboxDel
                0x30003038                OSMboxPend
                0x300031f0                OSMboxPost
                0x300032c8                OSMboxPostOpt
                0x300032f8                OSMboxQuery
 .text          0x30003398      0x4e4 build/kernel/os_mem.o
                0x30003398                OSMemCreate
                0x3000353c                OSMemGet
                0x300035fc                OSMemPut
                0x300036b4                OSMemQuery
                0x30003780                OS_MemInit
 .text          0x3000387c      0xcb0 build/kernel/os_mutex.o
                0x3000387c                OSMutexAccept
                0x300039a4                OSMutexCreate
                0x30003afc                OSMutexDel
                0x30003d18                OSMutexPend
                0x300040c0                OSMutexPost
                0x3000442c                OSMutexQuery
 .text          0x3000452c      0xb84 build/kernel/os_q.o
                0x3000452c                OSQAccept
                0x30004614                OSQCreate
                0x3000479c                OSQDel
                0x300049c8                OSQFlush
                0x30004a60                OSQPend
                0x30004c70                OSQPost
                0x30004db0                OSQPostFront
                0x30004ef8                OSQPostOpt
                0x30004f28                OSQQuery
                0x30005018                OS_QInit
 .text          0x300050b0      0x614 build/kernel/os_sem.o
                0x300050b0                OSSemAccept
                0x3000513c                OSSemCreate
                0x300051fc                OSSemDel
                0x300053d4                OSSemPend
                0x3000554c                OSSemPost
                0x3000561c                OSSemQuery
 .text          0x300056c4      0xdf8 build/kernel/os_task.o
                0x300056c4                OSTaskChangePrio
                0x30005ab4                OSTaskCreate
                0x30005c00                OSTaskCreateExt
                0x30005c30                OSTaskDel
                0x30005fe4                OSTaskDelReq
                0x300060c8                OSTaskResume
                0x3000620c                OSTaskStkChk
                0x30006238                OSTaskSuspend
                0x30006408                OSTaskQuery
 .text          0x300064bc      0x47c build/kernel/os_time.o
                0x300064bc                OSTimeDly
                0x300065d8                OSTimeDlyHMSM
                0x30006790                OSTimeDlyResume
                0x300068b8                OSTimeGet
                0x300068f8                OSTimeSet
 .text          0x30006938      0x160 build/lib/os_lib.o
                0x30006938                memset
                0x3000699c                memcpy
 .text          0x30006a98      0x114 /usr/lib/gcc/arm-none-eabi/13.2.1/libgcc.a(_udivsi3.o)
                0x30006a98                __udivsi3
                0x30006a98                __aeabi_uidiv
                0x30006b8c                __aeabi_uidivmod
 .text          0x30006bac      0x148 /usr/lib/gcc/arm-none-eabi/13.2.1/libgcc.a(_divsi3.o)
                0x30006bac                __aeabi_idiv
                0x30006bac                __divsi3
                0x30006cd4                __aeabi_idivmod
 .text          0x30006cf4        0x4 /usr/lib/gcc/arm-none-eabi/13.2.1/libgcc.a(_dvmd_tls.o)
                0x30006cf4                __aeabi_ldiv0
                0x30006cf4                __aeabi_idiv0
 *(.rodata)
 .rodata        0x30006cf8      0x163 build/user/main.o
 *fill*         0x30006e5b        0x1 
 .rodata        0x30006e5c       0x22 build/arch/os_cpu_init.o
 *fill*         0x30006e7e        0x2 
 .rodata        0x30006e80       0x11 build/drivers/os_uart.o

.glue_7         0x30006e94        0x0
 .glue_7        0x30006e94        0x0 linker stubs

.glue_7t        0x30006e94        0x0
 .glue_7t       0x30006e94        0x0 linker stubs

.vfp11_veneer   0x30006e94        0x0
 .vfp11_veneer  0x30006e94        0x0 linker stubs

.v4_bx          0x30006e94        0x0
 .v4_bx         0x30006e94        0x0 linker stubs

.iplt           0x30006e94        0x0
 .iplt          0x30006e94        0x0 build/arch/os_cpu_context_switch.o

.rel.dyn        0x30006e94        0x0
 .rel.iplt      0x30006e94        0x0 build/arch/os_cpu_context_switch.o
                0x30006e94                        . = ALIGN (0x4)
                0x30006e94                        _etext = .

.data           0x30006e94      0x108
                0x30006e94                        _data = .
 *(.data)
 .data          0x30006e94        0x0 build/arch/os_cpu_context_switch.o
 .data          0x30006e94        0x0 build/arch/startup.o
 .data          0x30006e94        0x0 build/user/main.o
 .data          0x30006e94        0x0 build/arch/os_cpu_init.o
 .data          0x30006e94        0x0 build/drivers/os_bsp.o
 .data          0x30006e94        0x0 build/drivers/os_timer.o
 .data          0x30006e94        0x0 build/drivers/os_uart.o
 .data          0x30006e94        0x0 build/kernel/os.o
 .data          0x30006e94      0x108 build/kernel/os_core.o
                0x30006e94                OSMapTbl
                0x30006e9c                OSUnMapTbl
 .data          0x30006f9c        0x0 build/kernel/os_mbox.o
 .data          0x30006f9c        0x0 build/kernel/os_mem.o
 .data          0x30006f9c        0x0 build/kernel/os_mutex.o
 .data          0x30006f9c        0x0 build/kernel/os_q.o
 .data          0x30006f9c        0x0 build/kernel/os_sem.o
 .data          0x30006f9c        0x0 build/kernel/os_task.o
 .data          0x30006f9c        0x0 build/kernel/os_time.o
 .data          0x30006f9c        0x0 build/lib/os_lib.o
 .data          0x30006f9c        0x0 /usr/lib/gcc/arm-none-eabi/13.2.1/libgcc.a(_udivsi3.o)
 .data          0x30006f9c        0x0 /usr/lib/gcc/arm-none-eabi/13.2.1/libgcc.a(_divsi3.o)
 .data          0x30006f9c        0x0 /usr/lib/gcc/arm-none-eabi/13.2.1/libgcc.a(_dvmd_tls.o)

.igot.plt       0x30006f9c        0x0
 .igot.plt      0x30006f9c        0x0 build/arch/os_cpu_context_switch.o
                0x30006f9c                        . = ALIGN (0x4)
                0x30006f9c                        _bss_start_ = .

.bss            0x30006f9c     0x37d0
 *(.bss)
 .bss           0x30006f9c        0x0 build/arch/os_cpu_context_switch.o
 .bss           0x30006f9c        0x0 build/arch/startup.o
 .bss           0x30006f9c     0x2acc build/user/main.o
                0x30006f9c                StartStk
                0x3000779c                InputStk
                0x30007f9c                WorkStk
                0x3000879c                DisplayStk
                0x30008f9c                MonitorStk
                0x3000979c                SemBeep
                0x300097a0                MboxLed
                0x300097a4                DataQueue
                0x300097a8                QMsgTbl
                0x300097d0                UartMutex
                0x300097d4                SysModeFlag
                0x300097d8                MemPartition
                0x300097dc                MemStorage
 .bss           0x30009a68        0x0 build/arch/os_cpu_init.o
 .bss           0x30009a68        0x0 build/drivers/os_bsp.o
 .bss           0x30009a68        0x0 build/drivers/os_timer.o
 .bss           0x30009a68        0x0 build/drivers/os_uart.o
 .bss           0x30009a68      0xd04 build/kernel/os.o
                0x30009a68                OSTime
                0x30009a6c                OSIntNesting
                0x30009a6d                OSIntExitY
                0x30009a6e                OSLockNesting
                0x30009a6f                OSPrioCur
                0x30009a70                OSPrioHighRdy
                0x30009a71                OSRdyGrp
                0x30009a74                OSRdyTbl
                0x30009a7c                OSRunning
                0x30009a7d                OSTaskCtr
                0x30009a80                OSCtxSwCtr
                0x30009a84                OSIdleCtr
                0x30009a88                OSIdleCtrRun
                0x30009a8c                OSIdleCtrMax
                0x30009a90                OSStatRdy
                0x30009a91                OSCPUUsage
                0x30009a94                OSTaskIdleStk
                0x30009b94                OSTaskStatStk
                0x3000a394                OSTCBCur
                0x3000a398                OSTCBFreeList
                0x3000a39c                OSTCBHighRdy
                0x3000a3a0                OSTCBList
                0x3000a3a4                OSTCBPrioTbl
                0x3000a4a0                OSTCBTbl
                0x3000a5e0                OSEventFreeList
                0x3000a5e4                OSEventTbl
                0x3000a648                OSFlagFreeList
                0x3000a64c                OSFlagTbl
                0x3000a688                OSMemFreeList
                0x3000a68c                OSMemTbl
                0x3000a6f0                OSQFreeList
                0x3000a6f4                OSQTbl
 .bss           0x3000a76c        0x0 build/kernel/os_core.o
 .bss           0x3000a76c        0x0 build/kernel/os_mbox.o
 .bss           0x3000a76c        0x0 build/kernel/os_mem.o
 .bss           0x3000a76c        0x0 build/kernel/os_mutex.o
 .bss           0x3000a76c        0x0 build/kernel/os_q.o
 .bss           0x3000a76c        0x0 build/kernel/os_sem.o
 .bss           0x3000a76c        0x0 build/kernel/os_task.o
 .bss           0x3000a76c        0x0 build/kernel/os_time.o
 .bss           0x3000a76c        0x0 build/lib/os_lib.o
 .bss           0x3000a76c        0x0 /usr/lib/gcc/arm-none-eabi/13.2.1/libgcc.a(_udivsi3.o)
 .bss           0x3000a76c        0x0 /usr/lib/gcc/arm-none-eabi/13.2.1/libgcc.a(_divsi3.o)
 .bss           0x3000a76c        0x0 /usr/lib/gcc/arm-none-eabi/13.2.1/libgcc.a(_dvmd_tls.o)
 *(COMMON)
                0x3000a76c                        _bss_end_ = .
OUTPUT(build/mini2440_rtos.elf elf32-littlearm)
LOAD linker stubs

.ARM.attributes
                0x00000000       0x26
 .ARM.attributes
                0x00000000       0x1a build/arch/os_cpu_context_switch.o
 .ARM.attributes
                0x0000001a       0x1a build/arch/startup.o
 .ARM.attributes
                0x00000034       0x2a build/user/main.o
 .ARM.attributes
                0x0000005e       0x2a build/arch/os_cpu_init.o
 .ARM.attributes
                0x00000088       0x2a build/drivers/os_bsp.o
 .ARM.attributes
                0x000000b2       0x2a build/drivers/os_timer.o
 .ARM.attributes
                0x000000dc       0x2a build/drivers/os_uart.o
 .ARM.attributes
                0x00000106       0x2a build/kernel/os.o
 .ARM.attributes
                0x00000130       0x2a build/kernel/os_core.o
 .ARM.attributes
                0x0000015a       0x2a build/kernel/os_mbox.o
 .ARM.attributes
                0x00000184       0x2a build/kernel/os_mem.o
 .ARM.attributes
                0x000001ae       0x2a build/kernel/os_mutex.o
 .ARM.attributes
                0x000001d8       0x2a build/kernel/os_q.o
 .ARM.attributes
                0x00000202       0x2a build/kernel/os_sem.o
 .ARM.attributes
                0x0000022c       0x2a build/kernel/os_task.o
 .ARM.attributes
                0x00000256       0x2a build/kernel/os_time.o
 .ARM.attributes
                0x00000280       0x2a build/lib/os_lib.o
 .ARM.attributes
                0x000002aa       0x1c /usr/lib/gcc/arm-none-eabi/13.2.1/libgcc.a(_udivsi3.o)
 .ARM.attributes
                0x000002c6       0x1c /usr/lib/gcc/arm-none-eabi/13.2.1/libgcc.a(_divsi3.o)
 .ARM.attributes
                0x000002e2       0x1c /usr/lib/gcc/arm-none-eabi/13.2.1/libgcc.a(_dvmd_tls.o)

.comment        0x00000000       0x26
 .comment       0x00000000       0x26 build/user/main.o
                                 0x27 (size before relaxing)
 .comment       0x00000026       0x27 build/arch/os_cpu_init.o
 .comment       0x00000026       0x27 build/drivers/os_bsp.o
 .comment       0x00000026       0x27 build/drivers/os_timer.o
 .comment       0x00000026       0x27 build/drivers/os_uart.o
 .comment       0x00000026       0x27 build/kernel/os.o
 .comment       0x00000026       0x27 build/kernel/os_core.o
 .comment       0x00000026       0x27 build/kernel/os_mbox.o
 .comment       0x00000026       0x27 build/kernel/os_mem.o
 .comment       0x00000026       0x27 build/kernel/os_mutex.o
 .comment       0x00000026       0x27 build/kernel/os_q.o
 .comment       0x00000026       0x27 build/kernel/os_sem.o
 .comment       0x00000026       0x27 build/kernel/os_task.o
 .comment       0x00000026       0x27 build/kernel/os_time.o
 .comment       0x00000026       0x27 build/lib/os_lib.o

.debug_line     0x00000000     0x25a6
 .debug_line    0x00000000       0xa4 build/arch/os_cpu_context_switch.o
 .debug_line    0x000000a4      0x112 build/arch/startup.o
 .debug_line    0x000001b6      0x1ec build/user/main.o
 .debug_line    0x000003a2       0xba build/arch/os_cpu_init.o
 .debug_line    0x0000045c      0x181 build/drivers/os_bsp.o
 .debug_line    0x000005dd       0xa6 build/drivers/os_timer.o
 .debug_line    0x00000683      0x33e build/drivers/os_uart.o
 .debug_line    0x000009c1       0x4d build/kernel/os.o
 .debug_line    0x00000a0e      0x4fb build/kernel/os_core.o
 .debug_line    0x00000f09      0x27e build/kernel/os_mbox.o
 .debug_line    0x00001187      0x1d9 build/kernel/os_mem.o
 .debug_line    0x00001360      0x450 build/kernel/os_mutex.o
 .debug_line    0x000017b0      0x3f1 build/kernel/os_q.o
 .debug_line    0x00001ba1      0x26e build/kernel/os_sem.o
 .debug_line    0x00001e0f      0x42e build/kernel/os_task.o
 .debug_line    0x0000223d      0x17b build/kernel/os_time.o
 .debug_line    0x000023b8       0xca build/lib/os_lib.o
 .debug_line    0x00002482       0x67 /usr/lib/gcc/arm-none-eabi/13.2.1/libgcc.a(_udivsi3.o)
 .debug_line    0x000024e9       0x73 /usr/lib/gcc/arm-none-eabi/13.2.1/libgcc.a(_divsi3.o)
 .debug_line    0x0000255c       0x4a /usr/lib/gcc/arm-none-eabi/13.2.1/libgcc.a(_dvmd_tls.o)

.debug_line_str
                0x00000000       0xcd
 .debug_line_str
                0x00000000       0xcd build/arch/os_cpu_context_switch.o
                                 0x45 (size before relaxing)
 .debug_line_str
                0x000000cd       0x37 build/arch/startup.o
 .debug_line_str
                0x000000cd       0x7e /usr/lib/gcc/arm-none-eabi/13.2.1/libgcc.a(_udivsi3.o)
 .debug_line_str
                0x000000cd       0x7e /usr/lib/gcc/arm-none-eabi/13.2.1/libgcc.a(_divsi3.o)
 .debug_line_str
                0x000000cd       0x7e /usr/lib/gcc/arm-none-eabi/13.2.1/libgcc.a(_dvmd_tls.o)

.debug_info     0x00000000     0x4daa
 .debug_info    0x00000000       0x25 build/arch/os_cpu_context_switch.o
 .debug_info    0x00000025       0x25 build/arch/startup.o
 .debug_info    0x0000004a      0x8e2 build/user/main.o
 .debug_info    0x0000092c      0x3e8 build/arch/os_cpu_init.o
 .debug_info    0x00000d14      0x148 build/drivers/os_bsp.o
 .debug_info    0x00000e5c       0x85 build/drivers/os_timer.o
 .debug_info    0x00000ee1      0x364 build/drivers/os_uart.o
 .debug_info    0x00001245      0x6e7 build/kernel/os.o
 .debug_info    0x0000192c      0x9f0 build/kernel/os_core.o
 .debug_info    0x0000231c      0x5b7 build/kernel/os_mbox.o
 .debug_info    0x000028d3      0x361 build/kernel/os_mem.o
 .debug_info    0x00002c34      0x61d build/kernel/os_mutex.o
 .debug_info    0x00003251      0x7b1 build/kernel/os_q.o
 .debug_info    0x00003a02      0x54b build/kernel/os_sem.o
 .debug_info    0x00003f4d      0x7de build/kernel/os_task.o
 .debug_info    0x0000472b      0x449 build/kernel/os_time.o
 .debug_info    0x00004b74      0x17e build/lib/os_lib.o
 .debug_info    0x00004cf2       0x3e /usr/lib/gcc/arm-none-eabi/13.2.1/libgcc.a(_udivsi3.o)
 .debug_info    0x00004d30       0x3e /usr/lib/gcc/arm-none-eabi/13.2.1/libgcc.a(_divsi3.o)
 .debug_info    0x00004d6e       0x3c /usr/lib/gcc/arm-none-eabi/13.2.1/libgcc.a(_dvmd_tls.o)

.debug_abbrev   0x00000000     0x1b81
 .debug_abbrev  0x00000000       0x14 build/arch/os_cpu_context_switch.o
 .debug_abbrev  0x00000014       0x14 build/arch/startup.o
 .debug_abbrev  0x00000028      0x237 build/user/main.o
 .debug_abbrev  0x0000025f      0x197 build/arch/os_cpu_init.o
 .debug_abbrev  0x000003f6      0x122 build/drivers/os_bsp.o
 .debug_abbrev  0x00000518       0x65 build/drivers/os_timer.o
 .debug_abbrev  0x0000057d      0x14a build/drivers/os_uart.o
 .debug_abbrev  0x000006c7       0xf7 build/kernel/os.o
 .debug_abbrev  0x000007be      0x368 build/kernel/os_core.o
 .debug_abbrev  0x00000b26      0x259 build/kernel/os_mbox.o
 .debug_abbrev  0x00000d7f      0x16d build/kernel/os_mem.o
 .debug_abbrev  0x00000eec      0x25c build/kernel/os_mutex.o
 .debug_abbrev  0x00001148      0x292 build/kernel/os_q.o
 .debug_abbrev  0x000013da      0x243 build/kernel/os_sem.o
 .debug_abbrev  0x0000161d      0x287 build/kernel/os_task.o
 .debug_abbrev  0x000018a4      0x197 build/kernel/os_time.o
 .debug_abbrev  0x00001a3b       0xd0 build/lib/os_lib.o
 .debug_abbrev  0x00001b0b       0x28 /usr/lib/gcc/arm-none-eabi/13.2.1/libgcc.a(_udivsi3.o)
 .debug_abbrev  0x00001b33       0x28 /usr/lib/gcc/arm-none-eabi/13.2.1/libgcc.a(_divsi3.o)
 .debug_abbrev  0x00001b5b       0x26 /usr/lib/gcc/arm-none-eabi/13.2.1/libgcc.a(_dvmd_tls.o)

.debug_aranges  0x00000000      0x278
 .debug_aranges
                0x00000000       0x20 build/arch/os_cpu_context_switch.o
 .debug_aranges
                0x00000020       0x20 build/arch/startup.o
 .debug_aranges
                0x00000040       0x20 build/user/main.o
 .debug_aranges
                0x00000060       0x20 build/arch/os_cpu_init.o
 .debug_aranges
                0x00000080       0x20 build/drivers/os_bsp.o
 .debug_aranges
                0x000000a0       0x20 build/drivers/os_timer.o
 .debug_aranges
                0x000000c0       0x20 build/drivers/os_uart.o
 .debug_aranges
                0x000000e0       0x18 build/kernel/os.o
 .debug_aranges
                0x000000f8       0x20 build/kernel/os_core.o
 .debug_aranges
                0x00000118       0x20 build/kernel/os_mbox.o
 .debug_aranges
                0x00000138       0x20 build/kernel/os_mem.o
 .debug_aranges
                0x00000158       0x20 build/kernel/os_mutex.o
 .debug_aranges
                0x00000178       0x20 build/kernel/os_q.o
 .debug_aranges
                0x00000198       0x20 build/kernel/os_sem.o
 .debug_aranges
                0x000001b8       0x20 build/kernel/os_task.o
 .debug_aranges
                0x000001d8       0x20 build/kernel/os_time.o
 .debug_aranges
                0x000001f8       0x20 build/lib/os_lib.o
 .debug_aranges
                0x00000218       0x20 /usr/lib/gcc/arm-none-eabi/13.2.1/libgcc.a(_udivsi3.o)
 .debug_aranges
                0x00000238       0x20 /usr/lib/gcc/arm-none-eabi/13.2.1/libgcc.a(_divsi3.o)
 .debug_aranges
                0x00000258       0x20 /usr/lib/gcc/arm-none-eabi/13.2.1/libgcc.a(_dvmd_tls.o)

.debug_str      0x00000000      0xed6
 .debug_str     0x00000000      0xed6 build/arch/os_cpu_context_switch.o
                                 0x51 (size before relaxing)
 .debug_str     0x00000ed6       0x43 build/arch/startup.o
 .debug_str     0x00000ed6      0x51e build/user/main.o
 .debug_str     0x00000ed6      0x374 build/arch/os_cpu_init.o
 .debug_str     0x00000ed6      0x13d build/drivers/os_bsp.o
 .debug_str     0x00000ed6       0xfa build/drivers/os_timer.o
 .debug_str     0x00000ed6      0x1ae build/drivers/os_uart.o
 .debug_str     0x00000ed6      0x4c1 build/kernel/os.o
 .debug_str     0x00000ed6      0x67c build/kernel/os_core.o
 .debug_str     0x00000ed6      0x3f7 build/kernel/os_mbox.o
 .debug_str     0x00000ed6      0x25a build/kernel/os_mem.o
 .debug_str     0x00000ed6      0x442 build/kernel/os_mutex.o
 .debug_str     0x00000ed6      0x462 build/kernel/os_q.o
 .debug_str     0x00000ed6      0x3e1 build/kernel/os_sem.o
 .debug_str     0x00000ed6      0x4bb build/kernel/os_task.o
 .debug_str     0x00000ed6      0x395 build/kernel/os_time.o
 .debug_str     0x00000ed6      0x14c build/lib/os_lib.o
 .debug_str     0x00000ed6       0xa5 /usr/lib/gcc/arm-none-eabi/13.2.1/libgcc.a(_udivsi3.o)
 .debug_str     0x00000ed6       0xa3 /usr/lib/gcc/arm-none-eabi/13.2.1/libgcc.a(_divsi3.o)
 .debug_str     0x00000ed6       0xa6 /usr/lib/gcc/arm-none-eabi/13.2.1/libgcc.a(_dvmd_tls.o)

.debug_frame    0x00000000      0xf94
 .debug_frame   0x00000000       0xcc build/user/main.o
 .debug_frame   0x000000cc      0x154 build/arch/os_cpu_init.o
 .debug_frame   0x00000220       0xfc build/drivers/os_bsp.o
 .debug_frame   0x0000031c       0x30 build/drivers/os_timer.o
 .debug_frame   0x0000034c       0xd0 build/drivers/os_uart.o
 .debug_frame   0x0000041c      0x338 build/kernel/os_core.o
 .debug_frame   0x00000754      0x11c build/kernel/os_mbox.o
 .debug_frame   0x00000870       0xd0 build/kernel/os_mem.o
 .debug_frame   0x00000940      0x100 build/kernel/os_mutex.o
 .debug_frame   0x00000a40      0x190 build/kernel/os_q.o
 .debug_frame   0x00000bd0       0xfc build/kernel/os_sem.o
 .debug_frame   0x00000ccc      0x168 build/kernel/os_task.o
 .debug_frame   0x00000e34       0xd0 build/kernel/os_time.o
 .debug_frame   0x00000f04       0x50 build/lib/os_lib.o
 .debug_frame   0x00000f54       0x20 /usr/lib/gcc/arm-none-eabi/13.2.1/libgcc.a(_udivsi3.o)
 .debug_frame   0x00000f74       0x20 /usr/lib/gcc/arm-none-eabi/13.2.1/libgcc.a(_divsi3.o)
