Archive member included to satisfy reference by file (symbol)

/usr/lib/gcc/arm-none-eabi/13.2.1/libgcc.a(_udivsi3.o)
                              build/.obj/kernel/os_core.o (__aeabi_uidiv)
/usr/lib/gcc/arm-none-eabi/13.2.1/libgcc.a(_divsi3.o)
                              build/.obj/drivers/os_uart.o (__aeabi_idiv)
/usr/lib/gcc/arm-none-eabi/13.2.1/libgcc.a(_dvmd_tls.o)
                              /usr/lib/gcc/arm-none-eabi/13.2.1/libgcc.a(_udivsi3.o) (__aeabi_idiv0)

There are no discarded input sections

Memory Configuration

Name             Origin             Length             Attributes
*default*        0x00000000         0xffffffff

Linker script and memory map

LOAD build/.obj/arch/os_cpu_context_switch.o
LOAD build/.obj/arch/startup.o
LOAD build/.obj/user/main.o
LOAD build/.obj/arch/os_cpu_init.o
LOAD build/.obj/drivers/os_bsp.o
LOAD build/.obj/drivers/os_timer.o
LOAD build/.obj/drivers/os_uart.o
LOAD build/.obj/kernel/os.o
LOAD build/.obj/kernel/os_core.o
LOAD build/.obj/kernel/os_flag.o
LOAD build/.obj/kernel/os_mbox.o
LOAD build/.obj/kernel/os_mem.o
LOAD build/.obj/kernel/os_mutex.o
LOAD build/.obj/kernel/os_q.o
LOAD build/.obj/kernel/os_sem.o
LOAD build/.obj/kernel/os_task.o
LOAD build/.obj/kernel/os_time.o
LOAD build/.obj/lib/os_lib.o
LOAD /usr/lib/gcc/arm-none-eabi/13.2.1/libgcc.a
                0x30000000                        . = 0x30000000

.text           0x30000000     0x800d
 *startup.o(.text)
 .text          0x30000000      0x314 build/.obj/arch/startup.o
                0x30000000                _start
                0x30000000                my_entry
 *(.text)
 .text          0x30000314      0x144 build/.obj/arch/os_cpu_context_switch.o
                0x30000314                OS_CPU_SR_Save
                0x30000324                OS_CPU_SR_Restore
                0x3000032c                OSStartHighRdy
                0x30000350                OSCtxSw
                0x3000039c                OSIntCtxSw
                0x300003cc                OSTickISR
 .text          0x30000458      0x774 build/.obj/user/main.o
                0x30000458                main
                0x3000049c                Task_Start
                0x30000624                Task_Input
                0x300008ac                Task_Work
                0x30000970                Task_Display
                0x30000aec                Task_Monitor
 .text          0x30000bcc      0x2c4 build/.obj/arch/os_cpu_init.o
                0x30000bcc                OSTaskStkInit
                0x30000d78                OSTaskCreateHook
                0x30000d98                OSTaskDelHook
                0x30000de0                OSTaskSwHook
                0x30000df8                OSTaskStatHook
                0x30000e10                OSTimeTickHook
                0x30000e28                OSInitHookBegin
                0x30000e40                OSInitHookEnd
                0x30000e58                OSTCBInitHook
                0x30000e78                OSTaskIdleHook
 .text          0x30000e90      0x2e0 build/.obj/drivers/os_bsp.o
                0x30000e90                Beep_Ctrl
                0x30000eec                Beep_Init
                0x30000f38                LED_Set
                0x30000ff0                LED_Init
                0x3000103c                Key_Scan
                0x300010fc                Key_Init
                0x30001134                BSP_Init
 .text          0x30001170      0x114 build/.obj/drivers/os_timer.o
                0x30001170                InitTimer4
 .text          0x30001284      0x834 build/.obj/drivers/os_uart.o
                0x30001284                Uart_Init
                0x3000136c                Uart_SendByte
                0x300016ec                Uart_Printf
 .text          0x30001ab8        0x0 build/.obj/kernel/os.o
 .text          0x30001ab8     0x1274 build/.obj/kernel/os_core.o
                0x30001d18                OSInit
                0x30001d58                OSIntEnter
                0x30001db0                OSIntExit
                0x30001f0c                OSSchedLock
                0x30001f7c                OSSchedUnlock
                0x30002028                OSStart
                0x3000210c                OSStatInit
                0x3000218c                OSTimeTick
                0x300022e4                OS_Dummy
                0x300022fc                OS_EventTaskRdy
                0x300024cc                OS_EventTaskWait
                0x30002630                OS_EventTO
                0x3000273c                OS_EventWaitListInit
                0x30002894                OS_Sched
                0x300029a0                OS_TaskIdle
                0x300029e4                OS_TaskStat
                0x30002b04                OS_TCBInit
 .text          0x30002d2c     0x117c build/.obj/kernel/os_flag.o
                0x30002d2c                OSFlagAccept
                0x30002fec                OSFlagCreate
                0x300030c4                OSFlagDel
                0x300032b0                OSFlagPend
                0x3000374c                OSFlagPost
                0x30003a1c                OSFlagQuery
                0x30003ab0                OS_FlagInit
                0x30003df4                OS_FlagUnlink
 .text          0x30003ea8      0x66c build/.obj/kernel/os_mbox.o
                0x30003ea8                OSMboxAccept
                0x30003f20                OSMboxCreate
                0x30003fdc                OSMboxDel
                0x300041b4                OSMboxPend
                0x3000436c                OSMboxPost
                0x30004444                OSMboxPostOpt
                0x30004474                OSMboxQuery
 .text          0x30004514      0x4e4 build/.obj/kernel/os_mem.o
                0x30004514                OSMemCreate
                0x300046b8                OSMemGet
                0x30004778                OSMemPut
                0x30004830                OSMemQuery
                0x300048fc                OS_MemInit
 .text          0x300049f8      0xcb0 build/.obj/kernel/os_mutex.o
                0x300049f8                OSMutexAccept
                0x30004b20                OSMutexCreate
                0x30004c78                OSMutexDel
                0x30004e94                OSMutexPend
                0x3000523c                OSMutexPost
                0x300055a8                OSMutexQuery
 .text          0x300056a8      0xb84 build/.obj/kernel/os_q.o
                0x300056a8                OSQAccept
                0x30005790                OSQCreate
                0x30005918                OSQDel
                0x30005b44                OSQFlush
                0x30005bdc                OSQPend
                0x30005dec                OSQPost
                0x30005f2c                OSQPostFront
                0x30006074                OSQPostOpt
                0x300060a4                OSQQuery
                0x30006194                OS_QInit
 .text          0x3000622c      0x614 build/.obj/kernel/os_sem.o
                0x3000622c                OSSemAccept
                0x300062b8                OSSemCreate
                0x30006378                OSSemDel
                0x30006550                OSSemPend
                0x300066c8                OSSemPost
                0x30006798                OSSemQuery
 .text          0x30006840      0xdf8 build/.obj/kernel/os_task.o
                0x30006840                OSTaskChangePrio
                0x30006c30                OSTaskCreate
                0x30006d7c                OSTaskCreateExt
                0x30006dac                OSTaskDel
                0x30007160                OSTaskDelReq
                0x30007244                OSTaskResume
                0x30007388                OSTaskStkChk
                0x300073b4                OSTaskSuspend
                0x30007584                OSTaskQuery
 .text          0x30007638      0x47c build/.obj/kernel/os_time.o
                0x30007638                OSTimeDly
                0x30007754                OSTimeDlyHMSM
                0x3000790c                OSTimeDlyResume
                0x30007a34                OSTimeGet
                0x30007a74                OSTimeSet
 .text          0x30007ab4      0x160 build/.obj/lib/os_lib.o
                0x30007ab4                memset
                0x30007b18                memcpy
 .text          0x30007c14      0x114 /usr/lib/gcc/arm-none-eabi/13.2.1/libgcc.a(_udivsi3.o)
                0x30007c14                __udivsi3
                0x30007c14                __aeabi_uidiv
                0x30007d08                __aeabi_uidivmod
 .text          0x30007d28      0x148 /usr/lib/gcc/arm-none-eabi/13.2.1/libgcc.a(_divsi3.o)
                0x30007d28                __aeabi_idiv
                0x30007d28                __divsi3
                0x30007e50                __aeabi_idivmod
 .text          0x30007e70        0x4 /usr/lib/gcc/arm-none-eabi/13.2.1/libgcc.a(_dvmd_tls.o)
                0x30007e70                __aeabi_ldiv0
                0x30007e70                __aeabi_idiv0
 *(.rodata)
 .rodata        0x30007e74      0x163 build/.obj/user/main.o
 *fill*         0x30007fd7        0x1 
 .rodata        0x30007fd8       0x22 build/.obj/arch/os_cpu_init.o
 *fill*         0x30007ffa        0x2 
 .rodata        0x30007ffc       0x11 build/.obj/drivers/os_uart.o

.glue_7         0x30008010        0x0
 .glue_7        0x30008010        0x0 linker stubs

.glue_7t        0x30008010        0x0
 .glue_7t       0x30008010        0x0 linker stubs

.vfp11_veneer   0x30008010        0x0
 .vfp11_veneer  0x30008010        0x0 linker stubs

.v4_bx          0x30008010        0x0
 .v4_bx         0x30008010        0x0 linker stubs

.iplt           0x30008010        0x0
 .iplt          0x30008010        0x0 build/.obj/arch/os_cpu_context_switch.o

.rel.dyn        0x30008010        0x0
 .rel.iplt      0x30008010        0x0 build/.obj/arch/os_cpu_context_switch.o
                0x30008010                        . = ALIGN (0x4)
                0x30008010                        _etext = .

.data           0x30008010      0x108
                0x30008010                        _data = .
 *(.data)
 .data          0x30008010        0x0 build/.obj/arch/os_cpu_context_switch.o
 .data          0x30008010        0x0 build/.obj/arch/startup.o
 .data          0x30008010        0x0 build/.obj/user/main.o
 .data          0x30008010        0x0 build/.obj/arch/os_cpu_init.o
 .data          0x30008010        0x0 build/.obj/drivers/os_bsp.o
 .data          0x30008010        0x0 build/.obj/drivers/os_timer.o
 .data          0x30008010        0x0 build/.obj/drivers/os_uart.o
 .data          0x30008010        0x0 build/.obj/kernel/os.o
 .data          0x30008010      0x108 build/.obj/kernel/os_core.o
                0x30008010                OSMapTbl
                0x30008018                OSUnMapTbl
 .data          0x30008118        0x0 build/.obj/kernel/os_flag.o
 .data          0x30008118        0x0 build/.obj/kernel/os_mbox.o
 .data          0x30008118        0x0 build/.obj/kernel/os_mem.o
 .data          0x30008118        0x0 build/.obj/kernel/os_mutex.o
 .data          0x30008118        0x0 build/.obj/kernel/os_q.o
 .data          0x30008118        0x0 build/.obj/kernel/os_sem.o
 .data          0x30008118        0x0 build/.obj/kernel/os_task.o
 .data          0x30008118        0x0 build/.obj/kernel/os_time.o
 .data          0x30008118        0x0 build/.obj/lib/os_lib.o
 .data          0x30008118        0x0 /usr/lib/gcc/arm-none-eabi/13.2.1/libgcc.a(_udivsi3.o)
 .data          0x30008118        0x0 /usr/lib/gcc/arm-none-eabi/13.2.1/libgcc.a(_divsi3.o)
 .data          0x30008118        0x0 /usr/lib/gcc/arm-none-eabi/13.2.1/libgcc.a(_dvmd_tls.o)

.igot.plt       0x30008118        0x0
 .igot.plt      0x30008118        0x0 build/.obj/arch/os_cpu_context_switch.o
                0x30008118                        . = ALIGN (0x4)
                0x30008118                        _bss_start_ = .

.bss            0x30008118     0x37d0
 *(.bss)
 .bss           0x30008118        0x0 build/.obj/arch/os_cpu_context_switch.o
 .bss           0x30008118        0x0 build/.obj/arch/startup.o
 .bss           0x30008118     0x2acc build/.obj/user/main.o
                0x30008118                StartStk
                0x30008918                InputStk
                0x30009118                WorkStk
                0x30009918                DisplayStk
                0x3000a118                MonitorStk
                0x3000a918                SemBeep
                0x3000a91c                MboxLed
                0x3000a920                DataQueue
                0x3000a924                QMsgTbl
                0x3000a94c                UartMutex
                0x3000a950                SysModeFlag
                0x3000a954                MemPartition
                0x3000a958                MemStorage
 .bss           0x3000abe4        0x0 build/.obj/arch/os_cpu_init.o
 .bss           0x3000abe4        0x0 build/.obj/drivers/os_bsp.o
 .bss           0x3000abe4        0x0 build/.obj/drivers/os_timer.o
 .bss           0x3000abe4        0x0 build/.obj/drivers/os_uart.o
 .bss           0x3000abe4      0xd04 build/.obj/kernel/os.o
                0x3000abe4                OSTime
                0x3000abe8                OSIntNesting
                0x3000abe9                OSIntExitY
                0x3000abea                OSLockNesting
                0x3000abeb                OSPrioCur
                0x3000abec                OSPrioHighRdy
                0x3000abed                OSRdyGrp
                0x3000abf0                OSRdyTbl
                0x3000abf8                OSRunning
                0x3000abf9                OSTaskCtr
                0x3000abfc                OSCtxSwCtr
                0x3000ac00                OSIdleCtr
                0x3000ac04                OSIdleCtrRun
                0x3000ac08                OSIdleCtrMax
                0x3000ac0c                OSStatRdy
                0x3000ac0d                OSCPUUsage
                0x3000ac10                OSTaskIdleStk
                0x3000ad10                OSTaskStatStk
                0x3000b510                OSTCBCur
                0x3000b514                OSTCBFreeList
                0x3000b518                OSTCBHighRdy
                0x3000b51c                OSTCBList
                0x3000b520                OSTCBPrioTbl
                0x3000b61c                OSTCBTbl
                0x3000b75c                OSEventFreeList
                0x3000b760                OSEventTbl
                0x3000b7c4                OSFlagFreeList
                0x3000b7c8                OSFlagTbl
                0x3000b804                OSMemFreeList
                0x3000b808                OSMemTbl
                0x3000b86c                OSQFreeList
                0x3000b870                OSQTbl
 .bss           0x3000b8e8        0x0 build/.obj/kernel/os_core.o
 .bss           0x3000b8e8        0x0 build/.obj/kernel/os_flag.o
 .bss           0x3000b8e8        0x0 build/.obj/kernel/os_mbox.o
 .bss           0x3000b8e8        0x0 build/.obj/kernel/os_mem.o
 .bss           0x3000b8e8        0x0 build/.obj/kernel/os_mutex.o
 .bss           0x3000b8e8        0x0 build/.obj/kernel/os_q.o
 .bss           0x3000b8e8        0x0 build/.obj/kernel/os_sem.o
 .bss           0x3000b8e8        0x0 build/.obj/kernel/os_task.o
 .bss           0x3000b8e8        0x0 build/.obj/kernel/os_time.o
 .bss           0x3000b8e8        0x0 build/.obj/lib/os_lib.o
 .bss           0x3000b8e8        0x0 /usr/lib/gcc/arm-none-eabi/13.2.1/libgcc.a(_udivsi3.o)
 .bss           0x3000b8e8        0x0 /usr/lib/gcc/arm-none-eabi/13.2.1/libgcc.a(_divsi3.o)
 .bss           0x3000b8e8        0x0 /usr/lib/gcc/arm-none-eabi/13.2.1/libgcc.a(_dvmd_tls.o)
 *(COMMON)
                0x3000b8e8                        _bss_end_ = .
OUTPUT(build/mini2440_rtos.elf elf32-littlearm)
LOAD linker stubs

.ARM.attributes
                0x00000000       0x26
 .ARM.attributes
                0x00000000       0x1a build/.obj/arch/os_cpu_context_switch.o
 .ARM.attributes
                0x0000001a       0x1a build/.obj/arch/startup.o
 .ARM.attributes
                0x00000034       0x2a build/.obj/user/main.o
 .ARM.attributes
                0x0000005e       0x2a build/.obj/arch/os_cpu_init.o
 .ARM.attributes
                0x00000088       0x2a build/.obj/drivers/os_bsp.o
 .ARM.attributes
                0x000000b2       0x2a build/.obj/drivers/os_timer.o
 .ARM.attributes
                0x000000dc       0x2a build/.obj/drivers/os_uart.o
 .ARM.attributes
                0x00000106       0x2a build/.obj/kernel/os.o
 .ARM.attributes
                0x00000130       0x2a build/.obj/kernel/os_core.o
 .ARM.attributes
                0x0000015a       0x2a build/.obj/kernel/os_flag.o
 .ARM.attributes
                0x00000184       0x2a build/.obj/kernel/os_mbox.o
 .ARM.attributes
                0x000001ae       0x2a build/.obj/kernel/os_mem.o
 .ARM.attributes
                0x000001d8       0x2a build/.obj/kernel/os_mutex.o
 .ARM.attributes
                0x00000202       0x2a build/.obj/kernel/os_q.o
 .ARM.attributes
                0x0000022c       0x2a build/.obj/kernel/os_sem.o
 .ARM.attributes
                0x00000256       0x2a build/.obj/kernel/os_task.o
 .ARM.attributes
                0x00000280       0x2a build/.obj/kernel/os_time.o
 .ARM.attributes
                0x000002aa       0x2a build/.obj/lib/os_lib.o
 .ARM.attributes
                0x000002d4       0x1c /usr/lib/gcc/arm-none-eabi/13.2.1/libgcc.a(_udivsi3.o)
 .ARM.attributes
                0x000002f0       0x1c /usr/lib/gcc/arm-none-eabi/13.2.1/libgcc.a(_divsi3.o)
 .ARM.attributes
                0x0000030c       0x1c /usr/lib/gcc/arm-none-eabi/13.2.1/libgcc.a(_dvmd_tls.o)

.comment        0x00000000       0x26
 .comment       0x00000000       0x26 build/.obj/user/main.o
                                 0x27 (size before relaxing)
 .comment       0x00000026       0x27 build/.obj/arch/os_cpu_init.o
 .comment       0x00000026       0x27 build/.obj/drivers/os_bsp.o
 .comment       0x00000026       0x27 build/.obj/drivers/os_timer.o
 .comment       0x00000026       0x27 build/.obj/drivers/os_uart.o
 .comment       0x00000026       0x27 build/.obj/kernel/os.o
 .comment       0x00000026       0x27 build/.obj/kernel/os_core.o
 .comment       0x00000026       0x27 build/.obj/kernel/os_flag.o
 .comment       0x00000026       0x27 build/.obj/kernel/os_mbox.o
 .comment       0x00000026       0x27 build/.obj/kernel/os_mem.o
 .comment       0x00000026       0x27 build/.obj/kernel/os_mutex.o
 .comment       0x00000026       0x27 build/.obj/kernel/os_q.o
 .comment       0x00000026       0x27 build/.obj/kernel/os_sem.o
 .comment       0x00000026       0x27 build/.obj/kernel/os_task.o
 .comment       0x00000026       0x27 build/.obj/kernel/os_time.o
 .comment       0x00000026       0x27 build/.obj/lib/os_lib.o

.debug_line     0x00000000     0x2a87
 .debug_line    0x00000000       0xa4 build/.obj/arch/os_cpu_context_switch.o
 .debug_line    0x000000a4      0x112 build/.obj/arch/startup.o
 .debug_line    0x000001b6      0x1ec build/.obj/user/main.o
 .debug_line    0x000003a2       0xba build/.obj/arch/os_cpu_init.o
 .debug_line    0x0000045c      0x181 build/.obj/drivers/os_bsp.o
 .debug_line    0x000005dd       0xa6 build/.obj/drivers/os_timer.o
 .debug_line    0x00000683      0x33e build/.obj/drivers/os_uart.o
 .debug_line    0x000009c1       0x4d build/.obj/kernel/os.o
 .debug_line    0x00000a0e      0x4fb build/.obj/kernel/os_core.o
 .debug_line    0x00000f09      0x4e1 build/.obj/kernel/os_flag.o
 .debug_line    0x000013ea      0x27e build/.obj/kernel/os_mbox.o
 .debug_line    0x00001668      0x1d9 build/.obj/kernel/os_mem.o
 .debug_line    0x00001841      0x450 build/.obj/kernel/os_mutex.o
 .debug_line    0x00001c91      0x3f1 build/.obj/kernel/os_q.o
 .debug_line    0x00002082      0x26e build/.obj/kernel/os_sem.o
 .debug_line    0x000022f0      0x42e build/.obj/kernel/os_task.o
 .debug_line    0x0000271e      0x17b build/.obj/kernel/os_time.o
 .debug_line    0x00002899       0xca build/.obj/lib/os_lib.o
 .debug_line    0x00002963       0x67 /usr/lib/gcc/arm-none-eabi/13.2.1/libgcc.a(_udivsi3.o)
 .debug_line    0x000029ca       0x73 /usr/lib/gcc/arm-none-eabi/13.2.1/libgcc.a(_divsi3.o)
 .debug_line    0x00002a3d       0x4a /usr/lib/gcc/arm-none-eabi/13.2.1/libgcc.a(_dvmd_tls.o)

.debug_line_str
                0x00000000       0xcd
 .debug_line_str
                0x00000000       0xcd build/.obj/arch/os_cpu_context_switch.o
                                 0x45 (size before relaxing)
 .debug_line_str
                0x000000cd       0x37 build/.obj/arch/startup.o
 .debug_line_str
                0x000000cd       0x7e /usr/lib/gcc/arm-none-eabi/13.2.1/libgcc.a(_udivsi3.o)
 .debug_line_str
                0x000000cd       0x7e /usr/lib/gcc/arm-none-eabi/13.2.1/libgcc.a(_divsi3.o)
 .debug_line_str
                0x000000cd       0x7e /usr/lib/gcc/arm-none-eabi/13.2.1/libgcc.a(_dvmd_tls.o)

.debug_info     0x00000000     0x5552
 .debug_info    0x00000000       0x25 build/.obj/arch/os_cpu_context_switch.o
 .debug_info    0x00000025       0x25 build/.obj/arch/startup.o
 .debug_info    0x0000004a      0x8e2 build/.obj/user/main.o
 .debug_info    0x0000092c      0x3e8 build/.obj/arch/os_cpu_init.o
 .debug_info    0x00000d14      0x148 build/.obj/drivers/os_bsp.o
 .debug_info    0x00000e5c       0x85 build/.obj/drivers/os_timer.o
 .debug_info    0x00000ee1      0x364 build/.obj/drivers/os_uart.o
 .debug_info    0x00001245      0x6e7 build/.obj/kernel/os.o
 .debug_info    0x0000192c      0x9f0 build/.obj/kernel/os_core.o
 .debug_info    0x0000231c      0x7a8 build/.obj/kernel/os_flag.o
 .debug_info    0x00002ac4      0x5b7 build/.obj/kernel/os_mbox.o
 .debug_info    0x0000307b      0x361 build/.obj/kernel/os_mem.o
 .debug_info    0x000033dc      0x61d build/.obj/kernel/os_mutex.o
 .debug_info    0x000039f9      0x7b1 build/.obj/kernel/os_q.o
 .debug_info    0x000041aa      0x54b build/.obj/kernel/os_sem.o
 .debug_info    0x000046f5      0x7de build/.obj/kernel/os_task.o
 .debug_info    0x00004ed3      0x449 build/.obj/kernel/os_time.o
 .debug_info    0x0000531c      0x17e build/.obj/lib/os_lib.o
 .debug_info    0x0000549a       0x3e /usr/lib/gcc/arm-none-eabi/13.2.1/libgcc.a(_udivsi3.o)
 .debug_info    0x000054d8       0x3e /usr/lib/gcc/arm-none-eabi/13.2.1/libgcc.a(_divsi3.o)
 .debug_info    0x00005516       0x3c /usr/lib/gcc/arm-none-eabi/13.2.1/libgcc.a(_dvmd_tls.o)

.debug_abbrev   0x00000000     0x1dcd
 .debug_abbrev  0x00000000       0x14 build/.obj/arch/os_cpu_context_switch.o
 .debug_abbrev  0x00000014       0x14 build/.obj/arch/startup.o
 .debug_abbrev  0x00000028      0x237 build/.obj/user/main.o
 .debug_abbrev  0x0000025f      0x197 build/.obj/arch/os_cpu_init.o
 .debug_abbrev  0x000003f6      0x122 build/.obj/drivers/os_bsp.o
 .debug_abbrev  0x00000518       0x65 build/.obj/drivers/os_timer.o
 .debug_abbrev  0x0000057d      0x14a build/.obj/drivers/os_uart.o
 .debug_abbrev  0x000006c7       0xf7 build/.obj/kernel/os.o
 .debug_abbrev  0x000007be      0x368 build/.obj/kernel/os_core.o
 .debug_abbrev  0x00000b26      0x24c build/.obj/kernel/os_flag.o
 .debug_abbrev  0x00000d72      0x259 build/.obj/kernel/os_mbox.o
 .debug_abbrev  0x00000fcb      0x16d build/.obj/kernel/os_mem.o
 .debug_abbrev  0x00001138      0x25c build/.obj/kernel/os_mutex.o
 .debug_abbrev  0x00001394      0x292 build/.obj/kernel/os_q.o
 .debug_abbrev  0x00001626      0x243 build/.obj/kernel/os_sem.o
 .debug_abbrev  0x00001869      0x287 build/.obj/kernel/os_task.o
 .debug_abbrev  0x00001af0      0x197 build/.obj/kernel/os_time.o
 .debug_abbrev  0x00001c87       0xd0 build/.obj/lib/os_lib.o
 .debug_abbrev  0x00001d57       0x28 /usr/lib/gcc/arm-none-eabi/13.2.1/libgcc.a(_udivsi3.o)
 .debug_abbrev  0x00001d7f       0x28 /usr/lib/gcc/arm-none-eabi/13.2.1/libgcc.a(_divsi3.o)
 .debug_abbrev  0x00001da7       0x26 /usr/lib/gcc/arm-none-eabi/13.2.1/libgcc.a(_dvmd_tls.o)

.debug_aranges  0x00000000      0x298
 .debug_aranges
                0x00000000       0x20 build/.obj/arch/os_cpu_context_switch.o
 .debug_aranges
                0x00000020       0x20 build/.obj/arch/startup.o
 .debug_aranges
                0x00000040       0x20 build/.obj/user/main.o
 .debug_aranges
                0x00000060       0x20 build/.obj/arch/os_cpu_init.o
 .debug_aranges
                0x00000080       0x20 build/.obj/drivers/os_bsp.o
 .debug_aranges
                0x000000a0       0x20 build/.obj/drivers/os_timer.o
 .debug_aranges
                0x000000c0       0x20 build/.obj/drivers/os_uart.o
 .debug_aranges
                0x000000e0       0x18 build/.obj/kernel/os.o
 .debug_aranges
                0x000000f8       0x20 build/.obj/kernel/os_core.o
 .debug_aranges
                0x00000118       0x20 build/.obj/kernel/os_flag.o
 .debug_aranges
                0x00000138       0x20 build/.obj/kernel/os_mbox.o
 .debug_aranges
                0x00000158       0x20 build/.obj/kernel/os_mem.o
 .debug_aranges
                0x00000178       0x20 build/.obj/kernel/os_mutex.o
 .debug_aranges
                0x00000198       0x20 build/.obj/kernel/os_q.o
 .debug_aranges
                0x000001b8       0x20 build/.obj/kernel/os_sem.o
 .debug_aranges
                0x000001d8       0x20 build/.obj/kernel/os_task.o
 .debug_aranges
                0x000001f8       0x20 build/.obj/kernel/os_time.o
 .debug_aranges
                0x00000218       0x20 build/.obj/lib/os_lib.o
 .debug_aranges
                0x00000238       0x20 /usr/lib/gcc/arm-none-eabi/13.2.1/libgcc.a(_udivsi3.o)
 .debug_aranges
                0x00000258       0x20 /usr/lib/gcc/arm-none-eabi/13.2.1/libgcc.a(_divsi3.o)
 .debug_aranges
                0x00000278       0x20 /usr/lib/gcc/arm-none-eabi/13.2.1/libgcc.a(_dvmd_tls.o)

.debug_str      0x00000000      0xf7e
 .debug_str     0x00000000      0xf7e build/.obj/arch/os_cpu_context_switch.o
                                 0x51 (size before relaxing)
 .debug_str     0x00000f7e       0x43 build/.obj/arch/startup.o
 .debug_str     0x00000f7e      0x51e build/.obj/user/main.o
 .debug_str     0x00000f7e      0x374 build/.obj/arch/os_cpu_init.o
 .debug_str     0x00000f7e      0x13d build/.obj/drivers/os_bsp.o
 .debug_str     0x00000f7e       0xfa build/.obj/drivers/os_timer.o
 .debug_str     0x00000f7e      0x1ae build/.obj/drivers/os_uart.o
 .debug_str     0x00000f7e      0x4c1 build/.obj/kernel/os.o
 .debug_str     0x00000f7e      0x67c build/.obj/kernel/os_core.o
 .debug_str     0x00000f7e      0x46c build/.obj/kernel/os_flag.o
 .debug_str     0x00000f7e      0x3f7 build/.obj/kernel/os_mbox.o
 .debug_str     0x00000f7e      0x25a build/.obj/kernel/os_mem.o
 .debug_str     0x00000f7e      0x442 build/.obj/kernel/os_mutex.o
 .debug_str     0x00000f7e      0x462 build/.obj/kernel/os_q.o
 .debug_str     0x00000f7e      0x3e1 build/.obj/kernel/os_sem.o
 .debug_str     0x00000f7e      0x4bb build/.obj/kernel/os_task.o
 .debug_str     0x00000f7e      0x395 build/.obj/kernel/os_time.o
 .debug_str     0x00000f7e      0x14c build/.obj/lib/os_lib.o
 .debug_str     0x00000f7e       0xa5 /usr/lib/gcc/arm-none-eabi/13.2.1/libgcc.a(_udivsi3.o)
 .debug_str     0x00000f7e       0xa3 /usr/lib/gcc/arm-none-eabi/13.2.1/libgcc.a(_divsi3.o)
 .debug_str     0x00000f7e       0xa6 /usr/lib/gcc/arm-none-eabi/13.2.1/libgcc.a(_dvmd_tls.o)

.debug_frame    0x00000000     0x111c
 .debug_frame   0x00000000       0xcc build/.obj/user/main.o
 .debug_frame   0x000000cc      0x154 build/.obj/arch/os_cpu_init.o
 .debug_frame   0x00000220       0xfc build/.obj/drivers/os_bsp.o
 .debug_frame   0x0000031c       0x30 build/.obj/drivers/os_timer.o
 .debug_frame   0x0000034c       0xd0 build/.obj/drivers/os_uart.o
 .debug_frame   0x0000041c      0x338 build/.obj/kernel/os_core.o
 .debug_frame   0x00000754      0x188 build/.obj/kernel/os_flag.o
 .debug_frame   0x000008dc      0x11c build/.obj/kernel/os_mbox.o
 .debug_frame   0x000009f8       0xd0 build/.obj/kernel/os_mem.o
 .debug_frame   0x00000ac8      0x100 build/.obj/kernel/os_mutex.o
 .debug_frame   0x00000bc8      0x190 build/.obj/kernel/os_q.o
 .debug_frame   0x00000d58       0xfc build/.obj/kernel/os_sem.o
 .debug_frame   0x00000e54      0x168 build/.obj/kernel/os_task.o
 .debug_frame   0x00000fbc       0xd0 build/.obj/kernel/os_time.o
 .debug_frame   0x0000108c       0x50 build/.obj/lib/os_lib.o
 .debug_frame   0x000010dc       0x20 /usr/lib/gcc/arm-none-eabi/13.2.1/libgcc.a(_udivsi3.o)
 .debug_frame   0x000010fc       0x20 /usr/lib/gcc/arm-none-eabi/13.2.1/libgcc.a(_divsi3.o)
