
build/mini2440_rtos.elf:     file format elf32-littlearm
build/mini2440_rtos.elf
architecture: armv4t, flags 0x00000112:
EXEC_P, HAS_SYMS, D_PAGED
start address 0x30000000

Program Header:
    LOAD off    0x00001000 vaddr 0x30000000 paddr 0x30000000 align 2**12
         filesz 0x00007f9c memsz 0x0000b5ec flags rwx
private flags = 0x5000200: [Version5 EABI] [soft-float ABI]

Sections:
Idx Name          Size      VMA       LMA       File off  Algn
  0 .text         00007e91  30000000  30000000  00001000  2**2
                  CONTENTS, ALLOC, LOAD, READONLY, CODE
  1 .data         00000108  30007e94  30007e94  00008e94  2**2
                  CONTENTS, ALLOC, LOAD, DATA
  2 .bss          00003650  30007f9c  30007f9c  00008f9c  2**2
                  ALLOC
  3 .ARM.attributes 00000026  00000000  00000000  00008f9c  2**0
                  CONTENTS, READONLY
  4 .comment      00000026  00000000  00000000  00008fc2  2**0
                  CONTENTS, READONLY
  5 .debug_line   00002a22  00000000  00000000  00008fe8  2**0
                  CONTENTS, READONLY, DEBUGGING, OCTETS
  6 .debug_line_str 000000ce  00000000  00000000  0000ba0a  2**0
                  CONTENTS, READONLY, DEBUGGING, OCTETS
  7 .debug_info   000054af  00000000  00000000  0000bad8  2**0
                  CONTENTS, READONLY, DEBUGGING, OCTETS
  8 .debug_abbrev 00001dbb  00000000  00000000  00010f87  2**0
                  CONTENTS, READONLY, DEBUGGING, OCTETS
  9 .debug_aranges 00000298  00000000  00000000  00012d48  2**3
                  CONTENTS, READONLY, DEBUGGING, OCTETS
 10 .debug_str    00000f73  00000000  00000000  00012fe0  2**0
                  CONTENTS, READONLY, DEBUGGING, OCTETS
 11 .debug_frame  00001118  00000000  00000000  00013f54  2**2
                  CONTENTS, READONLY, DEBUGGING, OCTETS
SYMBOL TABLE:
30000000 l    d  .text	00000000 .text
30007e94 l    d  .data	00000000 .data
30007f9c l    d  .bss	00000000 .bss
00000000 l    d  .ARM.attributes	00000000 .ARM.attributes
00000000 l    d  .comment	00000000 .comment
00000000 l    d  .debug_line	00000000 .debug_line
00000000 l    d  .debug_line_str	00000000 .debug_line_str
00000000 l    d  .debug_info	00000000 .debug_info
00000000 l    d  .debug_abbrev	00000000 .debug_abbrev
00000000 l    d  .debug_aranges	00000000 .debug_aranges
00000000 l    d  .debug_str	00000000 .debug_str
00000000 l    d  .debug_frame	00000000 .debug_frame
00000000 l    df *ABS*	00000000 startup.o
00000020 l       *ABS*	00000000 BUSWIDTH
48000000 l       *ABS*	00000000 BWSCON
48000004 l       *ABS*	00000000 BANKCON0
48000008 l       *ABS*	00000000 BANKCON1
4800000c l       *ABS*	00000000 BANKCON2
48000010 l       *ABS*	00000000 BANKCON3
48000014 l       *ABS*	00000000 BANKCON4
48000018 l       *ABS*	00000000 BANKCON5
4800001c l       *ABS*	00000000 BANKCON6
48000020 l       *ABS*	00000000 BANKCON7
48000024 l       *ABS*	00000000 REFRESH
48000028 l       *ABS*	00000000 BANKSIZE
4800002c l       *ABS*	00000000 MRSRB6
48000030 l       *ABS*	00000000 MRSRB7
4c000000 l       *ABS*	00000000 LOCKTIME
4c000004 l       *ABS*	00000000 MPLLCON
4c000008 l       *ABS*	00000000 UPLLCON
4c00000c l       *ABS*	00000000 CLKCON
4c000010 l       *ABS*	00000000 CLKSLOW
4c000014 l       *ABS*	00000000 CLKDIVN
4a000000 l       *ABS*	00000000 SRCPND
4a000004 l       *ABS*	00000000 INTMOD
4a000008 l       *ABS*	00000000 INTMSK
4a00000c l       *ABS*	00000000 PRIORITY
4a000010 l       *ABS*	00000000 INTPND
4a000014 l       *ABS*	00000000 INTOFFSET
4a000018 l       *ABS*	00000000 SUSSRCPND
4a00001c l       *ABS*	00000000 INTSUBMSK
56000050 l       *ABS*	00000000 GPFCON
56000054 l       *ABS*	00000000 GPFDAT
56000058 l       *ABS*	00000000 GPFUP
56000010 l       *ABS*	00000000 GPBCON
56000014 l       *ABS*	00000000 GPBDAT
56000080 l       *ABS*	00000000 MISCCR
56000084 l       *ABS*	00000000 DCKCON
56000088 l       *ABS*	00000000 EXTINT0
5600008c l       *ABS*	00000000 EXTINT1
56000090 l       *ABS*	00000000 EXTINT2
56000094 l       *ABS*	00000000 EINTFLT0
56000098 l       *ABS*	00000000 EINTFLT1
5600009c l       *ABS*	00000000 EINTFLT2
560000a0 l       *ABS*	00000000 EINTFLT3
560000a4 l       *ABS*	00000000 EINTMASK
560000a8 l       *ABS*	00000000 EINTPEND
560000ac l       *ABS*	00000000 GSTATUS0
560000b0 l       *ABS*	00000000 GSTATUS1
560000b4 l       *ABS*	00000000 GSTATUS2
560000b8 l       *ABS*	00000000 GSTATUS3
560000bc l       *ABS*	00000000 GSTATUS4
560000cc l       *ABS*	00000000 MSLCON
53000000 l       *ABS*	00000000 WTCON
53000004 l       *ABS*	00000000 WTDAT
53000008 l       *ABS*	00000000 WTCNT
4e000000 l       *ABS*	00000000 NFCONF
4e000004 l       *ABS*	00000000 NFCONT
4e000008 l       *ABS*	00000000 NFCMD
4e00000c l       *ABS*	00000000 NFADDR
4e000010 l       *ABS*	00000000 NFDATA
4e000010 l       *ABS*	00000000 NFDATA8
4e000014 l       *ABS*	00000000 NFMECCD0
4e000018 l       *ABS*	00000000 NFMECCD1
4e00001c l       *ABS*	00000000 NFSECCD
4e000020 l       *ABS*	00000000 NFSTAT
4e000024 l       *ABS*	00000000 NFESTAT0
4e000028 l       *ABS*	00000000 NFESTAT1
4e00002c l       *ABS*	00000000 NFMECC0
4e000030 l       *ABS*	00000000 NFMECC1
4e000034 l       *ABS*	00000000 NFSECC
4e000038 l       *ABS*	00000000 NFSBLK
4e00003c l       *ABS*	00000000 NFEBLK
51000000 l       *ABS*	00000000 TCFG0
51000004 l       *ABS*	00000000 TCFG1
51000008 l       *ABS*	00000000 TCON
5100000c l       *ABS*	00000000 TCNTB0
51000010 l       *ABS*	00000000 TCMPB0
51000014 l       *ABS*	00000000 TCNTO0
51000018 l       *ABS*	00000000 TCNTB1
5100001c l       *ABS*	00000000 TCMPB1
51000020 l       *ABS*	00000000 TCNTO1
51000024 l       *ABS*	00000000 TCNTB2
51000028 l       *ABS*	00000000 TCMPB2
5100002c l       *ABS*	00000000 TCNTO2
51000030 l       *ABS*	00000000 TCNTB3
51000034 l       *ABS*	00000000 TCMPB3
51000038 l       *ABS*	00000000 TCNTO3
5100003c l       *ABS*	00000000 TCNTB4
51000040 l       *ABS*	00000000 TCNTO4
50000000 l       *ABS*	00000000 ULCON0
50000004 l       *ABS*	00000000 UCON0
50000008 l       *ABS*	00000000 UFCON0
5000000c l       *ABS*	00000000 UMCON0
50000010 l       *ABS*	00000000 UTRSTAT0
50000014 l       *ABS*	00000000 UERSTAT0
50000018 l       *ABS*	00000000 UFSTAT0
5000001c l       *ABS*	00000000 UMSTAT0
50000020 l       *ABS*	00000000 UTXH0
50000024 l       *ABS*	00000000 URXH0
50000028 l       *ABS*	00000000 UBRDIV0
50004000 l       *ABS*	00000000 ULCON1
50004004 l       *ABS*	00000000 UCON1
50004008 l       *ABS*	00000000 UFCON1
5000400c l       *ABS*	00000000 UMCON1
50004010 l       *ABS*	00000000 UTRSTAT1
50004014 l       *ABS*	00000000 UERSTAT1
50004018 l       *ABS*	00000000 UFSTAT1
5000401c l       *ABS*	00000000 UMSTAT1
50004020 l       *ABS*	00000000 UTXH1
50004024 l       *ABS*	00000000 URXH1
50004028 l       *ABS*	00000000 UBRDIV1
50008000 l       *ABS*	00000000 ULCON2
50008004 l       *ABS*	00000000 UCON2
50008008 l       *ABS*	00000000 UFCON2
50008010 l       *ABS*	00000000 UTRSTAT2
50008014 l       *ABS*	00000000 UERSTAT2
50008018 l       *ABS*	00000000 UFSTAT2
50008020 l       *ABS*	00000000 UTXH2
50008024 l       *ABS*	00000000 URXH2
50008028 l       *ABS*	00000000 UBRDIV2
56000000 l       *ABS*	00000000 GPACON
56000004 l       *ABS*	00000000 GPADAT
56000020 l       *ABS*	00000000 GPCCON
56000024 l       *ABS*	00000000 GPCDAT
56000028 l       *ABS*	00000000 GPCUP
56000030 l       *ABS*	00000000 GPDCON
56000034 l       *ABS*	00000000 GPDDAT
56000038 l       *ABS*	00000000 GPDUP
56000040 l       *ABS*	00000000 GPECON
56000044 l       *ABS*	00000000 GPEDAT
56000048 l       *ABS*	00000000 GPEUP
56000060 l       *ABS*	00000000 GPGCON
56000064 l       *ABS*	00000000 GPGDAT
56000068 l       *ABS*	00000000 GPGUP
56000070 l       *ABS*	00000000 GPHCON
56000074 l       *ABS*	00000000 GPHDAT
56000078 l       *ABS*	00000000 GPHUP
560000d0 l       *ABS*	00000000 GPJCON
560000d4 l       *ABS*	00000000 GPJDAT
560000d8 l       *ABS*	00000000 GPJUP
52000140 l       *ABS*	00000000 rFUNC_ADDR_REG
52000144 l       *ABS*	00000000 rPWR_REG
52000148 l       *ABS*	00000000 rEP_INT_REG
52000158 l       *ABS*	00000000 rUSB_INT_REG
5200015c l       *ABS*	00000000 rEP_INT_EN_REG
5200016c l       *ABS*	00000000 rUSB_INT_EN_REG
52000170 l       *ABS*	00000000 rFRAME_NUM1_REG
52000174 l       *ABS*	00000000 rFRAME_NUM2_REG
52000178 l       *ABS*	00000000 rINDEX_REG
52000180 l       *ABS*	00000000 rMAXP_REG
52000184 l       *ABS*	00000000 rEP0_CSR
52000184 l       *ABS*	00000000 rIN_CSR1_REG
52000188 l       *ABS*	00000000 rIN_CSR2_REG
52000190 l       *ABS*	00000000 rOUT_CSR1_REG
52000194 l       *ABS*	00000000 rOUT_CSR2_REG
52000198 l       *ABS*	00000000 rOUT_FIFO_CNT1_REG
5200019c l       *ABS*	00000000 rOUT_FIFO_CNT2_REG
520001c0 l       *ABS*	00000000 rEP0_FIFO
520001c4 l       *ABS*	00000000 rEP1_FIFO
520001c8 l       *ABS*	00000000 rEP2_FIFO
520001cc l       *ABS*	00000000 rEP3_FIFO
520001d0 l       *ABS*	00000000 rEP4_FIFO
52000200 l       *ABS*	00000000 rEP1_DMA_CON
52000204 l       *ABS*	00000000 rEP1_DMA_UNIT
52000208 l       *ABS*	00000000 rEP1_DMA_FIFO
5200020c l       *ABS*	00000000 rEP1_DMA_TTC_L
52000210 l       *ABS*	00000000 rEP1_DMA_TTC_M
52000214 l       *ABS*	00000000 rEP1_DMA_TTC_H
52000218 l       *ABS*	00000000 rEP2_DMA_CON
5200021c l       *ABS*	00000000 rEP2_DMA_UNIT
52000220 l       *ABS*	00000000 rEP2_DMA_FIFO
52000224 l       *ABS*	00000000 rEP2_DMA_TTC_L
52000228 l       *ABS*	00000000 rEP2_DMA_TTC_M
5200022c l       *ABS*	00000000 rEP2_DMA_TTC_H
52000240 l       *ABS*	00000000 rEP3_DMA_CON
52000244 l       *ABS*	00000000 rEP3_DMA_UNIT
52000248 l       *ABS*	00000000 rEP3_DMA_FIFO
5200024c l       *ABS*	00000000 rEP3_DMA_TTC_L
52000250 l       *ABS*	00000000 rEP3_DMA_TTC_M
52000254 l       *ABS*	00000000 rEP3_DMA_TTC_H
52000258 l       *ABS*	00000000 rEP4_DMA_CON
5200025c l       *ABS*	00000000 rEP4_DMA_UNIT
52000260 l       *ABS*	00000000 rEP4_DMA_FIFO
52000264 l       *ABS*	00000000 rEP4_DMA_TTC_L
52000268 l       *ABS*	00000000 rEP4_DMA_TTC_M
5200026c l       *ABS*	00000000 rEP4_DMA_TTC_H
49000000 l       *ABS*	00000000 rHcRevision
49000004 l       *ABS*	00000000 rHcControl
49000008 l       *ABS*	00000000 rHcCommonStatus
4900000c l       *ABS*	00000000 rHcInterruptStatus
49000010 l       *ABS*	00000000 rHcInterruptEnable
49000014 l       *ABS*	00000000 rHcInterruptDisable
49000018 l       *ABS*	00000000 rHcHCCA
4900001c l       *ABS*	00000000 rHcPeriodCurrentED
49000020 l       *ABS*	00000000 rHcControlHeadED
49000024 l       *ABS*	00000000 rHcControlCurrentED
49000028 l       *ABS*	00000000 rHcBulkHeadED
4900002c l       *ABS*	00000000 rHcBulkCurrentED
49000030 l       *ABS*	00000000 rHcDoneHead
49000034 l       *ABS*	00000000 rHcFmInterval
49000038 l       *ABS*	00000000 rHcFmRemaining
4900003c l       *ABS*	00000000 rHcFmNumber
49000040 l       *ABS*	00000000 rHcPeriodicStart
49000044 l       *ABS*	00000000 rHcLSThreshold
49000048 l       *ABS*	00000000 rHcRhDescriptorA
4900004c l       *ABS*	00000000 rHcRhDescriptorB
49000050 l       *ABS*	00000000 rHcRhStatus
49000054 l       *ABS*	00000000 rHcRhPortStatus1
49000058 l       *ABS*	00000000 rHcRhPortStatus2
4b000000 l       *ABS*	00000000 rDISRC0
4b000004 l       *ABS*	00000000 rDISRCC0
4b000008 l       *ABS*	00000000 rDIDST0
4b00000c l       *ABS*	00000000 rDIDSTC0
4b000010 l       *ABS*	00000000 rDCON0
4b000014 l       *ABS*	00000000 rDSTAT0
4b000018 l       *ABS*	00000000 rDCSRC0
4b00001c l       *ABS*	00000000 rDCDST0
4b000020 l       *ABS*	00000000 rDMASKTRIG0
4b000040 l       *ABS*	00000000 rDISRC1
4b000044 l       *ABS*	00000000 rDISRCC1
4b000048 l       *ABS*	00000000 rDIDST1
4b00004c l       *ABS*	00000000 rDIDSTC1
4b000050 l       *ABS*	00000000 rDCON1
4b000054 l       *ABS*	00000000 rDSTAT1
4b000058 l       *ABS*	00000000 rDCSRC1
4b00005c l       *ABS*	00000000 rDCDST1
4b000060 l       *ABS*	00000000 rDMASKTRIG1
4b000080 l       *ABS*	00000000 rDISRC2
4b000084 l       *ABS*	00000000 rDISRCC2
4b000088 l       *ABS*	00000000 rDIDST2
4b00008c l       *ABS*	00000000 rDIDSTC2
4b000090 l       *ABS*	00000000 rDCON2
4b000094 l       *ABS*	00000000 rDSTAT2
4b000098 l       *ABS*	00000000 rDCSRC2
4b00009c l       *ABS*	00000000 rDCDST2
4b0000a0 l       *ABS*	00000000 rDMASKTRIG2
4b0000c0 l       *ABS*	00000000 rDISRC3
4b0000c4 l       *ABS*	00000000 rDISRCC3
4b0000c8 l       *ABS*	00000000 rDIDST3
4b0000cc l       *ABS*	00000000 rDIDSTC3
4b0000d0 l       *ABS*	00000000 rDCON3
4b0000d4 l       *ABS*	00000000 rDSTAT3
4b0000d8 l       *ABS*	00000000 rDCSRC3
4b0000dc l       *ABS*	00000000 rDCDST3
4b0000e0 l       *ABS*	00000000 rDMASKTRIG3
4d000000 l       *ABS*	00000000 rLCDCON1
4d000004 l       *ABS*	00000000 rLCDCON2
4d000008 l       *ABS*	00000000 rLCDCON3
4d00000c l       *ABS*	00000000 rLCDCON4
4d000010 l       *ABS*	00000000 rLCDCON5
4d000014 l       *ABS*	00000000 rLCDSADDR1
4d000018 l       *ABS*	00000000 rLCDSADDR2
4d00001c l       *ABS*	00000000 rLCDSADDR3
4d000020 l       *ABS*	00000000 rREDLUT
4d000024 l       *ABS*	00000000 rGREENLUT
4d000028 l       *ABS*	00000000 rBLUELUT
4d00004c l       *ABS*	00000000 rDITHMODE
4d000050 l       *ABS*	00000000 rTPAL
4d000054 l       *ABS*	00000000 rLCDINTPND
4d000058 l       *ABS*	00000000 rLCDSRCPND
4d00005c l       *ABS*	00000000 rLCDINTMSK
4d000060 l       *ABS*	00000000 rTCONSEL
58000000 l       *ABS*	00000000 rADCCON
58000004 l       *ABS*	00000000 rADCTSC
58000008 l       *ABS*	00000000 rADCDLY
5800000c l       *ABS*	00000000 rADCDAT0
58000010 l       *ABS*	00000000 rADCDAT1
58000014 l       *ABS*	00000000 rADCUPDN
57000040 l       *ABS*	00000000 rRTCCON
57000044 l       *ABS*	00000000 rTICNT
57000050 l       *ABS*	00000000 rRTCALM
57000054 l       *ABS*	00000000 rALMSEC
57000058 l       *ABS*	00000000 rALMMIN
5700005c l       *ABS*	00000000 rALMHOUR
57000060 l       *ABS*	00000000 rALMDATE
57000064 l       *ABS*	00000000 rALMMON
57000068 l       *ABS*	00000000 rALMYEAR
5700006c l       *ABS*	00000000 rRTCRST
57000070 l       *ABS*	00000000 rBCDSEC
57000074 l       *ABS*	00000000 rBCDMIN
57000078 l       *ABS*	00000000 rBCDHOUR
5700007c l       *ABS*	00000000 rBCDDATE
57000080 l       *ABS*	00000000 rBCDDAY
57000084 l       *ABS*	00000000 rBCDMON
57000088 l       *ABS*	00000000 rBCDYEAR
54000000 l       *ABS*	00000000 rIICCON
54000004 l       *ABS*	00000000 rIICSTAT
54000008 l       *ABS*	00000000 rIICADD
5400000c l       *ABS*	00000000 rIICDS
54000010 l       *ABS*	00000000 rIICLC
55000000 l       *ABS*	00000000 rIISCON
55000004 l       *ABS*	00000000 rIISMOD
55000008 l       *ABS*	00000000 rIISPSR
5500000c l       *ABS*	00000000 rIISFCON
55000010 l       *ABS*	00000000 rIISFIFO
59000000 l       *ABS*	00000000 rSPICON0
59000004 l       *ABS*	00000000 rSPISTA0
59000008 l       *ABS*	00000000 rSPIPIN0
5900000c l       *ABS*	00000000 rSPIPRE0
59000010 l       *ABS*	00000000 rSPITDAT0
59000014 l       *ABS*	00000000 rSPIRDAT0
59000020 l       *ABS*	00000000 rSPICON1
59000024 l       *ABS*	00000000 rSPISTA1
59000028 l       *ABS*	00000000 rSPIPIN1
5900002c l       *ABS*	00000000 rSPIPRE1
59000030 l       *ABS*	00000000 rSPITDAT1
59000034 l       *ABS*	00000000 rSPIRDAT1
5a000000 l       *ABS*	00000000 rSDICON
5a000004 l       *ABS*	00000000 rSDIPRE
5a000008 l       *ABS*	00000000 rSDICARG
5a00000c l       *ABS*	00000000 rSDICCON
5a000010 l       *ABS*	00000000 rSDICSTA
5a000014 l       *ABS*	00000000 rSDIRSP0
5a000018 l       *ABS*	00000000 rSDIRSP1
5a00001c l       *ABS*	00000000 rSDIRSP2
5a000020 l       *ABS*	00000000 rSDIRSP3
5a000024 l       *ABS*	00000000 rSDIDTIMER
5a000028 l       *ABS*	00000000 rSDIBSIZE
5a00002c l       *ABS*	00000000 rSDIDCON
5a000030 l       *ABS*	00000000 rSDIDCNT
5a000034 l       *ABS*	00000000 rSDIDSTA
5a000038 l       *ABS*	00000000 rSDIFSTA
5a00003c l       *ABS*	00000000 rSDIDAT
5a000040 l       *ABS*	00000000 rSDIIMSK
4f000000 l       *ABS*	00000000 rCISRCFMT
4f000004 l       *ABS*	00000000 rCIWINFMT
4f000008 l       *ABS*	00000000 rCIWINOFSH
4f00000c l       *ABS*	00000000 rCIWINOFSV
4f000010 l       *ABS*	00000000 rCISRCNOFSH
4f000014 l       *ABS*	00000000 rCISRCNOFSV
4f000018 l       *ABS*	00000000 rCISRCOFSH
4f00001c l       *ABS*	00000000 rCISRCOFSV
4f000020 l       *ABS*	00000000 rCIGCTRL
4f000030 l       *ABS*	00000000 rCICOYSA1
4f000034 l       *ABS*	00000000 rCICOYSA2
4f000038 l       *ABS*	00000000 rCICOYSA3
4f00003c l       *ABS*	00000000 rCICOYSA4
4f000040 l       *ABS*	00000000 rCICOCBSA1
4f000044 l       *ABS*	00000000 rCICOCBSA2
4f000048 l       *ABS*	00000000 rCICOCBSA3
4f00004c l       *ABS*	00000000 rCICOCBSA4
4f000050 l       *ABS*	00000000 rCICOCRSA1
4f000054 l       *ABS*	00000000 rCICOCRSA2
4f000058 l       *ABS*	00000000 rCICOCRSA3
4f00005c l       *ABS*	00000000 rCICOCRSA4
4f000060 l       *ABS*	00000000 rCICOTRGFMT
4f000064 l       *ABS*	00000000 rCICOCTRL
4f000068 l       *ABS*	00000000 rCICOSCPRERATIO
4f00006c l       *ABS*	00000000 rCICOSCPREDST
4f000070 l       *ABS*	00000000 rCICOSCCTRL
4f000074 l       *ABS*	00000000 rCICOAREA
4f000078 l       *ABS*	00000000 rCICOSTATUS
4f000080 l       *ABS*	00000000 rCIPRCLRSRA1
4f000084 l       *ABS*	00000000 rCIPRCLRSRA2
4f000088 l       *ABS*	00000000 rCIPRCLRSRA3
4f00008c l       *ABS*	00000000 rCIPRCLRSRA4
4f000090 l       *ABS*	00000000 rCIPRTRGFMT
4f000094 l       *ABS*	00000000 rCIPRCTRL
4f000098 l       *ABS*	00000000 rCIPRSCPRERATIO
4f00009c l       *ABS*	00000000 rCIPRSCPREDST
4f0000a0 l       *ABS*	00000000 rCIPRSCCTRL
4f0000a4 l       *ABS*	00000000 rCIPRAREA
4f0000a8 l       *ABS*	00000000 rCIPRSTATUS
5b000000 l       *ABS*	00000000 rAC_GLBCTRL
5b000004 l       *ABS*	00000000 rAC_GLBSTAT
5b000008 l       *ABS*	00000000 rAC_CODEC_CMD
5b00000c l       *ABS*	00000000 rAC_CODEC_STAT
5b000010 l       *ABS*	00000000 rAC_PCMADDR
5b000014 l       *ABS*	00000000 rAC_MICADDR
5b000018 l       *ABS*	00000000 rAC_PCMDATA
5b00001c l       *ABS*	00000000 rAC_MICDATA
00000000 l       *ABS*	00000000 DW8
00000001 l       *ABS*	00000000 DW16
00000002 l       *ABS*	00000000 DW32
00000004 l       *ABS*	00000000 WAIT
00000008 l       *ABS*	00000000 UBLB
00000001 l       *ABS*	00000000 B1_BWSCON
00000001 l       *ABS*	00000000 B2_BWSCON
00000001 l       *ABS*	00000000 B3_BWSCON
00000002 l       *ABS*	00000000 B4_BWSCON
00000001 l       *ABS*	00000000 B5_BWSCON
00000002 l       *ABS*	00000000 B6_BWSCON
00000002 l       *ABS*	00000000 B7_BWSCON
00000003 l       *ABS*	00000000 B0_Tacs
00000003 l       *ABS*	00000000 B0_Tcos
00000007 l       *ABS*	00000000 B0_Tacc
00000003 l       *ABS*	00000000 B0_Tcoh
00000003 l       *ABS*	00000000 B0_Tah
00000001 l       *ABS*	00000000 B0_Tacp
00000000 l       *ABS*	00000000 B0_PMC
00000001 l       *ABS*	00000000 B1_Tacs
00000001 l       *ABS*	00000000 B1_Tcos
00000006 l       *ABS*	00000000 B1_Tacc
00000001 l       *ABS*	00000000 B1_Tcoh
00000001 l       *ABS*	00000000 B1_Tah
00000000 l       *ABS*	00000000 B1_Tacp
00000000 l       *ABS*	00000000 B1_PMC
00000001 l       *ABS*	00000000 B2_Tacs
00000001 l       *ABS*	00000000 B2_Tcos
00000006 l       *ABS*	00000000 B2_Tacc
00000001 l       *ABS*	00000000 B2_Tcoh
00000001 l       *ABS*	00000000 B2_Tah
00000000 l       *ABS*	00000000 B2_Tacp
00000000 l       *ABS*	00000000 B2_PMC
00000001 l       *ABS*	00000000 B3_Tacs
00000001 l       *ABS*	00000000 B3_Tcos
00000006 l       *ABS*	00000000 B3_Tacc
00000001 l       *ABS*	00000000 B3_Tcoh
00000001 l       *ABS*	00000000 B3_Tah
00000000 l       *ABS*	00000000 B3_Tacp
00000000 l       *ABS*	00000000 B3_PMC
00000001 l       *ABS*	00000000 B4_Tacs
00000001 l       *ABS*	00000000 B4_Tcos
00000006 l       *ABS*	00000000 B4_Tacc
00000001 l       *ABS*	00000000 B4_Tcoh
00000001 l       *ABS*	00000000 B4_Tah
00000000 l       *ABS*	00000000 B4_Tacp
00000000 l       *ABS*	00000000 B4_PMC
00000001 l       *ABS*	00000000 B5_Tacs
00000001 l       *ABS*	00000000 B5_Tcos
00000006 l       *ABS*	00000000 B5_Tacc
00000001 l       *ABS*	00000000 B5_Tcoh
00000001 l       *ABS*	00000000 B5_Tah
00000000 l       *ABS*	00000000 B5_Tacp
00000000 l       *ABS*	00000000 B5_PMC
00000003 l       *ABS*	00000000 B6_MT
00000001 l       *ABS*	00000000 B6_Trcd
00000001 l       *ABS*	00000000 B6_SCAN
00000003 l       *ABS*	00000000 B7_MT
00000001 l       *ABS*	00000000 B7_Trcd
00000001 l       *ABS*	00000000 B7_SCAN
00000001 l       *ABS*	00000000 REFEN
00000000 l       *ABS*	00000000 TREFMD
00000001 l       *ABS*	00000000 Trp
00000001 l       *ABS*	00000000 Tsrc
00000002 l       *ABS*	00000000 Tchr
000004f4 l       *ABS*	00000000 REFCNT
00000010 l       *ABS*	00000000 USERMODE
00000011 l       *ABS*	00000000 FIQMODE
00000012 l       *ABS*	00000000 IRQMODE
00000013 l       *ABS*	00000000 SVCMODE
00000017 l       *ABS*	00000000 ABORTMODE
0000001b l       *ABS*	00000000 UNDEFMODE
0000001f l       *ABS*	00000000 MODEMASK
30000110 l       .text	00000000 reset
30000020 l       .text	00000000 undef
30000040 l       .text	00000000 swi
30000060 l       .text	00000000 pabort
30000080 l       .text	00000000 dabort
300000f0 l       .text	00000000 fiq
300000a0 l       .text	00000000 irq
33ffff20 l       *ABS*	00000000 HandlerEINT0
00000038 l       *ABS*	00000000 U_MDIV
00000002 l       *ABS*	00000000 U_PDIV
00000002 l       *ABS*	00000000 U_SDIV
0000007f l       *ABS*	00000000 M_MDIV
00000002 l       *ABS*	00000000 M_PDIV
00000001 l       *ABS*	00000000 M_SDIV
00000005 l       *ABS*	00000000 CLKDIVN_VAL
300002cc l       .text	00000000 SMRDATA
33ff8000 l       *ABS*	00000000 STACK_BASE_ADDRESS
33ff4800 l       *ABS*	00000000 UserStack
33ff5800 l       *ABS*	00000000 SVCStack
33ff5c00 l       *ABS*	00000000 UndefStack
33ff6000 l       *ABS*	00000000 AbortStack
33ff7000 l       *ABS*	00000000 IRQStack
33ff8000 l       *ABS*	00000000 FIQStack
3000025c l       .text	00000000 on_sdram
30000248 l       .text	00000000 copy_loop
3000030c l       .text	00000000 BaseOfZero
30000310 l       .text	00000000 EndOfBSS
30000300 l       .text	00000000 BaseOfROM
30000304 l       .text	00000000 TopOfROM
30000308 l       .text	00000000 BaseOfBSS
33ffff00 l       *ABS*	00000000 ISR_ENTRIES_STARTADDRESS
33ffff00 l       *ABS*	00000000 HandleReset
33ffff04 l       *ABS*	00000000 HandleUndef
33ffff08 l       *ABS*	00000000 HandleSWI
33ffff0c l       *ABS*	00000000 HandlePabort
33ffff10 l       *ABS*	00000000 HandleDabort
33ffff14 l       *ABS*	00000000 HandleReserved
33ffff18 l       *ABS*	00000000 HandleIRQ
33ffff1c l       *ABS*	00000000 HandleFIQ
33ffff24 l       *ABS*	00000000 HandlerEINT1
33ffff28 l       *ABS*	00000000 HandlerEINT2
33ffff2c l       *ABS*	00000000 HandlerEINT3
33ffff30 l       *ABS*	00000000 HandlerEINT4_7
33ffff34 l       *ABS*	00000000 HandlerEINT8_23
33ffff38 l       *ABS*	00000000 HandlerINT_CAM
33ffff3c l       *ABS*	00000000 HandlernBATT_FLT
33ffff40 l       *ABS*	00000000 HandlerINT_TICK
33ffff44 l       *ABS*	00000000 HandlerINT_WDT_AC97
33ffff48 l       *ABS*	00000000 HandlerINT_TIMER0
33ffff4c l       *ABS*	00000000 HandlerINT_TIMER1
33ffff50 l       *ABS*	00000000 HandlerINT_TIMER2
33ffff54 l       *ABS*	00000000 HandlerINT_TIMER3
33ffff58 l       *ABS*	00000000 HandlerINT_TIMER4
33ffff5c l       *ABS*	00000000 HandlerINT_UART2
33ffff60 l       *ABS*	00000000 HandlerINT_LCD
33ffff64 l       *ABS*	00000000 HandlerINT_DMA0
33ffff68 l       *ABS*	00000000 HandlerINT_DMA1
33ffff6c l       *ABS*	00000000 HandlerINT_DMA2
33ffff70 l       *ABS*	00000000 HandlerINT_DMA3
33ffff74 l       *ABS*	00000000 HandlerINT_SDI
33ffff78 l       *ABS*	00000000 HandlerINT_SPI0
33ffff7c l       *ABS*	00000000 HandlerINT_UART1
33ffff80 l       *ABS*	00000000 HandlerINT_NFCON
33ffff84 l       *ABS*	00000000 HandlerINT_USBD
33ffff88 l       *ABS*	00000000 HandlerINT_USBH
33ffff8c l       *ABS*	00000000 HandlerINT_IIC
33ffff90 l       *ABS*	00000000 HandlerINT_UART0
33ffff94 l       *ABS*	00000000 HandlerINT_SPI1
33ffff98 l       *ABS*	00000000 HandlerINT_RTC
33ffff9c l       *ABS*	00000000 HandlerINT_ADC
00000000 l    df *ABS*	00000000 os_cpu_context_switch.o
00000020 l       *ABS*	00000000 BUSWIDTH
48000000 l       *ABS*	00000000 BWSCON
48000004 l       *ABS*	00000000 BANKCON0
48000008 l       *ABS*	00000000 BANKCON1
4800000c l       *ABS*	00000000 BANKCON2
48000010 l       *ABS*	00000000 BANKCON3
48000014 l       *ABS*	00000000 BANKCON4
48000018 l       *ABS*	00000000 BANKCON5
4800001c l       *ABS*	00000000 BANKCON6
48000020 l       *ABS*	00000000 BANKCON7
48000024 l       *ABS*	00000000 REFRESH
48000028 l       *ABS*	00000000 BANKSIZE
4800002c l       *ABS*	00000000 MRSRB6
48000030 l       *ABS*	00000000 MRSRB7
4c000000 l       *ABS*	00000000 LOCKTIME
4c000004 l       *ABS*	00000000 MPLLCON
4c000008 l       *ABS*	00000000 UPLLCON
4c00000c l       *ABS*	00000000 CLKCON
4c000010 l       *ABS*	00000000 CLKSLOW
4c000014 l       *ABS*	00000000 CLKDIVN
4a000000 l       *ABS*	00000000 SRCPND
4a000004 l       *ABS*	00000000 INTMOD
4a000008 l       *ABS*	00000000 INTMSK
4a00000c l       *ABS*	00000000 PRIORITY
4a000010 l       *ABS*	00000000 INTPND
4a000014 l       *ABS*	00000000 INTOFFSET
4a000018 l       *ABS*	00000000 SUSSRCPND
4a00001c l       *ABS*	00000000 INTSUBMSK
56000050 l       *ABS*	00000000 GPFCON
56000054 l       *ABS*	00000000 GPFDAT
56000058 l       *ABS*	00000000 GPFUP
56000010 l       *ABS*	00000000 GPBCON
56000014 l       *ABS*	00000000 GPBDAT
56000080 l       *ABS*	00000000 MISCCR
56000084 l       *ABS*	00000000 DCKCON
56000088 l       *ABS*	00000000 EXTINT0
5600008c l       *ABS*	00000000 EXTINT1
56000090 l       *ABS*	00000000 EXTINT2
56000094 l       *ABS*	00000000 EINTFLT0
56000098 l       *ABS*	00000000 EINTFLT1
5600009c l       *ABS*	00000000 EINTFLT2
560000a0 l       *ABS*	00000000 EINTFLT3
560000a4 l       *ABS*	00000000 EINTMASK
560000a8 l       *ABS*	00000000 EINTPEND
560000ac l       *ABS*	00000000 GSTATUS0
560000b0 l       *ABS*	00000000 GSTATUS1
560000b4 l       *ABS*	00000000 GSTATUS2
560000b8 l       *ABS*	00000000 GSTATUS3
560000bc l       *ABS*	00000000 GSTATUS4
560000cc l       *ABS*	00000000 MSLCON
53000000 l       *ABS*	00000000 WTCON
53000004 l       *ABS*	00000000 WTDAT
53000008 l       *ABS*	00000000 WTCNT
4e000000 l       *ABS*	00000000 NFCONF
4e000004 l       *ABS*	00000000 NFCONT
4e000008 l       *ABS*	00000000 NFCMD
4e00000c l       *ABS*	00000000 NFADDR
4e000010 l       *ABS*	00000000 NFDATA
4e000010 l       *ABS*	00000000 NFDATA8
4e000014 l       *ABS*	00000000 NFMECCD0
4e000018 l       *ABS*	00000000 NFMECCD1
4e00001c l       *ABS*	00000000 NFSECCD
4e000020 l       *ABS*	00000000 NFSTAT
4e000024 l       *ABS*	00000000 NFESTAT0
4e000028 l       *ABS*	00000000 NFESTAT1
4e00002c l       *ABS*	00000000 NFMECC0
4e000030 l       *ABS*	00000000 NFMECC1
4e000034 l       *ABS*	00000000 NFSECC
4e000038 l       *ABS*	00000000 NFSBLK
4e00003c l       *ABS*	00000000 NFEBLK
51000000 l       *ABS*	00000000 TCFG0
51000004 l       *ABS*	00000000 TCFG1
51000008 l       *ABS*	00000000 TCON
5100000c l       *ABS*	00000000 TCNTB0
51000010 l       *ABS*	00000000 TCMPB0
51000014 l       *ABS*	00000000 TCNTO0
51000018 l       *ABS*	00000000 TCNTB1
5100001c l       *ABS*	00000000 TCMPB1
51000020 l       *ABS*	00000000 TCNTO1
51000024 l       *ABS*	00000000 TCNTB2
51000028 l       *ABS*	00000000 TCMPB2
5100002c l       *ABS*	00000000 TCNTO2
51000030 l       *ABS*	00000000 TCNTB3
51000034 l       *ABS*	00000000 TCMPB3
51000038 l       *ABS*	00000000 TCNTO3
5100003c l       *ABS*	00000000 TCNTB4
51000040 l       *ABS*	00000000 TCNTO4
50000000 l       *ABS*	00000000 ULCON0
50000004 l       *ABS*	00000000 UCON0
50000008 l       *ABS*	00000000 UFCON0
5000000c l       *ABS*	00000000 UMCON0
50000010 l       *ABS*	00000000 UTRSTAT0
50000014 l       *ABS*	00000000 UERSTAT0
50000018 l       *ABS*	00000000 UFSTAT0
5000001c l       *ABS*	00000000 UMSTAT0
50000020 l       *ABS*	00000000 UTXH0
50000024 l       *ABS*	00000000 URXH0
50000028 l       *ABS*	00000000 UBRDIV0
50004000 l       *ABS*	00000000 ULCON1
50004004 l       *ABS*	00000000 UCON1
50004008 l       *ABS*	00000000 UFCON1
5000400c l       *ABS*	00000000 UMCON1
50004010 l       *ABS*	00000000 UTRSTAT1
50004014 l       *ABS*	00000000 UERSTAT1
50004018 l       *ABS*	00000000 UFSTAT1
5000401c l       *ABS*	00000000 UMSTAT1
50004020 l       *ABS*	00000000 UTXH1
50004024 l       *ABS*	00000000 URXH1
50004028 l       *ABS*	00000000 UBRDIV1
50008000 l       *ABS*	00000000 ULCON2
50008004 l       *ABS*	00000000 UCON2
50008008 l       *ABS*	00000000 UFCON2
50008010 l       *ABS*	00000000 UTRSTAT2
50008014 l       *ABS*	00000000 UERSTAT2
50008018 l       *ABS*	00000000 UFSTAT2
50008020 l       *ABS*	00000000 UTXH2
50008024 l       *ABS*	00000000 URXH2
50008028 l       *ABS*	00000000 UBRDIV2
56000000 l       *ABS*	00000000 GPACON
56000004 l       *ABS*	00000000 GPADAT
56000020 l       *ABS*	00000000 GPCCON
56000024 l       *ABS*	00000000 GPCDAT
56000028 l       *ABS*	00000000 GPCUP
56000030 l       *ABS*	00000000 GPDCON
56000034 l       *ABS*	00000000 GPDDAT
56000038 l       *ABS*	00000000 GPDUP
56000040 l       *ABS*	00000000 GPECON
56000044 l       *ABS*	00000000 GPEDAT
56000048 l       *ABS*	00000000 GPEUP
56000060 l       *ABS*	00000000 GPGCON
56000064 l       *ABS*	00000000 GPGDAT
56000068 l       *ABS*	00000000 GPGUP
56000070 l       *ABS*	00000000 GPHCON
56000074 l       *ABS*	00000000 GPHDAT
56000078 l       *ABS*	00000000 GPHUP
560000d0 l       *ABS*	00000000 GPJCON
560000d4 l       *ABS*	00000000 GPJDAT
560000d8 l       *ABS*	00000000 GPJUP
52000140 l       *ABS*	00000000 rFUNC_ADDR_REG
52000144 l       *ABS*	00000000 rPWR_REG
52000148 l       *ABS*	00000000 rEP_INT_REG
52000158 l       *ABS*	00000000 rUSB_INT_REG
5200015c l       *ABS*	00000000 rEP_INT_EN_REG
5200016c l       *ABS*	00000000 rUSB_INT_EN_REG
52000170 l       *ABS*	00000000 rFRAME_NUM1_REG
52000174 l       *ABS*	00000000 rFRAME_NUM2_REG
52000178 l       *ABS*	00000000 rINDEX_REG
52000180 l       *ABS*	00000000 rMAXP_REG
52000184 l       *ABS*	00000000 rEP0_CSR
52000184 l       *ABS*	00000000 rIN_CSR1_REG
52000188 l       *ABS*	00000000 rIN_CSR2_REG
52000190 l       *ABS*	00000000 rOUT_CSR1_REG
52000194 l       *ABS*	00000000 rOUT_CSR2_REG
52000198 l       *ABS*	00000000 rOUT_FIFO_CNT1_REG
5200019c l       *ABS*	00000000 rOUT_FIFO_CNT2_REG
520001c0 l       *ABS*	00000000 rEP0_FIFO
520001c4 l       *ABS*	00000000 rEP1_FIFO
520001c8 l       *ABS*	00000000 rEP2_FIFO
520001cc l       *ABS*	00000000 rEP3_FIFO
520001d0 l       *ABS*	00000000 rEP4_FIFO
52000200 l       *ABS*	00000000 rEP1_DMA_CON
52000204 l       *ABS*	00000000 rEP1_DMA_UNIT
52000208 l       *ABS*	00000000 rEP1_DMA_FIFO
5200020c l       *ABS*	00000000 rEP1_DMA_TTC_L
52000210 l       *ABS*	00000000 rEP1_DMA_TTC_M
52000214 l       *ABS*	00000000 rEP1_DMA_TTC_H
52000218 l       *ABS*	00000000 rEP2_DMA_CON
5200021c l       *ABS*	00000000 rEP2_DMA_UNIT
52000220 l       *ABS*	00000000 rEP2_DMA_FIFO
52000224 l       *ABS*	00000000 rEP2_DMA_TTC_L
52000228 l       *ABS*	00000000 rEP2_DMA_TTC_M
5200022c l       *ABS*	00000000 rEP2_DMA_TTC_H
52000240 l       *ABS*	00000000 rEP3_DMA_CON
52000244 l       *ABS*	00000000 rEP3_DMA_UNIT
52000248 l       *ABS*	00000000 rEP3_DMA_FIFO
5200024c l       *ABS*	00000000 rEP3_DMA_TTC_L
52000250 l       *ABS*	00000000 rEP3_DMA_TTC_M
52000254 l       *ABS*	00000000 rEP3_DMA_TTC_H
52000258 l       *ABS*	00000000 rEP4_DMA_CON
5200025c l       *ABS*	00000000 rEP4_DMA_UNIT
52000260 l       *ABS*	00000000 rEP4_DMA_FIFO
52000264 l       *ABS*	00000000 rEP4_DMA_TTC_L
52000268 l       *ABS*	00000000 rEP4_DMA_TTC_M
5200026c l       *ABS*	00000000 rEP4_DMA_TTC_H
49000000 l       *ABS*	00000000 rHcRevision
49000004 l       *ABS*	00000000 rHcControl
49000008 l       *ABS*	00000000 rHcCommonStatus
4900000c l       *ABS*	00000000 rHcInterruptStatus
49000010 l       *ABS*	00000000 rHcInterruptEnable
49000014 l       *ABS*	00000000 rHcInterruptDisable
49000018 l       *ABS*	00000000 rHcHCCA
4900001c l       *ABS*	00000000 rHcPeriodCurrentED
49000020 l       *ABS*	00000000 rHcControlHeadED
49000024 l       *ABS*	00000000 rHcControlCurrentED
49000028 l       *ABS*	00000000 rHcBulkHeadED
4900002c l       *ABS*	00000000 rHcBulkCurrentED
49000030 l       *ABS*	00000000 rHcDoneHead
49000034 l       *ABS*	00000000 rHcFmInterval
49000038 l       *ABS*	00000000 rHcFmRemaining
4900003c l       *ABS*	00000000 rHcFmNumber
49000040 l       *ABS*	00000000 rHcPeriodicStart
49000044 l       *ABS*	00000000 rHcLSThreshold
49000048 l       *ABS*	00000000 rHcRhDescriptorA
4900004c l       *ABS*	00000000 rHcRhDescriptorB
49000050 l       *ABS*	00000000 rHcRhStatus
49000054 l       *ABS*	00000000 rHcRhPortStatus1
49000058 l       *ABS*	00000000 rHcRhPortStatus2
4b000000 l       *ABS*	00000000 rDISRC0
4b000004 l       *ABS*	00000000 rDISRCC0
4b000008 l       *ABS*	00000000 rDIDST0
4b00000c l       *ABS*	00000000 rDIDSTC0
4b000010 l       *ABS*	00000000 rDCON0
4b000014 l       *ABS*	00000000 rDSTAT0
4b000018 l       *ABS*	00000000 rDCSRC0
4b00001c l       *ABS*	00000000 rDCDST0
4b000020 l       *ABS*	00000000 rDMASKTRIG0
4b000040 l       *ABS*	00000000 rDISRC1
4b000044 l       *ABS*	00000000 rDISRCC1
4b000048 l       *ABS*	00000000 rDIDST1
4b00004c l       *ABS*	00000000 rDIDSTC1
4b000050 l       *ABS*	00000000 rDCON1
4b000054 l       *ABS*	00000000 rDSTAT1
4b000058 l       *ABS*	00000000 rDCSRC1
4b00005c l       *ABS*	00000000 rDCDST1
4b000060 l       *ABS*	00000000 rDMASKTRIG1
4b000080 l       *ABS*	00000000 rDISRC2
4b000084 l       *ABS*	00000000 rDISRCC2
4b000088 l       *ABS*	00000000 rDIDST2
4b00008c l       *ABS*	00000000 rDIDSTC2
4b000090 l       *ABS*	00000000 rDCON2
4b000094 l       *ABS*	00000000 rDSTAT2
4b000098 l       *ABS*	00000000 rDCSRC2
4b00009c l       *ABS*	00000000 rDCDST2
4b0000a0 l       *ABS*	00000000 rDMASKTRIG2
4b0000c0 l       *ABS*	00000000 rDISRC3
4b0000c4 l       *ABS*	00000000 rDISRCC3
4b0000c8 l       *ABS*	00000000 rDIDST3
4b0000cc l       *ABS*	00000000 rDIDSTC3
4b0000d0 l       *ABS*	00000000 rDCON3
4b0000d4 l       *ABS*	00000000 rDSTAT3
4b0000d8 l       *ABS*	00000000 rDCSRC3
4b0000dc l       *ABS*	00000000 rDCDST3
4b0000e0 l       *ABS*	00000000 rDMASKTRIG3
4d000000 l       *ABS*	00000000 rLCDCON1
4d000004 l       *ABS*	00000000 rLCDCON2
4d000008 l       *ABS*	00000000 rLCDCON3
4d00000c l       *ABS*	00000000 rLCDCON4
4d000010 l       *ABS*	00000000 rLCDCON5
4d000014 l       *ABS*	00000000 rLCDSADDR1
4d000018 l       *ABS*	00000000 rLCDSADDR2
4d00001c l       *ABS*	00000000 rLCDSADDR3
4d000020 l       *ABS*	00000000 rREDLUT
4d000024 l       *ABS*	00000000 rGREENLUT
4d000028 l       *ABS*	00000000 rBLUELUT
4d00004c l       *ABS*	00000000 rDITHMODE
4d000050 l       *ABS*	00000000 rTPAL
4d000054 l       *ABS*	00000000 rLCDINTPND
4d000058 l       *ABS*	00000000 rLCDSRCPND
4d00005c l       *ABS*	00000000 rLCDINTMSK
4d000060 l       *ABS*	00000000 rTCONSEL
58000000 l       *ABS*	00000000 rADCCON
58000004 l       *ABS*	00000000 rADCTSC
58000008 l       *ABS*	00000000 rADCDLY
5800000c l       *ABS*	00000000 rADCDAT0
58000010 l       *ABS*	00000000 rADCDAT1
58000014 l       *ABS*	00000000 rADCUPDN
57000040 l       *ABS*	00000000 rRTCCON
57000044 l       *ABS*	00000000 rTICNT
57000050 l       *ABS*	00000000 rRTCALM
57000054 l       *ABS*	00000000 rALMSEC
57000058 l       *ABS*	00000000 rALMMIN
5700005c l       *ABS*	00000000 rALMHOUR
57000060 l       *ABS*	00000000 rALMDATE
57000064 l       *ABS*	00000000 rALMMON
57000068 l       *ABS*	00000000 rALMYEAR
5700006c l       *ABS*	00000000 rRTCRST
57000070 l       *ABS*	00000000 rBCDSEC
57000074 l       *ABS*	00000000 rBCDMIN
57000078 l       *ABS*	00000000 rBCDHOUR
5700007c l       *ABS*	00000000 rBCDDATE
57000080 l       *ABS*	00000000 rBCDDAY
57000084 l       *ABS*	00000000 rBCDMON
57000088 l       *ABS*	00000000 rBCDYEAR
54000000 l       *ABS*	00000000 rIICCON
54000004 l       *ABS*	00000000 rIICSTAT
54000008 l       *ABS*	00000000 rIICADD
5400000c l       *ABS*	00000000 rIICDS
54000010 l       *ABS*	00000000 rIICLC
55000000 l       *ABS*	00000000 rIISCON
55000004 l       *ABS*	00000000 rIISMOD
55000008 l       *ABS*	00000000 rIISPSR
5500000c l       *ABS*	00000000 rIISFCON
55000010 l       *ABS*	00000000 rIISFIFO
59000000 l       *ABS*	00000000 rSPICON0
59000004 l       *ABS*	00000000 rSPISTA0
59000008 l       *ABS*	00000000 rSPIPIN0
5900000c l       *ABS*	00000000 rSPIPRE0
59000010 l       *ABS*	00000000 rSPITDAT0
59000014 l       *ABS*	00000000 rSPIRDAT0
59000020 l       *ABS*	00000000 rSPICON1
59000024 l       *ABS*	00000000 rSPISTA1
59000028 l       *ABS*	00000000 rSPIPIN1
5900002c l       *ABS*	00000000 rSPIPRE1
59000030 l       *ABS*	00000000 rSPITDAT1
59000034 l       *ABS*	00000000 rSPIRDAT1
5a000000 l       *ABS*	00000000 rSDICON
5a000004 l       *ABS*	00000000 rSDIPRE
5a000008 l       *ABS*	00000000 rSDICARG
5a00000c l       *ABS*	00000000 rSDICCON
5a000010 l       *ABS*	00000000 rSDICSTA
5a000014 l       *ABS*	00000000 rSDIRSP0
5a000018 l       *ABS*	00000000 rSDIRSP1
5a00001c l       *ABS*	00000000 rSDIRSP2
5a000020 l       *ABS*	00000000 rSDIRSP3
5a000024 l       *ABS*	00000000 rSDIDTIMER
5a000028 l       *ABS*	00000000 rSDIBSIZE
5a00002c l       *ABS*	00000000 rSDIDCON
5a000030 l       *ABS*	00000000 rSDIDCNT
5a000034 l       *ABS*	00000000 rSDIDSTA
5a000038 l       *ABS*	00000000 rSDIFSTA
5a00003c l       *ABS*	00000000 rSDIDAT
5a000040 l       *ABS*	00000000 rSDIIMSK
4f000000 l       *ABS*	00000000 rCISRCFMT
4f000004 l       *ABS*	00000000 rCIWINFMT
4f000008 l       *ABS*	00000000 rCIWINOFSH
4f00000c l       *ABS*	00000000 rCIWINOFSV
4f000010 l       *ABS*	00000000 rCISRCNOFSH
4f000014 l       *ABS*	00000000 rCISRCNOFSV
4f000018 l       *ABS*	00000000 rCISRCOFSH
4f00001c l       *ABS*	00000000 rCISRCOFSV
4f000020 l       *ABS*	00000000 rCIGCTRL
4f000030 l       *ABS*	00000000 rCICOYSA1
4f000034 l       *ABS*	00000000 rCICOYSA2
4f000038 l       *ABS*	00000000 rCICOYSA3
4f00003c l       *ABS*	00000000 rCICOYSA4
4f000040 l       *ABS*	00000000 rCICOCBSA1
4f000044 l       *ABS*	00000000 rCICOCBSA2
4f000048 l       *ABS*	00000000 rCICOCBSA3
4f00004c l       *ABS*	00000000 rCICOCBSA4
4f000050 l       *ABS*	00000000 rCICOCRSA1
4f000054 l       *ABS*	00000000 rCICOCRSA2
4f000058 l       *ABS*	00000000 rCICOCRSA3
4f00005c l       *ABS*	00000000 rCICOCRSA4
4f000060 l       *ABS*	00000000 rCICOTRGFMT
4f000064 l       *ABS*	00000000 rCICOCTRL
4f000068 l       *ABS*	00000000 rCICOSCPRERATIO
4f00006c l       *ABS*	00000000 rCICOSCPREDST
4f000070 l       *ABS*	00000000 rCICOSCCTRL
4f000074 l       *ABS*	00000000 rCICOAREA
4f000078 l       *ABS*	00000000 rCICOSTATUS
4f000080 l       *ABS*	00000000 rCIPRCLRSRA1
4f000084 l       *ABS*	00000000 rCIPRCLRSRA2
4f000088 l       *ABS*	00000000 rCIPRCLRSRA3
4f00008c l       *ABS*	00000000 rCIPRCLRSRA4
4f000090 l       *ABS*	00000000 rCIPRTRGFMT
4f000094 l       *ABS*	00000000 rCIPRCTRL
4f000098 l       *ABS*	00000000 rCIPRSCPRERATIO
4f00009c l       *ABS*	00000000 rCIPRSCPREDST
4f0000a0 l       *ABS*	00000000 rCIPRSCCTRL
4f0000a4 l       *ABS*	00000000 rCIPRAREA
4f0000a8 l       *ABS*	00000000 rCIPRSTATUS
5b000000 l       *ABS*	00000000 rAC_GLBCTRL
5b000004 l       *ABS*	00000000 rAC_GLBSTAT
5b000008 l       *ABS*	00000000 rAC_CODEC_CMD
5b00000c l       *ABS*	00000000 rAC_CODEC_STAT
5b000010 l       *ABS*	00000000 rAC_PCMADDR
5b000014 l       *ABS*	00000000 rAC_MICADDR
5b000018 l       *ABS*	00000000 rAC_PCMDATA
5b00001c l       *ABS*	00000000 rAC_MICDATA
00000000 l       *ABS*	00000000 DW8
00000001 l       *ABS*	00000000 DW16
00000002 l       *ABS*	00000000 DW32
00000004 l       *ABS*	00000000 WAIT
00000008 l       *ABS*	00000000 UBLB
00000001 l       *ABS*	00000000 B1_BWSCON
00000001 l       *ABS*	00000000 B2_BWSCON
00000001 l       *ABS*	00000000 B3_BWSCON
00000002 l       *ABS*	00000000 B4_BWSCON
00000001 l       *ABS*	00000000 B5_BWSCON
00000002 l       *ABS*	00000000 B6_BWSCON
00000002 l       *ABS*	00000000 B7_BWSCON
00000003 l       *ABS*	00000000 B0_Tacs
00000003 l       *ABS*	00000000 B0_Tcos
00000007 l       *ABS*	00000000 B0_Tacc
00000003 l       *ABS*	00000000 B0_Tcoh
00000003 l       *ABS*	00000000 B0_Tah
00000001 l       *ABS*	00000000 B0_Tacp
00000000 l       *ABS*	00000000 B0_PMC
00000001 l       *ABS*	00000000 B1_Tacs
00000001 l       *ABS*	00000000 B1_Tcos
00000006 l       *ABS*	00000000 B1_Tacc
00000001 l       *ABS*	00000000 B1_Tcoh
00000001 l       *ABS*	00000000 B1_Tah
00000000 l       *ABS*	00000000 B1_Tacp
00000000 l       *ABS*	00000000 B1_PMC
00000001 l       *ABS*	00000000 B2_Tacs
00000001 l       *ABS*	00000000 B2_Tcos
00000006 l       *ABS*	00000000 B2_Tacc
00000001 l       *ABS*	00000000 B2_Tcoh
00000001 l       *ABS*	00000000 B2_Tah
00000000 l       *ABS*	00000000 B2_Tacp
00000000 l       *ABS*	00000000 B2_PMC
00000001 l       *ABS*	00000000 B3_Tacs
00000001 l       *ABS*	00000000 B3_Tcos
00000006 l       *ABS*	00000000 B3_Tacc
00000001 l       *ABS*	00000000 B3_Tcoh
00000001 l       *ABS*	00000000 B3_Tah
00000000 l       *ABS*	00000000 B3_Tacp
00000000 l       *ABS*	00000000 B3_PMC
00000001 l       *ABS*	00000000 B4_Tacs
00000001 l       *ABS*	00000000 B4_Tcos
00000006 l       *ABS*	00000000 B4_Tacc
00000001 l       *ABS*	00000000 B4_Tcoh
00000001 l       *ABS*	00000000 B4_Tah
00000000 l       *ABS*	00000000 B4_Tacp
00000000 l       *ABS*	00000000 B4_PMC
00000001 l       *ABS*	00000000 B5_Tacs
00000001 l       *ABS*	00000000 B5_Tcos
00000006 l       *ABS*	00000000 B5_Tacc
00000001 l       *ABS*	00000000 B5_Tcoh
00000001 l       *ABS*	00000000 B5_Tah
00000000 l       *ABS*	00000000 B5_Tacp
00000000 l       *ABS*	00000000 B5_PMC
00000003 l       *ABS*	00000000 B6_MT
00000001 l       *ABS*	00000000 B6_Trcd
00000001 l       *ABS*	00000000 B6_SCAN
00000003 l       *ABS*	00000000 B7_MT
00000001 l       *ABS*	00000000 B7_Trcd
00000001 l       *ABS*	00000000 B7_SCAN
00000001 l       *ABS*	00000000 REFEN
00000000 l       *ABS*	00000000 TREFMD
00000001 l       *ABS*	00000000 Trp
00000001 l       *ABS*	00000000 Tsrc
00000002 l       *ABS*	00000000 Tchr
000004f4 l       *ABS*	00000000 REFCNT
000000c0 l       *ABS*	00000000 NO_IRQ_FIQ
00000013 l       *ABS*	00000000 SVC_MODE
00000012 l       *ABS*	00000000 IRQ_MODE
30000414 l       .text	00000000 _Int_Nested
00000000 l    df *ABS*	00000000 main.c
3000aa5c l       .bss	00000001 work_task_suspended.2
3000aa60 l       .bss	00000004 led1_state.1
3000aa64 l       .bss	00000004 shift.0
00000000 l    df *ABS*	00000000 os_cpu_init.c
00000000 l    df *ABS*	00000000 os_bsp.c
00000000 l    df *ABS*	00000000 os_timer.c
00000000 l    df *ABS*	00000000 os_uart.c
300013ec l     F .text	000001f4 int_to_str
300015e0 l     F .text	0000010c hex_to_str
00000000 l    df *ABS*	00000000 os.c
00000000 l    df *ABS*	00000000 os_core.c
30001ab8 l     F .text	000000c8 OS_InitMisc
30001b80 l     F .text	000000b0 OS_InitRdyList
30001c30 l     F .text	0000006c OS_InitEventList
30001c9c l     F .text	00000034 OS_InitTaskIdle
3000276c l     F .text	000000e0 OS_InitTCBList
30002738 l     F .text	00000034 OS_InitTaskStat
00000000 l    df *ABS*	00000000 os_flag.c
30003ab4 l     F .text	000000ec OS_FlagTaskRdy
30003ba0 l     F .text	000001b4 OS_FlagBlock
00000000 l    df *ABS*	00000000 os_mbox.c
00000000 l    df *ABS*	00000000 os_mem.c
00000000 l    df *ABS*	00000000 os_mutex.c
00000000 l    df *ABS*	00000000 os_q.c
00000000 l    df *ABS*	00000000 os_sem.c
00000000 l    df *ABS*	00000000 os_task.c
00000000 l    df *ABS*	00000000 os_time.c
00000000 l    df *ABS*	00000000 os_lib.c
00000000 l    df *ABS*	00000000 _udivsi3.o
30007a98 l       .text	00000000 .udivsi3_skip_div0_test
00000000 l    df *ABS*	00000000 _divsi3.o
30007bb4 l       .text	00000000 .divsi3_skip_div0_test
00000000 l    df *ABS*	00000000 _dvmd_tls.o
30000970 g     F .text	0000017c Task_Display
30001170 g     F .text	00000114 InitTimer4
3000a79c g     O .bss	00000004 SemBeep
3000485c g     F .text	0000007c OS_MemInit
300078f8 g     F .text	00000040 OSTimeSet
30000d78 g     F .text	00000020 OSTaskCreateHook
30001d10 g     F .text	00000058 OSIntEnter
30008f9c g     O .bss	00000800 WorkStk
30000df8 g     F .text	00000018 OSTaskStatHook
3000aa6e g     O .bss	00000001 OSLockNesting
3000aa7c g     O .bss	00000001 OSRunning
3000a7a8 g     O .bss	00000028 QMsgTbl
30000e28 g     F .text	00000018 OSInitHookBegin
300016ec g     F .text	000003cc Uart_Printf
3000aa84 g     O .bss	00000004 OSIdleCtr
30002abc g     F .text	00000228 OS_TCBInit
3000136c g     F .text	00000080 Uart_SendByte
3000aa70 g     O .bss	00000001 OSPrioHighRdy
30000d98 g     F .text	00000048 OSTaskDelHook
30007e94 g       .data	00000000 _etext
3000032c g       .text	00000000 OSStartHighRdy
30006c00 g     F .text	00000030 OSTaskCreateExt
30002ce4 g     F .text	000002c0 OSFlagAccept
30005a24 g     F .text	00000098 OSQFlush
30005588 g     F .text	000000e8 OSQAccept
30006ab4 g     F .text	0000014c OSTaskCreate
300066c4 g     F .text	000003f0 OSTaskChangePrio
30006c30 g     F .text	000003b4 OSTaskDel
300048d8 g     F .text	00000128 OSMutexAccept
3000b5ac g     O .bss	0000000c OSFlagTbl
3000799c g     F .text	000000fc memcpy
300010fc g     F .text	00000038 Key_Init
30004d74 g     F .text	000003a8 OSMutexPend
30001d68 g     F .text	0000015c OSIntExit
3000aa6f g     O .bss	00000001 OSPrioCur
30007a98 g     F .text	000000f4 .hidden __udivsi3
3000a7d0 g     O .bss	00000004 UartMutex
30000350 g       .text	00000000 OSCtxSw
3000b3a0 g     O .bss	00000004 OSTCBList
3000b5bc g     O .bss	00000014 OSMemTbl
30009f9c g     O .bss	00000800 MonitorStk
30000ff0 g     F .text	0000004c LED_Init
30004b58 g     F .text	0000021c OSMutexDel
3000ab94 g     O .bss	00000800 OSTaskStatStk
30003d54 g     F .text	000000b4 OS_FlagUnlink
30005ccc g     F .text	00000140 OSQPost
300008ac g     F .text	000000c4 Task_Work
3000284c g     F .text	0000010c OS_Sched
30004618 g     F .text	000000c0 OSMemGet
300043d4 g     F .text	000000a0 OSMboxQuery
3000aa80 g     O .bss	00000004 OSCtxSwCtr
3000a7a4 g     O .bss	00000004 DataQueue
30000e10 g     F .text	00000018 OSTimeTickHook
3000a7a0 g     O .bss	00000004 MboxLed
300063d4 g     F .text	00000178 OSSemPend
30007e94 g     O .data	00000008 OSMapTbl
3000879c g     O .bss	00000800 InputStk
30000e58 g     F .text	00000020 OSTCBInitHook
300042cc g     F .text	000000d8 OSMboxPost
30000aec g     F .text	000000e0 Task_Monitor
30003a68 g     F .text	0000004c OS_FlagInit
300060b0 g     F .text	0000008c OSSemAccept
300046d8 g     F .text	000000b8 OSMemPut
30004474 g     F .text	000001a4 OSMemCreate
3000aa8c g     O .bss	00000004 OSIdleCtrMax
3000039c g       .text	00000000 OSIntCtxSw
30007f9c g     O .bss	00000800 StartStk
3000b398 g     O .bss	00000004 OSTCBFreeList
30007bac g     F .text	00000000 .hidden __aeabi_idiv
300003cc g       .text	00000000 OSTickISR
3000299c g     F .text	00000120 OS_TaskStat
30000bcc g     F .text	000001ac OSTaskStkInit
300022b4 g     F .text	000001d0 OS_EventTaskRdy
3000aa91 g     O .bss	00000001 OSCPUUsage
30000000 g       .text	00000000 _start
30005abc g     F .text	00000210 OSQPend
3000a7d4 g     O .bss	00000004 SysModeFlag
300074bc g     F .text	0000011c OSTimeDly
3000a7d8 g     O .bss	00000004 MemPartition
3000aa7d g     O .bss	00000001 OSTaskCtr
300075d8 g     F .text	000001b8 OSTimeDlyHMSM
3000654c g     F .text	000000d0 OSSemPost
30001f34 g     F .text	000000ac OSSchedUnlock
30007f9c g       .bss	00000000 _bss_start_
30000000 g       .text	00000000 my_entry
3000b5b8 g     O .bss	00000004 OSMemFreeList
300020c4 g     F .text	00000080 OSStatInit
300039d4 g     F .text	00000094 OSFlagQuery
3000229c g     F .text	00000018 OS_Dummy
3000b5d4 g     O .bss	00000018 OSQTbl
30007cf4  w    F .text	00000004 .hidden __aeabi_ldiv0
3000b39c g     O .bss	00000004 OSTCBHighRdy
3000b5d0 g     O .bss	00000004 OSQFreeList
3000b5ec g       .bss	00000000 _bss_end_
3000aa71 g     O .bss	00000001 OSRdyGrp
30000324 g       .text	00000000 OS_CPU_SR_Restore
30007938 g     F .text	00000064 memset
30000458 g     F .text	00000044 main
30007e9c g     O .data	00000100 OSUnMapTbl
30000624 g     F .text	00000288 Task_Input
30007a98 g     F .text	00000000 .hidden __aeabi_uidiv
30003704 g     F .text	000002d0 OSFlagPost
30002484 g     F .text	00000164 OS_EventTaskWait
30006fe4 g     F .text	000000e4 OSTaskDelReq
30004a00 g     F .text	00000158 OSMutexCreate
30001fe0 g     F .text	000000e4 OSStart
300070c8 g     F .text	00000144 OSTaskResume
30004790 g     F .text	000000cc OSMemQuery
3000049c g     F .text	00000188 Task_Start
30005e0c g     F .text	00000148 OSQPostFront
30007bac g     F .text	00000128 .hidden __divsi3
3000aa74 g     O .bss	00000008 OSRdyTbl
30005670 g     F .text	00000188 OSQCreate
30005f54 g     F .text	00000030 OSQPostOpt
30002144 g     F .text	00000158 OSTimeTick
3000613c g     F .text	000000c0 OSSemCreate
3000979c g     O .bss	00000800 DisplayStk
30005488 g     F .text	00000100 OSMutexQuery
3000661c g     F .text	000000a8 OSSemQuery
300057f8 g     F .text	0000022c OSQDel
30001284 g     F .text	000000e8 Uart_Init
30001ec4 g     F .text	00000070 OSSchedLock
30000e90 g     F .text	0000005c Beep_Ctrl
30002fa4 g     F .text	000000d8 OSFlagCreate
3000307c g     F .text	000001ec OSFlagDel
3000b590 g     O .bss	00000004 OSEventFreeList
30007e94 g       .data	00000000 _data
30003268 g     F .text	0000049c OSFlagPend
30000314 g       .text	00000000 OS_CPU_SR_Save
3000aa6d g     O .bss	00000001 OSIntExitY
30000e40 g     F .text	00000018 OSInitHookEnd
30007b8c g     F .text	00000020 .hidden __aeabi_uidivmod
30003e80 g     F .text	000000bc OSMboxCreate
3000aa6c g     O .bss	00000001 OSIntNesting
30007790 g     F .text	00000128 OSTimeDlyResume
30004114 g     F .text	000001b8 OSMboxPend
3000720c g     F .text	0000002c OSTaskStkChk
3000b394 g     O .bss	00000004 OSTCBCur
3000511c g     F .text	0000036c OSMutexPost
30003e08 g     F .text	00000078 OSMboxAccept
30001cd0 g     F .text	00000040 OSInit
3000103c g     F .text	000000c0 Key_Scan
30007408 g     F .text	000000b4 OSTaskQuery
300025e8 g     F .text	0000010c OS_EventTO
30006074 g     F .text	0000003c OS_QInit
30007cf4  w    F .text	00000004 .hidden __aeabi_idiv0
30001134 g     F .text	0000003c BSP_Init
3000aa68 g     O .bss	00000004 OSTime
3000aa94 g     O .bss	00000100 OSTaskIdleStk
300043a4 g     F .text	00000030 OSMboxPostOpt
30000f38 g     F .text	000000b8 LED_Set
300078b8 g     F .text	00000040 OSTimeGet
30000de0 g     F .text	00000018 OSTaskSwHook
3000b594 g     O .bss	00000014 OSEventTbl
3000a7dc g     O .bss	00000280 MemStorage
3000b4a0 g     O .bss	000000f0 OSTCBTbl
300061fc g     F .text	000001d8 OSSemDel
3000b5a8 g     O .bss	00000004 OSFlagFreeList
30003f3c g     F .text	000001d8 OSMboxDel
3000aa90 g     O .bss	00000001 OSStatRdy
3000b3a4 g     O .bss	000000fc OSTCBPrioTbl
30000eec g     F .text	0000004c Beep_Init
30007cd4 g     F .text	00000020 .hidden __aeabi_idivmod
3000aa88 g     O .bss	00000004 OSIdleCtrRun
300026f4 g     F .text	00000044 OS_EventWaitListInit
30000e78 g     F .text	00000018 OSTaskIdleHook
30007238 g     F .text	000001d0 OSTaskSuspend
30002958 g     F .text	00000044 OS_TaskIdle
30005f84 g     F .text	000000f0 OSQQuery



Disassembly of section .text:

30000000 <_start>:
    .code 32                // ARM  16thumbARMV4TTTARMV4
    .align 2                // 42^n

_start:                     // 
my_entry:
    b   reset               // 0x00
30000000:	ea000042 	b	30000110 <reset>
    b   undef               // 0x04
30000004:	ea000005 	b	30000020 <undef>
    b   swi                 // 0x08
30000008:	ea00000c 	b	30000040 <swi>
    b   pabort              // 0x0C
3000000c:	ea000013 	b	30000060 <pabort>
    b   dabort              // 0x10
30000010:	ea00001a 	b	30000080 <dabort>
    b   .                   // 0x14 
30000014:	eafffffe 	b	30000014 <_start+0x14>
    b   OSTickISR           // irq -> OSTickISR,os_cpu_context_switch.S
30000018:	ea0000eb 	b	300003cc <OSTickISR>
    b   fiq                 // 0x1C
3000001c:	ea000033 	b	300000f0 <fiq>

30000020 <undef>:

// ,LEDled

//undef LED1
undef:
    ldr r0, =GPBDAT
30000020:	e59f0254 	ldr	r0, [pc, #596]	@ 3000027c <on_sdram+0x20>
    ldr r1, [r0]
30000024:	e5901000 	ldr	r1, [r0]
    ldr r2, =(0x0f<<5)
30000028:	e3a02e1e 	mov	r2, #480	@ 0x1e0
    orr r1, r1, r2
3000002c:	e1811002 	orr	r1, r1, r2
    ldr r2, =(0x01<<5)
30000030:	e3a02020 	mov	r2, #32
    bic r1, r1, r2
30000034:	e1c11002 	bic	r1, r1, r2
    str r1, [r0]
30000038:	e5801000 	str	r1, [r0]
    b   .
3000003c:	eafffffe 	b	3000003c <undef+0x1c>

30000040 <swi>:

//swi LED2
swi:
    ldr r0, =GPBDAT
30000040:	e59f0234 	ldr	r0, [pc, #564]	@ 3000027c <on_sdram+0x20>
    ldr r1, [r0]
30000044:	e5901000 	ldr	r1, [r0]
    ldr r2, =(0x0f<<5)
30000048:	e3a02e1e 	mov	r2, #480	@ 0x1e0
    orr r1, r1, r2
3000004c:	e1811002 	orr	r1, r1, r2
    ldr r2, =(0x02<<5)
30000050:	e3a02040 	mov	r2, #64	@ 0x40
    bic r1, r1, r2
30000054:	e1c11002 	bic	r1, r1, r2
    str r1, [r0]
30000058:	e5801000 	str	r1, [r0]
    b   .
3000005c:	eafffffe 	b	3000005c <swi+0x1c>

30000060 <pabort>:

//pabort LED1 2
pabort:
    ldr r0, =GPBDAT
30000060:	e59f0214 	ldr	r0, [pc, #532]	@ 3000027c <on_sdram+0x20>
    ldr r1, [r0]
30000064:	e5901000 	ldr	r1, [r0]
    ldr r2, =(0x0f<<5)
30000068:	e3a02e1e 	mov	r2, #480	@ 0x1e0
    orr r1, r1, r2
3000006c:	e1811002 	orr	r1, r1, r2
    ldr r2, =(0x03<<5)
30000070:	e3a02060 	mov	r2, #96	@ 0x60
    bic r1, r1, r2
30000074:	e1c11002 	bic	r1, r1, r2
    str r1, [r0]
30000078:	e5801000 	str	r1, [r0]
    b   .
3000007c:	eafffffe 	b	3000007c <pabort+0x1c>

30000080 <dabort>:

//dabort LED 3
dabort:
    ldr r0, =GPBDAT
30000080:	e59f01f4 	ldr	r0, [pc, #500]	@ 3000027c <on_sdram+0x20>
    ldr r1, [r0]
30000084:	e5901000 	ldr	r1, [r0]
    ldr r2, =(0x0f<<5)
30000088:	e3a02e1e 	mov	r2, #480	@ 0x1e0
    orr r1, r1, r2
3000008c:	e1811002 	orr	r1, r1, r2
    ldr r2, =(0x04<<5)
30000090:	e3a02080 	mov	r2, #128	@ 0x80
    bic r1, r1, r2
30000094:	e1c11002 	bic	r1, r1, r2
    str r1, [r0]
30000098:	e5801000 	str	r1, [r0]
    b   .
3000009c:	eafffffe 	b	3000009c <dabort+0x1c>

300000a0 <irq>:

//irq LED 1 3
irq:
    sub lr, lr, #4
300000a0:	e24ee004 	sub	lr, lr, #4
    stmfd sp!, {r0-r12, lr}
300000a4:	e92d5fff 	push	{r0, r1, r2, r3, r4, r5, r6, r7, r8, r9, sl, fp, ip, lr}
    mrs r0, spsr
300000a8:	e14f0000 	mrs	r0, SPSR
    stmfd sp!, {r0}
300000ac:	e92d0001 	stmfd	sp!, {r0}

    // LED  ()
    ldr r0, =GPBDAT
300000b0:	e59f01c4 	ldr	r0, [pc, #452]	@ 3000027c <on_sdram+0x20>
    ldr r1, [r0]
300000b4:	e5901000 	ldr	r1, [r0]
    ldr r2, =(0x05<<5)
300000b8:	e3a020a0 	mov	r2, #160	@ 0xa0
    bic r1, r1, r2
300000bc:	e1c11002 	bic	r1, r1, r2
    str r1, [r0]
300000c0:	e5801000 	str	r1, [r0]

    ldr r0, =INTOFFSET
300000c4:	e59f01b4 	ldr	r0, [pc, #436]	@ 30000280 <on_sdram+0x24>
    ldr r0, [r0]
300000c8:	e5900000 	ldr	r0, [r0]
    ldr r1, =HandlerEINT0   // 
300000cc:	e59f11b0 	ldr	r1, [pc, #432]	@ 30000284 <on_sdram+0x28>
    add r1, r1, r0, lsl #2
300000d0:	e0811100 	add	r1, r1, r0, lsl #2
    ldr r1, [r1]
300000d4:	e5911000 	ldr	r1, [r1]
    mov lr, pc
300000d8:	e1a0e00f 	mov	lr, pc
    mov pc, r1
300000dc:	e1a0f001 	mov	pc, r1

    ldmfd sp!, {r0}
300000e0:	e8bd0001 	ldmfd	sp!, {r0}
    msr spsr_cxsf, r0
300000e4:	e16ff000 	msr	SPSR_fsxc, r0
    ldmfd sp!, {r0-r12, lr}
300000e8:	e8bd5fff 	pop	{r0, r1, r2, r3, r4, r5, r6, r7, r8, r9, sl, fp, ip, lr}
    movs pc, lr
300000ec:	e1b0f00e 	movs	pc, lr

300000f0 <fiq>:

//fiq LED2 3
fiq:
    ldr r0, =GPBDAT
300000f0:	e59f0184 	ldr	r0, [pc, #388]	@ 3000027c <on_sdram+0x20>
    ldr r1, [r0]
300000f4:	e5901000 	ldr	r1, [r0]
    ldr r2, =(0x0f<<5)
300000f8:	e3a02e1e 	mov	r2, #480	@ 0x1e0
    orr r1, r1, r2
300000fc:	e1811002 	orr	r1, r1, r2
    ldr r2, =(0x06<<5)
30000100:	e3a020c0 	mov	r2, #192	@ 0xc0
    bic r1, r1, r2
30000104:	e1c11002 	bic	r1, r1, r2
    str r1, [r0]
30000108:	e5801000 	str	r1, [r0]
    b   .
3000010c:	eafffffe 	b	3000010c <fiq+0x1c>

30000110 <reset>:

//  (Reset Handler)

reset:
// 1. 
    ldr r0, =WTCON
30000110:	e3a00453 	mov	r0, #1392508928	@ 0x53000000
    mov r1, #0x0
30000114:	e3a01000 	mov	r1, #0
    str r1, [r0]
30000118:	e5801000 	str	r1, [r0]

// 2. 
    ldr r0, =INTMSK
3000011c:	e59f0164 	ldr	r0, [pc, #356]	@ 30000288 <on_sdram+0x2c>
    ldr r1, =0xffffffff
30000120:	e3e01000 	mvn	r1, #0
    str r1, [r0]
30000124:	e5801000 	str	r1, [r0]

    ldr r0, =INTSUBMSK
30000128:	e59f015c 	ldr	r0, [pc, #348]	@ 3000028c <on_sdram+0x30>
    ldr r1, =0x7fff
3000012c:	e59f115c 	ldr	r1, [pc, #348]	@ 30000290 <on_sdram+0x34>
    str r1, [r0]
30000130:	e5801000 	str	r1, [r0]
    .equ M_MDIV, 127
    .equ M_PDIV, 2
    .equ M_SDIV, 1
    .equ CLKDIVN_VAL, 5 //

    ldr r0, =LOCKTIME
30000134:	e3a00313 	mov	r0, #1275068416	@ 0x4c000000
    ldr r1, =0xffffffff
30000138:	e3e01000 	mvn	r1, #0
    str r1, [r0]
3000013c:	e5801000 	str	r1, [r0]

    // 3.1  CLKDIVN
    //  MPLLCON 
    ldr r0, =CLKDIVN
30000140:	e59f014c 	ldr	r0, [pc, #332]	@ 30000294 <on_sdram+0x38>
    ldr r1, =CLKDIVN_VAL
30000144:	e3a01005 	mov	r1, #5
    str r1, [r0]
30000148:	e5801000 	str	r1, [r0]

    // 3.2  (Async Bus Mode)
    //  HDIVN != 0 
    .if CLKDIVN_VAL > 1
        mrc p15,0,r0,c1,c0,0
3000014c:	ee110f10 	mrc	15, 0, r0, cr1, cr0, {0}
        orr r0,r0,#0xc0000000
30000150:	e3800103 	orr	r0, r0, #-1073741824	@ 0xc0000000
        mcr p15,0,r0,c1,c0,0
30000154:	ee010f10 	mcr	15, 0, r0, cr1, cr0, {0}
        bic r0,r0,#0xc0000000
        mcr p15,0,r0,c1,c0,0
    .endif

    // 3.3  UPLLCON
    ldr r0, =UPLLCON
30000158:	e59f0138 	ldr	r0, [pc, #312]	@ 30000298 <on_sdram+0x3c>
    ldr r1, =((U_MDIV<<12)+(U_PDIV<<4)+U_SDIV)
3000015c:	e59f1138 	ldr	r1, [pc, #312]	@ 3000029c <on_sdram+0x40>
    str r1, [r0]
30000160:	e5801000 	str	r1, [r0]

    // 7nop
    nop
30000164:	e1a00000 	nop			@ (mov r0, r0)
    nop
30000168:	e1a00000 	nop			@ (mov r0, r0)
    nop
3000016c:	e1a00000 	nop			@ (mov r0, r0)
    nop
30000170:	e1a00000 	nop			@ (mov r0, r0)
    nop
30000174:	e1a00000 	nop			@ (mov r0, r0)
    nop
30000178:	e1a00000 	nop			@ (mov r0, r0)
    nop
3000017c:	e1a00000 	nop			@ (mov r0, r0)

    // 3.4  MPLLCON
    ldr r0, =MPLLCON
30000180:	e59f0118 	ldr	r0, [pc, #280]	@ 300002a0 <on_sdram+0x44>
    ldr r1, =((M_MDIV<<12)+(M_PDIV<<4)+M_SDIV)
30000184:	e59f1118 	ldr	r1, [pc, #280]	@ 300002a4 <on_sdram+0x48>
    str r1, [r0]
30000188:	e5801000 	str	r1, [r0]

// 4. 
    ldr r0, =SMRDATA
3000018c:	e59f0114 	ldr	r0, [pc, #276]	@ 300002a8 <on_sdram+0x4c>
    ldr r1, =_start
30000190:	e59f1114 	ldr	r1, [pc, #276]	@ 300002ac <on_sdram+0x50>
    sub r0, r0, r1          // r0 = SMRDATA  _start 
30000194:	e0400001 	sub	r0, r0, r1
    
    mov r2, pc              //  PC
30000198:	e1a0200f 	mov	r2, pc
    ldr r3, =0x30000000     // 
3000019c:	e3a03203 	mov	r3, #805306368	@ 0x30000000
    cmp r2, r3
300001a0:	e1520003 	cmp	r2, r3
    blo 1f                  //  PC < 0x30000000 0x0 
300001a4:	3a000000 	bcc	300001ac <reset+0x9c>
    add r0, r0, r3          //  PC >= 0x30000000 SDRAM 
300001a8:	e0800003 	add	r0, r0, r3
1:
    ldr r1, =BWSCON
300001ac:	e3a01312 	mov	r1, #1207959552	@ 0x48000000
    add r2, r0, #52         // SMRDATA  13*4 = 52 
300001b0:	e2802034 	add	r2, r0, #52	@ 0x34

0:                          // 
    ldr r3, [r0], #4
300001b4:	e4903004 	ldr	r3, [r0], #4
    str r3, [r1], #4
300001b8:	e4813004 	str	r3, [r1], #4
    cmp r2, r0
300001bc:	e1520000 	cmp	r2, r0
    bne 0b                  // backward 0
300001c0:	1afffffb 	bne	300001b4 <reset+0xa4>
    .equ AbortStack, (STACK_BASE_ADDRESS-0x2000)
    .equ IRQStack,   (STACK_BASE_ADDRESS-0x1000)
    .equ FIQStack,   (STACK_BASE_ADDRESS-0x0)

    //5.1 undef
    mrs r0, cpsr
300001c4:	e10f0000 	mrs	r0, CPSR
    bic r0, r0, #MODEMASK
300001c8:	e3c0001f 	bic	r0, r0, #31
    orr r0, r0, #UNDEFMODE
300001cc:	e380001b 	orr	r0, r0, #27
    msr cpsr_c, r0
300001d0:	e121f000 	msr	CPSR_c, r0
    ldr sp, =UndefStack
300001d4:	e59fd0d4 	ldr	sp, [pc, #212]	@ 300002b0 <on_sdram+0x54>

    //5.2 Abort
    mrs r0, cpsr
300001d8:	e10f0000 	mrs	r0, CPSR
    bic r0, r0, #MODEMASK
300001dc:	e3c0001f 	bic	r0, r0, #31
    orr r0, r0, #ABORTMODE
300001e0:	e3800017 	orr	r0, r0, #23
    msr cpsr_c, r0
300001e4:	e121f000 	msr	CPSR_c, r0
    ldr sp, =AbortStack
300001e8:	e59fd0c4 	ldr	sp, [pc, #196]	@ 300002b4 <on_sdram+0x58>

    //5.3 irq
    mrs r0, cpsr
300001ec:	e10f0000 	mrs	r0, CPSR
    bic r0, r0, #MODEMASK
300001f0:	e3c0001f 	bic	r0, r0, #31
    orr r0, r0, #IRQMODE
300001f4:	e3800012 	orr	r0, r0, #18
    msr cpsr_c, r0
300001f8:	e121f000 	msr	CPSR_c, r0
    ldr sp, =IRQStack
300001fc:	e59fd0b4 	ldr	sp, [pc, #180]	@ 300002b8 <on_sdram+0x5c>

    //5.4 fiq
    mrs r0, cpsr
30000200:	e10f0000 	mrs	r0, CPSR
    bic r0, r0, #MODEMASK
30000204:	e3c0001f 	bic	r0, r0, #31
    orr r0, r0, #FIQMODE
30000208:	e3800011 	orr	r0, r0, #17
    msr cpsr_c, r0
3000020c:	e121f000 	msr	CPSR_c, r0
    ldr sp, =FIQStack
30000210:	e59fd0a4 	ldr	sp, [pc, #164]	@ 300002bc <on_sdram+0x60>
    
    //5.5 svc
    mrs r0, cpsr
30000214:	e10f0000 	mrs	r0, CPSR
    bic r0, r0, #MODEMASK
30000218:	e3c0001f 	bic	r0, r0, #31
    orr r0, r0, #SVCMODE
3000021c:	e3800013 	orr	r0, r0, #19
    msr cpsr_c, r0
30000220:	e121f000 	msr	CPSR_c, r0
    ldr sp, =SVCStack
30000224:	e59fd094 	ldr	sp, [pc, #148]	@ 300002c0 <on_sdram+0x64>
//  NAND  NOR 0x00000000 
// (NANDSRAMNORNOR Flash)
// 0x30000000 

    //  SDRAM  (>=0x30000000) 
    mov r0, pc
30000228:	e1a0000f 	mov	r0, pc
    ldr r1, =0x30000000
3000022c:	e3a01203 	mov	r1, #805306368	@ 0x30000000
    cmp r0, r1
30000230:	e1500001 	cmp	r0, r1
    bhs on_sdram            //  PC >= 0x30000000 on_sdram
30000234:	2a000008 	bcs	3000025c <on_sdram>

    mov r0, #0                  //  0x00000000
30000238:	e3a00000 	mov	r0, #0
    ldr r1, =_start             //  0x30000000 (linker.ld)
3000023c:	e59f1068 	ldr	r1, [pc, #104]	@ 300002ac <on_sdram+0x50>
    ldr r2, =_bss_start_      //  (BSS)
30000240:	e59f207c 	ldr	r2, [pc, #124]	@ 300002c4 <on_sdram+0x68>
    
    sub r2, r2, r1              //  (r2 = _bss_start_ - _start)
30000244:	e0422001 	sub	r2, r2, r1

30000248 <copy_loop>:
    
copy_loop:
    ldr r3, [r0], #4
30000248:	e4903004 	ldr	r3, [r0], #4
    str r3, [r1], #4
3000024c:	e4813004 	str	r3, [r1], #4
    subs r2, r2, #4
30000250:	e2522004 	subs	r2, r2, #4
    bgt copy_loop               // 
30000254:	cafffffb 	bgt	30000248 <copy_loop>

    //  SDRAM 
    ldr pc, =on_sdram
30000258:	e59ff068 	ldr	pc, [pc, #104]	@ 300002c8 <on_sdram+0x6c>

3000025c <on_sdram>:
on_sdram:

// 7.  BSS
    mov r0, #0
3000025c:	e3a00000 	mov	r0, #0
    ldr r2, BaseOfZero
30000260:	e59f20a4 	ldr	r2, [pc, #164]	@ 3000030c <BaseOfZero>
    ldr r3, EndOfBSS
30000264:	e59f30a4 	ldr	r3, [pc, #164]	@ 30000310 <EndOfBSS>
0:
    cmp r2, r3
30000268:	e1520003 	cmp	r2, r3
    strcc r0, [r2], #4
3000026c:	34820004 	strcc	r0, [r2], #4
    bcc 0b
30000270:	3afffffc 	bcc	30000268 <on_sdram+0xc>

// 8. main
    bl main
30000274:	eb000077 	bl	30000458 <main>
    b .
30000278:	eafffffe 	b	30000278 <on_sdram+0x1c>
    ldr r0, =GPBDAT
3000027c:	56000014 	.word	0x56000014
    ldr r0, =INTOFFSET
30000280:	4a000014 	.word	0x4a000014
    ldr r1, =HandlerEINT0   // 
30000284:	33ffff20 	.word	0x33ffff20
    ldr r0, =INTMSK
30000288:	4a000008 	.word	0x4a000008
    ldr r0, =INTSUBMSK
3000028c:	4a00001c 	.word	0x4a00001c
    ldr r1, =0x7fff
30000290:	00007fff 	.word	0x00007fff
    ldr r0, =CLKDIVN
30000294:	4c000014 	.word	0x4c000014
    ldr r0, =UPLLCON
30000298:	4c000008 	.word	0x4c000008
    ldr r1, =((U_MDIV<<12)+(U_PDIV<<4)+U_SDIV)
3000029c:	00038022 	.word	0x00038022
    ldr r0, =MPLLCON
300002a0:	4c000004 	.word	0x4c000004
    ldr r1, =((M_MDIV<<12)+(M_PDIV<<4)+M_SDIV)
300002a4:	0007f021 	.word	0x0007f021
    ldr r0, =SMRDATA
300002a8:	300002cc 	.word	0x300002cc
    ldr r1, =_start
300002ac:	30000000 	.word	0x30000000
    ldr sp, =UndefStack
300002b0:	33ff5c00 	.word	0x33ff5c00
    ldr sp, =AbortStack
300002b4:	33ff6000 	.word	0x33ff6000
    ldr sp, =IRQStack
300002b8:	33ff7000 	.word	0x33ff7000
    ldr sp, =FIQStack
300002bc:	33ff8000 	.word	0x33ff8000
    ldr sp, =SVCStack
300002c0:	33ff5800 	.word	0x33ff5800
    ldr r2, =_bss_start_      //  (BSS)
300002c4:	30007f9c 	.word	0x30007f9c
    ldr pc, =on_sdram
300002c8:	3000025c 	.word	0x3000025c

300002cc <SMRDATA>:
300002cc:	22121110 	.word	0x22121110
300002d0:	00007ff4 	.word	0x00007ff4
300002d4:	00002e50 	.word	0x00002e50
300002d8:	00002e50 	.word	0x00002e50
300002dc:	00002e50 	.word	0x00002e50
300002e0:	00002e50 	.word	0x00002e50
300002e4:	00002e50 	.word	0x00002e50
300002e8:	00018005 	.word	0x00018005
300002ec:	00018005 	.word	0x00018005
300002f0:	009604f4 	.word	0x009604f4
300002f4:	00000032 	.word	0x00000032
300002f8:	00000030 	.word	0x00000030
300002fc:	00000030 	.word	0x00000030

30000300 <BaseOfROM>:
30000300:	30000000 	.word	0x30000000

30000304 <TopOfROM>:
30000304:	30007e94 	.word	0x30007e94

30000308 <BaseOfBSS>:
30000308:	30007e94 	.word	0x30007e94

3000030c <BaseOfZero>:
3000030c:	30007f9c 	.word	0x30007f9c

30000310 <EndOfBSS>:
30000310:	3000b5ec 	.word	0x3000b5ec

30000314 <OS_CPU_SR_Save>:



// OS_CPU_SR OS_CPU_SR_Save(void);
OS_CPU_SR_Save:
    mrs     r0, cpsr            //  CPSR  R0
30000314:	e10f0000 	mrs	r0, CPSR
    orr     r1, r0, #NO_IRQ_FIQ 
30000318:	e38010c0 	orr	r1, r0, #192	@ 0xc0
    msr     cpsr_c, r1          //  CPSR
3000031c:	e121f001 	msr	CPSR_c, r1
    mov     pc, lr              // 
30000320:	e1a0f00e 	mov	pc, lr

30000324 <OS_CPU_SR_Restore>:

// void OS_CPU_SR_Restore(OS_CPU_SR cpu_sr);
OS_CPU_SR_Restore:
    msr     cpsr_c, r0          //  cpu_sr (R0)  CPSR
30000324:	e121f000 	msr	CPSR_c, r0
    mov     pc, lr              // 
30000328:	e1a0f00e 	mov	pc, lr

3000032c <OSStartHighRdy>:
OSStartHighRdy:
    // 1. 
    // bl OSTaskSwHook

    // 2. OSRunning = true
    ldr     r0, =OSRunning
3000032c:	e59f0108 	ldr	r0, [pc, #264]	@ 3000043c <_Int_Nested+0x28>
    mov     r1, #1
30000330:	e3a01001 	mov	r1, #1
    strb    r1, [r0]
30000334:	e5c01000 	strb	r1, [r0]

    // 3.  TCB 
    ldr     r0, =OSTCBHighRdy
30000338:	e59f0100 	ldr	r0, [pc, #256]	@ 30000440 <_Int_Nested+0x2c>
    ldr     r0, [r0]            // R0 = ptcb
3000033c:	e5900000 	ldr	r0, [r0]
    ldr     sp, [r0]            // SP = ptcb->OSTCBStackPtr
30000340:	e590d000 	ldr	sp, [r0]

    // 4. 
    ldmfd   sp!, {r0}           //  SPSR 
30000344:	e8bd0001 	ldmfd	sp!, {r0}
    msr     cpsr_c, r0          //  CPSR 
30000348:	e121f000 	msr	CPSR_c, r0
    
    ldmfd   sp!, {r0-r12, lr, pc} // 
3000034c:	e8bddfff 	pop	{r0, r1, r2, r3, r4, r5, r6, r7, r8, r9, sl, fp, ip, lr, pc}

30000350 <OSCtxSw>:


OSCtxSw:
    // 1. 
    stmfd   sp!, {lr}           //  PC
30000350:	e92d4000 	stmfd	sp!, {lr}
    stmfd   sp!, {lr}           //  LR
30000354:	e92d4000 	stmfd	sp!, {lr}
    stmfd   sp!, {r0-r12}       // 
30000358:	e92d1fff 	push	{r0, r1, r2, r3, r4, r5, r6, r7, r8, r9, sl, fp, ip}
    mrs     r0, cpsr            //  CPSR
3000035c:	e10f0000 	mrs	r0, CPSR
    stmfd   sp!, {r0}           //  CPSR
30000360:	e92d0001 	stmfd	sp!, {r0}

    // 2.  SP  TCB
    ldr     r0, =OSTCBCur       //  OSTCBCur 
30000364:	e59f00d8 	ldr	r0, [pc, #216]	@ 30000444 <_Int_Nested+0x30>
    ldr     r1, [r0]            // R1 = OSTCBCur
30000368:	e5901000 	ldr	r1, [r0]
    str     sp, [r1]            // OSTCBCur->OSTCBStackPtr = SP
3000036c:	e581d000 	str	sp, [r1]

    // 3. 
    // bl OSTaskSwHook

    // 4.  TCB : OSTCBCur = OSTCBHighRdy
    ldr     r2, =OSTCBHighRdy
30000370:	e59f20c8 	ldr	r2, [pc, #200]	@ 30000440 <_Int_Nested+0x2c>
    ldr     r3, [r2]            // R3 = OSTCBHighRdy
30000374:	e5923000 	ldr	r3, [r2]
    str     r3, [r0]            // OSTCBCur = R3
30000378:	e5803000 	str	r3, [r0]

    // 5. 
    ldr     r0, =OSPrioCur
3000037c:	e59f00c4 	ldr	r0, [pc, #196]	@ 30000448 <_Int_Nested+0x34>
    ldr     r1, =OSPrioHighRdy
30000380:	e59f10c4 	ldr	r1, [pc, #196]	@ 3000044c <_Int_Nested+0x38>
    ldrb    r2, [r1]
30000384:	e5d12000 	ldrb	r2, [r1]
    strb    r2, [r0]
30000388:	e5c02000 	strb	r2, [r0]

    // 6.  SP
    ldr     sp, [r3]            // SP = OSTCBHighRdy->OSTCBStackPtr
3000038c:	e593d000 	ldr	sp, [r3]

    // 7. 
    ldmfd   sp!, {r0}           //  CPSR
30000390:	e8bd0001 	ldmfd	sp!, {r0}
    msr     cpsr_c, r0          // 
30000394:	e121f000 	msr	CPSR_c, r0
    ldmfd   sp!, {r0-r12, lr, pc} // 
30000398:	e8bddfff 	pop	{r0, r1, r2, r3, r4, r5, r6, r7, r8, r9, sl, fp, ip, lr, pc}

3000039c <OSIntCtxSw>:
OSIntCtxSw:
    // 1. 
    // bl OSTaskSwHook

    // 2.  TCB 
    ldr     r0, =OSTCBCur
3000039c:	e59f00a0 	ldr	r0, [pc, #160]	@ 30000444 <_Int_Nested+0x30>
    ldr     r1, =OSTCBHighRdy
300003a0:	e59f1098 	ldr	r1, [pc, #152]	@ 30000440 <_Int_Nested+0x2c>
    ldr     r2, [r1]
300003a4:	e5912000 	ldr	r2, [r1]
    str     r2, [r0]            // OSTCBCur = OSTCBHighRdy
300003a8:	e5802000 	str	r2, [r0]

    // 3. 
    ldr     r0, =OSPrioCur
300003ac:	e59f0094 	ldr	r0, [pc, #148]	@ 30000448 <_Int_Nested+0x34>
    ldr     r1, =OSPrioHighRdy
300003b0:	e59f1094 	ldr	r1, [pc, #148]	@ 3000044c <_Int_Nested+0x38>
    ldrb    r2, [r1]
300003b4:	e5d12000 	ldrb	r2, [r1]
    strb    r2, [r0]
300003b8:	e5c02000 	strb	r2, [r0]

    // 4. 
    ldr     sp, [r2]            // SP = OSTCBHighRdy->OSTCBStackPtr
300003bc:	e592d000 	ldr	sp, [r2]

    // 5. 
    ldmfd   sp!, {r0}           //  CPSR
300003c0:	e8bd0001 	ldmfd	sp!, {r0}
    msr     cpsr_c, r0          
300003c4:	e121f000 	msr	CPSR_c, r0
    ldmfd   sp!, {r0-r12, lr, pc} // 
300003c8:	e8bddfff 	pop	{r0, r1, r2, r3, r4, r5, r6, r7, r8, r9, sl, fp, ip, lr, pc}

300003cc <OSTickISR>:


OSTickISR:
    
    // 1. 
    sub     lr, lr, #4
300003cc:	e24ee004 	sub	lr, lr, #4

    // 2.  IRQ 
    stmfd   sp!, {r0-r3, r12, lr}
300003d0:	e92d500f 	push	{r0, r1, r2, r3, ip, lr}
    
    // 3.  SPSR ( CPSR)
    mrs     r0, spsr
300003d4:	e14f0000 	mrs	r0, SPSR
    
    // 4.  SVC 
    add     sp, sp, #(6*4)      //  IRQ 
300003d8:	e28dd018 	add	sp, sp, #24
    
    // 5.  SVC 
    msr     cpsr_c, #(SVC_MODE | NO_IRQ_FIQ) 
300003dc:	e321f0d3 	msr	CPSR_c, #211	@ 0xd3
    
    // 6. 
    stmfd   sp!, {lr}           //  SVC  LR
300003e0:	e92d4000 	stmfd	sp!, {lr}
    stmfd   sp!, {lr}           // 
300003e4:	e92d4000 	stmfd	sp!, {lr}
    stmfd   sp!, {r0-r12}       // 
300003e8:	e92d1fff 	push	{r0, r1, r2, r3, r4, r5, r6, r7, r8, r9, sl, fp, ip}
    stmfd   sp!, {r0}           //  SPSR
300003ec:	e92d0001 	stmfd	sp!, {r0}

    
    ldr     r0, =OSIntNesting   // OSIntNesting++
300003f0:	e59f0058 	ldr	r0, [pc, #88]	@ 30000450 <_Int_Nested+0x3c>
    ldrb    r1, [r0]
300003f4:	e5d01000 	ldrb	r1, [r0]
    add     r1, r1, #1
300003f8:	e2811001 	add	r1, r1, #1
    strb    r1, [r0]
300003fc:	e5c01000 	strb	r1, [r0]

    cmp     r1, #1              //  > 1
30000400:	e3510001 	cmp	r1, #1
    bne     _Int_Nested
30000404:	1a000002 	bne	30000414 <_Int_Nested>

    //  SP  TCB
    ldr     r0, =OSTCBCur
30000408:	e59f0034 	ldr	r0, [pc, #52]	@ 30000444 <_Int_Nested+0x30>
    ldr     r1, [r0]
3000040c:	e5901000 	ldr	r1, [r0]
    str     sp, [r1]
30000410:	e581d000 	str	sp, [r1]

30000414 <_Int_Nested>:

_Int_Nested:
    //  Timer4 
    ldr     r0, =SRCPND     // rSRCPND
30000414:	e3a0044a 	mov	r0, #1241513984	@ 0x4a000000
    ldr     r1, =(1<<14)
30000418:	e3a01901 	mov	r1, #16384	@ 0x4000
    str     r1, [r0]
3000041c:	e5801000 	str	r1, [r0]
    ldr     r0, =INTPND     // rINTPND
30000420:	e59f002c 	ldr	r0, [pc, #44]	@ 30000454 <_Int_Nested+0x40>
    str     r1, [r0]
30000424:	e5801000 	str	r1, [r0]

    bl      OSTimeTick
30000428:	eb000745 	bl	30002144 <OSTimeTick>
    bl      OSIntExit
3000042c:	eb00064d 	bl	30001d68 <OSIntExit>
    
    ldmfd   sp!, {r0}              //  SPSR
30000430:	e8bd0001 	ldmfd	sp!, {r0}
    msr     spsr_cxsf, r0       
30000434:	e16ff000 	msr	SPSR_fsxc, r0
30000438:	e8fddfff 	ldm	sp!, {r0, r1, r2, r3, r4, r5, r6, r7, r8, r9, sl, fp, ip, lr, pc}^
    ldr     r0, =OSRunning
3000043c:	3000aa7c 	.word	0x3000aa7c
    ldr     r0, =OSTCBHighRdy
30000440:	3000b39c 	.word	0x3000b39c
    ldr     r0, =OSTCBCur       //  OSTCBCur 
30000444:	3000b394 	.word	0x3000b394
    ldr     r0, =OSPrioCur
30000448:	3000aa6f 	.word	0x3000aa6f
    ldr     r1, =OSPrioHighRdy
3000044c:	3000aa70 	.word	0x3000aa70
    ldr     r0, =OSIntNesting   // OSIntNesting++
30000450:	3000aa6c 	.word	0x3000aa6c
    ldr     r0, =INTPND     // rINTPND
30000454:	4a000010 	.word	0x4a000010

30000458 <main>:
*********************************************************************************************************
* 
*********************************************************************************************************
*/
int main(void)
{
30000458:	e92d4800 	push	{fp, lr}
3000045c:	e28db004 	add	fp, sp, #4
    OSInit();      // 
30000460:	eb00061a 	bl	30001cd0 <OSInit>
    BSP_Init();    // 
30000464:	eb000332 	bl	30001134 <BSP_Init>
    OSTaskCreate(Task_Start, (void *)0, &StartStk[TASK_STK_SIZE - 1], 2);
30000468:	e3a03002 	mov	r3, #2
3000046c:	e59f2020 	ldr	r2, [pc, #32]	@ 30000494 <main+0x3c>
30000470:	e3a01000 	mov	r1, #0
30000474:	e59f001c 	ldr	r0, [pc, #28]	@ 30000498 <main+0x40>
30000478:	eb00198d 	bl	30006ab4 <OSTaskCreate>
    OSStart();     // 
3000047c:	eb0006d7 	bl	30001fe0 <OSStart>
    return 0;
30000480:	e3a03000 	mov	r3, #0
}
30000484:	e1a00003 	mov	r0, r3
30000488:	e24bd004 	sub	sp, fp, #4
3000048c:	e8bd4800 	pop	{fp, lr}
30000490:	e12fff1e 	bx	lr
30000494:	30008798 	.word	0x30008798
30000498:	3000049c 	.word	0x3000049c

3000049c <Task_Start>:
*********************************************************************************************************
*  (Prio 2)
*********************************************************************************************************
*/
void Task_Start(void *pdata)
{
3000049c:	e92d4800 	push	{fp, lr}
300004a0:	e28db004 	add	fp, sp, #4
300004a4:	e24dd010 	sub	sp, sp, #16
300004a8:	e50b0010 	str	r0, [fp, #-16]
    INT8U err;
    (void)pdata;

    // 1.  OS 
    SemBeep      = OSSemCreate(0);                  // 0
300004ac:	e3a00000 	mov	r0, #0
300004b0:	eb001721 	bl	3000613c <OSSemCreate>
300004b4:	e1a03000 	mov	r3, r0
300004b8:	e59f2120 	ldr	r2, [pc, #288]	@ 300005e0 <Task_Start+0x144>
300004bc:	e5823000 	str	r3, [r2]
    MboxLed      = OSMboxCreate((void *)0);         // 
300004c0:	e3a00000 	mov	r0, #0
300004c4:	eb000e6d 	bl	30003e80 <OSMboxCreate>
300004c8:	e1a03000 	mov	r3, r0
300004cc:	e59f2110 	ldr	r2, [pc, #272]	@ 300005e4 <Task_Start+0x148>
300004d0:	e5823000 	str	r3, [r2]
    DataQueue    = OSQCreate(&QMsgTbl[0], 10);      // 
300004d4:	e3a0100a 	mov	r1, #10
300004d8:	e59f0108 	ldr	r0, [pc, #264]	@ 300005e8 <Task_Start+0x14c>
300004dc:	eb001463 	bl	30005670 <OSQCreate>
300004e0:	e1a03000 	mov	r3, r0
300004e4:	e59f2100 	ldr	r2, [pc, #256]	@ 300005ec <Task_Start+0x150>
300004e8:	e5823000 	str	r3, [r2]
    UartMutex    = OSMutexCreate(1, &err);          //  (PIP=1)
300004ec:	e24b3005 	sub	r3, fp, #5
300004f0:	e1a01003 	mov	r1, r3
300004f4:	e3a00001 	mov	r0, #1
300004f8:	eb001140 	bl	30004a00 <OSMutexCreate>
300004fc:	e1a03000 	mov	r3, r0
30000500:	e59f20e8 	ldr	r2, [pc, #232]	@ 300005f0 <Task_Start+0x154>
30000504:	e5823000 	str	r3, [r2]
    SysModeFlag  = OSFlagCreate(MODE_NORMAL, &err); // 
30000508:	e24b3005 	sub	r3, fp, #5
3000050c:	e1a01003 	mov	r1, r3
30000510:	e3a00001 	mov	r0, #1
30000514:	eb000aa2 	bl	30002fa4 <OSFlagCreate>
30000518:	e1a03000 	mov	r3, r0
3000051c:	e59f20d0 	ldr	r2, [pc, #208]	@ 300005f4 <Task_Start+0x158>
30000520:	e5823000 	str	r3, [r2]
    MemPartition = OSMemCreate(&MemStorage[0][0], 10, 64, &err); // 
30000524:	e24b3005 	sub	r3, fp, #5
30000528:	e3a02040 	mov	r2, #64	@ 0x40
3000052c:	e3a0100a 	mov	r1, #10
30000530:	e59f00c0 	ldr	r0, [pc, #192]	@ 300005f8 <Task_Start+0x15c>
30000534:	eb000fce 	bl	30004474 <OSMemCreate>
30000538:	e1a03000 	mov	r3, r0
3000053c:	e59f20b8 	ldr	r2, [pc, #184]	@ 300005fc <Task_Start+0x160>
30000540:	e5823000 	str	r3, [r2]

    // 2. 
    OSStatInit();
30000544:	eb0006de 	bl	300020c4 <OSStatInit>

    // 3.  Log
    OSMutexPend(UartMutex, 0, &err);
30000548:	e59f30a0 	ldr	r3, [pc, #160]	@ 300005f0 <Task_Start+0x154>
3000054c:	e5933000 	ldr	r3, [r3]
30000550:	e24b2005 	sub	r2, fp, #5
30000554:	e3a01000 	mov	r1, #0
30000558:	e1a00003 	mov	r0, r3
3000055c:	eb001204 	bl	30004d74 <OSMutexPend>
    Uart_Printf("\n uC/OS-II Started on Mini2440. \n");
30000560:	e59f0098 	ldr	r0, [pc, #152]	@ 30000600 <Task_Start+0x164>
30000564:	eb000460 	bl	300016ec <Uart_Printf>
    OSMutexPost(UartMutex);
30000568:	e59f3080 	ldr	r3, [pc, #128]	@ 300005f0 <Task_Start+0x154>
3000056c:	e5933000 	ldr	r3, [r3]
30000570:	e1a00003 	mov	r0, r3
30000574:	eb0012e8 	bl	3000511c <OSMutexPost>

    // 4. 
    OSTaskCreate(Task_Input, (void *)0, &InputStk[TASK_STK_SIZE - 1], 3);
30000578:	e3a03003 	mov	r3, #3
3000057c:	e59f2080 	ldr	r2, [pc, #128]	@ 30000604 <Task_Start+0x168>
30000580:	e3a01000 	mov	r1, #0
30000584:	e59f007c 	ldr	r0, [pc, #124]	@ 30000608 <Task_Start+0x16c>
30000588:	eb001949 	bl	30006ab4 <OSTaskCreate>
    OSTaskCreate(Task_Work, (void *)0, &WorkStk[TASK_STK_SIZE - 1], 4);
3000058c:	e3a03004 	mov	r3, #4
30000590:	e59f2074 	ldr	r2, [pc, #116]	@ 3000060c <Task_Start+0x170>
30000594:	e3a01000 	mov	r1, #0
30000598:	e59f0070 	ldr	r0, [pc, #112]	@ 30000610 <Task_Start+0x174>
3000059c:	eb001944 	bl	30006ab4 <OSTaskCreate>
    OSTaskCreate(Task_Display, (void *)0, &DisplayStk[TASK_STK_SIZE - 1], 5);
300005a0:	e3a03005 	mov	r3, #5
300005a4:	e59f2068 	ldr	r2, [pc, #104]	@ 30000614 <Task_Start+0x178>
300005a8:	e3a01000 	mov	r1, #0
300005ac:	e59f0064 	ldr	r0, [pc, #100]	@ 30000618 <Task_Start+0x17c>
300005b0:	eb00193f 	bl	30006ab4 <OSTaskCreate>
    OSTaskCreate(Task_Monitor, (void *)0, &MonitorStk[TASK_STK_SIZE - 1], 6);
300005b4:	e3a03006 	mov	r3, #6
300005b8:	e59f205c 	ldr	r2, [pc, #92]	@ 3000061c <Task_Start+0x180>
300005bc:	e3a01000 	mov	r1, #0
300005c0:	e59f0058 	ldr	r0, [pc, #88]	@ 30000620 <Task_Start+0x184>
300005c4:	eb00193a 	bl	30006ab4 <OSTaskCreate>

    OSTaskDel(OS_PRIO_SELF);
300005c8:	e3a000ff 	mov	r0, #255	@ 0xff
300005cc:	eb001997 	bl	30006c30 <OSTaskDel>
}
300005d0:	e1a00000 	nop			@ (mov r0, r0)
300005d4:	e24bd004 	sub	sp, fp, #4
300005d8:	e8bd4800 	pop	{fp, lr}
300005dc:	e12fff1e 	bx	lr
300005e0:	3000a79c 	.word	0x3000a79c
300005e4:	3000a7a0 	.word	0x3000a7a0
300005e8:	3000a7a8 	.word	0x3000a7a8
300005ec:	3000a7a4 	.word	0x3000a7a4
300005f0:	3000a7d0 	.word	0x3000a7d0
300005f4:	3000a7d4 	.word	0x3000a7d4
300005f8:	3000a7dc 	.word	0x3000a7dc
300005fc:	3000a7d8 	.word	0x3000a7d8
30000600:	30007cf8 	.word	0x30007cf8
30000604:	30008f98 	.word	0x30008f98
30000608:	30000624 	.word	0x30000624
3000060c:	30009798 	.word	0x30009798
30000610:	300008ac 	.word	0x300008ac
30000614:	30009f98 	.word	0x30009f98
30000618:	30000970 	.word	0x30000970
3000061c:	3000a798 	.word	0x3000a798
30000620:	30000aec 	.word	0x30000aec

30000624 <Task_Input>:
*  (Prio 3)
*  ->  OS 
*********************************************************************************************************
*/
void Task_Input(void *pdata)
{
30000624:	e92d4800 	push	{fp, lr}
30000628:	e28db004 	add	fp, sp, #4
3000062c:	e24dd020 	sub	sp, sp, #32
30000630:	e50b0020 	str	r0, [fp, #-32]	@ 0xffffffe0
    DATA_PKT static_pkt;
    static INT8U work_task_suspended = 0;
    (void)pdata;

    for (;;) {
        key = Key_Scan(); // 
30000634:	eb000280 	bl	3000103c <Key_Scan>
30000638:	e50b0008 	str	r0, [fp, #-8]

        if (key != 0) {
3000063c:	e51b3008 	ldr	r3, [fp, #-8]
30000640:	e3530000 	cmp	r3, #0
30000644:	0a000081 	beq	30000850 <Task_Input+0x22c>
            //  Log
            OSMutexPend(UartMutex, 0, &err);
30000648:	e59f3218 	ldr	r3, [pc, #536]	@ 30000868 <Task_Input+0x244>
3000064c:	e5933000 	ldr	r3, [r3]
30000650:	e24b200d 	sub	r2, fp, #13
30000654:	e3a01000 	mov	r1, #0
30000658:	e1a00003 	mov	r0, r3
3000065c:	eb0011c4 	bl	30004d74 <OSMutexPend>
            Uart_Printf("[KEY] K%d Pressed -> ", key);
30000660:	e51b1008 	ldr	r1, [fp, #-8]
30000664:	e59f0200 	ldr	r0, [pc, #512]	@ 3000086c <Task_Input+0x248>
30000668:	eb00041f 	bl	300016ec <Uart_Printf>
            OSMutexPost(UartMutex);
3000066c:	e59f31f4 	ldr	r3, [pc, #500]	@ 30000868 <Task_Input+0x244>
30000670:	e5933000 	ldr	r3, [r3]
30000674:	e1a00003 	mov	r0, r3
30000678:	eb0012a7 	bl	3000511c <OSMutexPost>

            switch (key) {
3000067c:	e51b3008 	ldr	r3, [fp, #-8]
30000680:	e2433001 	sub	r3, r3, #1
30000684:	e3530005 	cmp	r3, #5
30000688:	979ff103 	ldrls	pc, [pc, r3, lsl #2]
3000068c:	ea000060 	b	30000814 <Task_Input+0x1f0>
30000690:	300006a8 	.word	0x300006a8
30000694:	300006c4 	.word	0x300006c4
30000698:	300006e4 	.word	0x300006e4
3000069c:	3000071c 	.word	0x3000071c
300006a0:	30000788 	.word	0x30000788
300006a4:	300007d8 	.word	0x300007d8
                // K1:  (Sem)
                case 1:
                    Uart_Printf("Signal Beep\n");
300006a8:	e59f01c0 	ldr	r0, [pc, #448]	@ 30000870 <Task_Input+0x24c>
300006ac:	eb00040e 	bl	300016ec <Uart_Printf>
                    OSSemPost(SemBeep); 
300006b0:	e59f31bc 	ldr	r3, [pc, #444]	@ 30000874 <Task_Input+0x250>
300006b4:	e5933000 	ldr	r3, [r3]
300006b8:	e1a00003 	mov	r0, r3
300006bc:	eb0017a2 	bl	3000654c <OSSemPost>
                    break;
300006c0:	ea000053 	b	30000814 <Task_Input+0x1f0>

                // K2:  LED1  (Mbox)
                case 2:
                    Uart_Printf("Send Mbox to LED\n");
300006c4:	e59f01ac 	ldr	r0, [pc, #428]	@ 30000878 <Task_Input+0x254>
300006c8:	eb000407 	bl	300016ec <Uart_Printf>
                    OSMboxPost(MboxLed, (void *)0x01); //  1
300006cc:	e59f31a8 	ldr	r3, [pc, #424]	@ 3000087c <Task_Input+0x258>
300006d0:	e5933000 	ldr	r3, [r3]
300006d4:	e3a01001 	mov	r1, #1
300006d8:	e1a00003 	mov	r0, r3
300006dc:	eb000efa 	bl	300042cc <OSMboxPost>
                    break;
300006e0:	ea00004b 	b	30000814 <Task_Input+0x1f0>

                // K3:  (Queue)
                case 3:
                    Uart_Printf("Send Static Queue\n");
300006e4:	e59f0194 	ldr	r0, [pc, #404]	@ 30000880 <Task_Input+0x25c>
300006e8:	eb0003ff 	bl	300016ec <Uart_Printf>
                    static_pkt.Type = 0;
300006ec:	e3a03000 	mov	r3, #0
300006f0:	e54b3018 	strb	r3, [fp, #-24]	@ 0xffffffe8
                    static_pkt.Value = OSTimeGet(); // 
300006f4:	eb001c6f 	bl	300078b8 <OSTimeGet>
300006f8:	e1a03000 	mov	r3, r0
300006fc:	e50b3014 	str	r3, [fp, #-20]	@ 0xffffffec
                    OSQPost(DataQueue, &static_pkt);
30000700:	e59f317c 	ldr	r3, [pc, #380]	@ 30000884 <Task_Input+0x260>
30000704:	e5933000 	ldr	r3, [r3]
30000708:	e24b2018 	sub	r2, fp, #24
3000070c:	e1a01002 	mov	r1, r2
30000710:	e1a00003 	mov	r0, r3
30000714:	eb00156c 	bl	30005ccc <OSQPost>
                    break;
30000718:	ea00003d 	b	30000814 <Task_Input+0x1f0>

                // K4:  (Mem + Queue)
                case 4:
                    Uart_Printf("Alloc Mem & Send\n");
3000071c:	e59f0164 	ldr	r0, [pc, #356]	@ 30000888 <Task_Input+0x264>
30000720:	eb0003f1 	bl	300016ec <Uart_Printf>
                    // [OS_MEM] 
                    p_mem_pkt = (DATA_PKT *)OSMemGet(MemPartition, &err);
30000724:	e59f3160 	ldr	r3, [pc, #352]	@ 3000088c <Task_Input+0x268>
30000728:	e5933000 	ldr	r3, [r3]
3000072c:	e24b200d 	sub	r2, fp, #13
30000730:	e1a01002 	mov	r1, r2
30000734:	e1a00003 	mov	r0, r3
30000738:	eb000fb6 	bl	30004618 <OSMemGet>
3000073c:	e50b000c 	str	r0, [fp, #-12]
                    if (err == OS_NO_ERR) {
30000740:	e55b300d 	ldrb	r3, [fp, #-13]
30000744:	e3530000 	cmp	r3, #0
30000748:	1a00000b 	bne	3000077c <Task_Input+0x158>
                        p_mem_pkt->Type = 1; // 
3000074c:	e51b300c 	ldr	r3, [fp, #-12]
30000750:	e3a02001 	mov	r2, #1
30000754:	e5c32000 	strb	r2, [r3]
                        p_mem_pkt->Value = 0xDEADBEEF; // 
30000758:	e51b300c 	ldr	r3, [fp, #-12]
3000075c:	e59f212c 	ldr	r2, [pc, #300]	@ 30000890 <Task_Input+0x26c>
30000760:	e5832004 	str	r2, [r3, #4]
                        OSQPost(DataQueue, p_mem_pkt);
30000764:	e59f3118 	ldr	r3, [pc, #280]	@ 30000884 <Task_Input+0x260>
30000768:	e5933000 	ldr	r3, [r3]
3000076c:	e51b100c 	ldr	r1, [fp, #-12]
30000770:	e1a00003 	mov	r0, r3
30000774:	eb001554 	bl	30005ccc <OSQPost>
                    } 
                    else {
                        Uart_Printf("Mem Full!\n");
                    }
                    break;
30000778:	ea000025 	b	30000814 <Task_Input+0x1f0>
                        Uart_Printf("Mem Full!\n");
3000077c:	e59f0110 	ldr	r0, [pc, #272]	@ 30000894 <Task_Input+0x270>
30000780:	eb0003d9 	bl	300016ec <Uart_Printf>
                    break;
30000784:	ea000022 	b	30000814 <Task_Input+0x1f0>

                // K5: / Work  (Task Suspend/Resume)
                case 5:
                    if (work_task_suspended) {
30000788:	e59f3108 	ldr	r3, [pc, #264]	@ 30000898 <Task_Input+0x274>
3000078c:	e5d33000 	ldrb	r3, [r3]
30000790:	e3530000 	cmp	r3, #0
30000794:	0a000007 	beq	300007b8 <Task_Input+0x194>
                        Uart_Printf("Resume Work Task\n");
30000798:	e59f00fc 	ldr	r0, [pc, #252]	@ 3000089c <Task_Input+0x278>
3000079c:	eb0003d2 	bl	300016ec <Uart_Printf>
                        OSTaskResume(4); //  Prio 4
300007a0:	e3a00004 	mov	r0, #4
300007a4:	eb001a47 	bl	300070c8 <OSTaskResume>
                        work_task_suspended = 0;
300007a8:	e59f30e8 	ldr	r3, [pc, #232]	@ 30000898 <Task_Input+0x274>
300007ac:	e3a02000 	mov	r2, #0
300007b0:	e5c32000 	strb	r2, [r3]
                    else {
                        Uart_Printf("Suspend Work Task\n");
                        OSTaskSuspend(4); //  Prio 4
                        work_task_suspended = 1;
                    }
                    break;
300007b4:	ea000016 	b	30000814 <Task_Input+0x1f0>
                        Uart_Printf("Suspend Work Task\n");
300007b8:	e59f00e0 	ldr	r0, [pc, #224]	@ 300008a0 <Task_Input+0x27c>
300007bc:	eb0003ca 	bl	300016ec <Uart_Printf>
                        OSTaskSuspend(4); //  Prio 4
300007c0:	e3a00004 	mov	r0, #4
300007c4:	eb001a9b 	bl	30007238 <OSTaskSuspend>
                        work_task_suspended = 1;
300007c8:	e59f30c8 	ldr	r3, [pc, #200]	@ 30000898 <Task_Input+0x274>
300007cc:	e3a02001 	mov	r2, #1
300007d0:	e5c32000 	strb	r2, [r3]
                    break;
300007d4:	ea00000e 	b	30000814 <Task_Input+0x1f0>

                // K6:  (Flag)
                case 6:
                    OSFlagPost(SysModeFlag, MODE_NORMAL | MODE_TURBO, OS_FLAG_CLR, &err); // 
300007d8:	e59f30c4 	ldr	r3, [pc, #196]	@ 300008a4 <Task_Input+0x280>
300007dc:	e5930000 	ldr	r0, [r3]
300007e0:	e24b300d 	sub	r3, fp, #13
300007e4:	e3a02000 	mov	r2, #0
300007e8:	e3a01003 	mov	r1, #3
300007ec:	eb000bc4 	bl	30003704 <OSFlagPost>
                    OSFlagPost(SysModeFlag, MODE_TURBO, OS_FLAG_SET, &err); //  Turbo
300007f0:	e59f30ac 	ldr	r3, [pc, #172]	@ 300008a4 <Task_Input+0x280>
300007f4:	e5930000 	ldr	r0, [r3]
300007f8:	e24b300d 	sub	r3, fp, #13
300007fc:	e3a02001 	mov	r2, #1
30000800:	e3a01002 	mov	r1, #2
30000804:	eb000bbe 	bl	30003704 <OSFlagPost>
                    Uart_Printf("Set Mode: TURBO\n");
30000808:	e59f0098 	ldr	r0, [pc, #152]	@ 300008a8 <Task_Input+0x284>
3000080c:	eb0003b6 	bl	300016ec <Uart_Printf>
                    break;
30000810:	e1a00000 	nop			@ (mov r0, r0)
            }
            
            OSTimeDlyHMSM(0,0,0,20); // 
30000814:	e3a03014 	mov	r3, #20
30000818:	e3a02000 	mov	r2, #0
3000081c:	e3a01000 	mov	r1, #0
30000820:	e3a00000 	mov	r0, #0
30000824:	eb001b6b 	bl	300075d8 <OSTimeDlyHMSM>
            while(Key_Scan() != 0) {
30000828:	ea000004 	b	30000840 <Task_Input+0x21c>
                OSTimeDlyHMSM(0,0,0,5);
3000082c:	e3a03005 	mov	r3, #5
30000830:	e3a02000 	mov	r2, #0
30000834:	e3a01000 	mov	r1, #0
30000838:	e3a00000 	mov	r0, #0
3000083c:	eb001b65 	bl	300075d8 <OSTimeDlyHMSM>
            while(Key_Scan() != 0) {
30000840:	eb0001fd 	bl	3000103c <Key_Scan>
30000844:	e1a03000 	mov	r3, r0
30000848:	e3530000 	cmp	r3, #0
3000084c:	1afffff6 	bne	3000082c <Task_Input+0x208>
            } // 
        }
        OSTimeDlyHMSM(0,0,0,50); // 50ms 
30000850:	e3a03032 	mov	r3, #50	@ 0x32
30000854:	e3a02000 	mov	r2, #0
30000858:	e3a01000 	mov	r1, #0
3000085c:	e3a00000 	mov	r0, #0
30000860:	eb001b5c 	bl	300075d8 <OSTimeDlyHMSM>
        key = Key_Scan(); // 
30000864:	eaffff72 	b	30000634 <Task_Input+0x10>
30000868:	3000a7d0 	.word	0x3000a7d0
3000086c:	30007d1c 	.word	0x30007d1c
30000870:	30007d34 	.word	0x30007d34
30000874:	3000a79c 	.word	0x3000a79c
30000878:	30007d44 	.word	0x30007d44
3000087c:	3000a7a0 	.word	0x3000a7a0
30000880:	30007d58 	.word	0x30007d58
30000884:	3000a7a4 	.word	0x3000a7a4
30000888:	30007d6c 	.word	0x30007d6c
3000088c:	3000a7d8 	.word	0x3000a7d8
30000890:	deadbeef 	.word	0xdeadbeef
30000894:	30007d80 	.word	0x30007d80
30000898:	3000aa5c 	.word	0x3000aa5c
3000089c:	30007d8c 	.word	0x30007d8c
300008a0:	30007da0 	.word	0x30007da0
300008a4:	3000a7d4 	.word	0x3000a7d4
300008a8:	30007db4 	.word	0x30007db4

300008ac <Task_Work>:
*  (Prio 4)
* 
*********************************************************************************************************
*/
void Task_Work(void *pdata)
{
300008ac:	e92d4800 	push	{fp, lr}
300008b0:	e28db004 	add	fp, sp, #4
300008b4:	e24dd010 	sub	sp, sp, #16
300008b8:	e50b0010 	str	r0, [fp, #-16]
    DATA_PKT *p_pkt;
    (void)pdata;

    for (;;) {
        // 
        p_pkt = (DATA_PKT *)OSQPend(DataQueue, 0, &err);
300008bc:	e59f3098 	ldr	r3, [pc, #152]	@ 3000095c <Task_Work+0xb0>
300008c0:	e5933000 	ldr	r3, [r3]
300008c4:	e24b2009 	sub	r2, fp, #9
300008c8:	e3a01000 	mov	r1, #0
300008cc:	e1a00003 	mov	r0, r3
300008d0:	eb001479 	bl	30005abc <OSQPend>
300008d4:	e50b0008 	str	r0, [fp, #-8]

        if (err == OS_NO_ERR) {
300008d8:	e55b3009 	ldrb	r3, [fp, #-9]
300008dc:	e3530000 	cmp	r3, #0
300008e0:	1afffff5 	bne	300008bc <Task_Work+0x10>
            OSMutexPend(UartMutex, 0, &err);
300008e4:	e59f3074 	ldr	r3, [pc, #116]	@ 30000960 <Task_Work+0xb4>
300008e8:	e5933000 	ldr	r3, [r3]
300008ec:	e24b2009 	sub	r2, fp, #9
300008f0:	e3a01000 	mov	r1, #0
300008f4:	e1a00003 	mov	r0, r3
300008f8:	eb00111d 	bl	30004d74 <OSMutexPend>
            Uart_Printf("[Work] Recv: Type=%d, Val=0x%X\n", p_pkt->Type, p_pkt->Value);
300008fc:	e51b3008 	ldr	r3, [fp, #-8]
30000900:	e5d33000 	ldrb	r3, [r3]
30000904:	e1a01003 	mov	r1, r3
30000908:	e51b3008 	ldr	r3, [fp, #-8]
3000090c:	e5933004 	ldr	r3, [r3, #4]
30000910:	e1a02003 	mov	r2, r3
30000914:	e59f0048 	ldr	r0, [pc, #72]	@ 30000964 <Task_Work+0xb8>
30000918:	eb000373 	bl	300016ec <Uart_Printf>
            OSMutexPost(UartMutex);
3000091c:	e59f303c 	ldr	r3, [pc, #60]	@ 30000960 <Task_Work+0xb4>
30000920:	e5933000 	ldr	r3, [r3]
30000924:	e1a00003 	mov	r0, r3
30000928:	eb0011fb 	bl	3000511c <OSMutexPost>

            // 
            if (p_pkt->Type == 1) {
3000092c:	e51b3008 	ldr	r3, [fp, #-8]
30000930:	e5d33000 	ldrb	r3, [r3]
30000934:	e3530001 	cmp	r3, #1
30000938:	1affffdf 	bne	300008bc <Task_Work+0x10>
                OSMemPut(MemPartition, (void *)p_pkt);
3000093c:	e59f3024 	ldr	r3, [pc, #36]	@ 30000968 <Task_Work+0xbc>
30000940:	e5933000 	ldr	r3, [r3]
30000944:	e51b1008 	ldr	r1, [fp, #-8]
30000948:	e1a00003 	mov	r0, r3
3000094c:	eb000f61 	bl	300046d8 <OSMemPut>
                Uart_Printf("[Work] Mem Freed.\n");
30000950:	e59f0014 	ldr	r0, [pc, #20]	@ 3000096c <Task_Work+0xc0>
30000954:	eb000364 	bl	300016ec <Uart_Printf>
        p_pkt = (DATA_PKT *)OSQPend(DataQueue, 0, &err);
30000958:	eaffffd7 	b	300008bc <Task_Work+0x10>
3000095c:	3000a7a4 	.word	0x3000a7a4
30000960:	3000a7d0 	.word	0x3000a7d0
30000964:	30007dc8 	.word	0x30007dc8
30000968:	3000a7d8 	.word	0x3000a7d8
3000096c:	30007de8 	.word	0x30007de8

30000970 <Task_Display>:
*  (Prio 5)
* LED
*********************************************************************************************************
*/
void Task_Display(void *pdata)
{
30000970:	e92d4800 	push	{fp, lr}
30000974:	e28db004 	add	fp, sp, #4
30000978:	e24dd018 	sub	sp, sp, #24
3000097c:	e50b0018 	str	r0, [fp, #-24]	@ 0xffffffe8
    static int led1_state = 0;
    (void)pdata;

    for (;;) {
        //  1.  ( Accept) 
        if (OSSemAccept(SemBeep) > 0) {
30000980:	e59f314c 	ldr	r3, [pc, #332]	@ 30000ad4 <Task_Display+0x164>
30000984:	e5933000 	ldr	r3, [r3]
30000988:	e1a00003 	mov	r0, r3
3000098c:	eb0015c7 	bl	300060b0 <OSSemAccept>
30000990:	e1a03000 	mov	r3, r0
30000994:	e3530000 	cmp	r3, #0
30000998:	0a000008 	beq	300009c0 <Task_Display+0x50>
            Beep_Ctrl(1);
3000099c:	e3a00001 	mov	r0, #1
300009a0:	eb00013a 	bl	30000e90 <Beep_Ctrl>
            OSTimeDlyHMSM(0,0,0,10); //  100ms
300009a4:	e3a0300a 	mov	r3, #10
300009a8:	e3a02000 	mov	r2, #0
300009ac:	e3a01000 	mov	r1, #0
300009b0:	e3a00000 	mov	r0, #0
300009b4:	eb001b07 	bl	300075d8 <OSTimeDlyHMSM>
            Beep_Ctrl(0);
300009b8:	e3a00000 	mov	r0, #0
300009bc:	eb000133 	bl	30000e90 <Beep_Ctrl>
        }

        //  2.  LED  ( Accept) 
        msg = OSMboxAccept(MboxLed);
300009c0:	e59f3110 	ldr	r3, [pc, #272]	@ 30000ad8 <Task_Display+0x168>
300009c4:	e5933000 	ldr	r3, [r3]
300009c8:	e1a00003 	mov	r0, r3
300009cc:	eb000d0d 	bl	30003e08 <OSMboxAccept>
300009d0:	e50b000c 	str	r0, [fp, #-12]
        if (msg != (void *)0) {
300009d4:	e51b300c 	ldr	r3, [fp, #-12]
300009d8:	e3530000 	cmp	r3, #0
300009dc:	0a000008 	beq	30000a04 <Task_Display+0x94>
            // 
            led1_state = !led1_state;
300009e0:	e59f30f4 	ldr	r3, [pc, #244]	@ 30000adc <Task_Display+0x16c>
300009e4:	e5933000 	ldr	r3, [r3]
300009e8:	e3530000 	cmp	r3, #0
300009ec:	03a03001 	moveq	r3, #1
300009f0:	13a03000 	movne	r3, #0
300009f4:	e20330ff 	and	r3, r3, #255	@ 0xff
300009f8:	e1a02003 	mov	r2, r3
300009fc:	e59f30d8 	ldr	r3, [pc, #216]	@ 30000adc <Task_Display+0x16c>
30000a00:	e5832000 	str	r2, [r3]
        }

        //  3.  LED2/3/4 
        OS_FLAGS flags = OSFlagQuery(SysModeFlag, &err);
30000a04:	e59f30d4 	ldr	r3, [pc, #212]	@ 30000ae0 <Task_Display+0x170>
30000a08:	e5933000 	ldr	r3, [r3]
30000a0c:	e24b2011 	sub	r2, fp, #17
30000a10:	e1a01002 	mov	r1, r2
30000a14:	e1a00003 	mov	r0, r3
30000a18:	eb000bed 	bl	300039d4 <OSFlagQuery>
30000a1c:	e50b0010 	str	r0, [fp, #-16]
        
        int led_mask = 0;
30000a20:	e3a03000 	mov	r3, #0
30000a24:	e50b3008 	str	r3, [fp, #-8]
        if (led1_state) led_mask |= 1; // LED1
30000a28:	e59f30ac 	ldr	r3, [pc, #172]	@ 30000adc <Task_Display+0x16c>
30000a2c:	e5933000 	ldr	r3, [r3]
30000a30:	e3530000 	cmp	r3, #0
30000a34:	0a000002 	beq	30000a44 <Task_Display+0xd4>
30000a38:	e51b3008 	ldr	r3, [fp, #-8]
30000a3c:	e3833001 	orr	r3, r3, #1
30000a40:	e50b3008 	str	r3, [fp, #-8]
        
        if (flags & MODE_TURBO) {
30000a44:	e51b3010 	ldr	r3, [fp, #-16]
30000a48:	e2033002 	and	r3, r3, #2
30000a4c:	e3530000 	cmp	r3, #0
30000a50:	0a000014 	beq	30000aa8 <Task_Display+0x138>
            // Turbo LED 2,3,4 
            static int shift = 0;
            led_mask |= (2 << shift);
30000a54:	e59f3088 	ldr	r3, [pc, #136]	@ 30000ae4 <Task_Display+0x174>
30000a58:	e5933000 	ldr	r3, [r3]
30000a5c:	e3a02002 	mov	r2, #2
30000a60:	e1a03312 	lsl	r3, r2, r3
30000a64:	e51b2008 	ldr	r2, [fp, #-8]
30000a68:	e1823003 	orr	r3, r2, r3
30000a6c:	e50b3008 	str	r3, [fp, #-8]
            shift = (shift + 1) % 3;
30000a70:	e59f306c 	ldr	r3, [pc, #108]	@ 30000ae4 <Task_Display+0x174>
30000a74:	e5933000 	ldr	r3, [r3]
30000a78:	e2831001 	add	r1, r3, #1
30000a7c:	e59f3064 	ldr	r3, [pc, #100]	@ 30000ae8 <Task_Display+0x178>
30000a80:	e0c20193 	smull	r0, r2, r3, r1
30000a84:	e1a03fc1 	asr	r3, r1, #31
30000a88:	e0422003 	sub	r2, r2, r3
30000a8c:	e1a03002 	mov	r3, r2
30000a90:	e1a03083 	lsl	r3, r3, #1
30000a94:	e0833002 	add	r3, r3, r2
30000a98:	e0412003 	sub	r2, r1, r3
30000a9c:	e59f3040 	ldr	r3, [pc, #64]	@ 30000ae4 <Task_Display+0x174>
30000aa0:	e5832000 	str	r2, [r3]
30000aa4:	ea000002 	b	30000ab4 <Task_Display+0x144>
        } 
        else {
            // Normal LED 2 
            led_mask |= 2;
30000aa8:	e51b3008 	ldr	r3, [fp, #-8]
30000aac:	e3833002 	orr	r3, r3, #2
30000ab0:	e50b3008 	str	r3, [fp, #-8]
        }

        LED_Set(led_mask);
30000ab4:	e51b0008 	ldr	r0, [fp, #-8]
30000ab8:	eb00011e 	bl	30000f38 <LED_Set>
        OSTimeDlyHMSM(0,0,0,10); //  10Hz
30000abc:	e3a0300a 	mov	r3, #10
30000ac0:	e3a02000 	mov	r2, #0
30000ac4:	e3a01000 	mov	r1, #0
30000ac8:	e3a00000 	mov	r0, #0
30000acc:	eb001ac1 	bl	300075d8 <OSTimeDlyHMSM>
    for (;;) {
30000ad0:	eaffffaa 	b	30000980 <Task_Display+0x10>
30000ad4:	3000a79c 	.word	0x3000a79c
30000ad8:	3000a7a0 	.word	0x3000a7a0
30000adc:	3000aa60 	.word	0x3000aa60
30000ae0:	3000a7d4 	.word	0x3000a7d4
30000ae4:	3000aa64 	.word	0x3000aa64
30000ae8:	55555556 	.word	0x55555556

30000aec <Task_Monitor>:
*  (Prio 6)
*  Query 
*********************************************************************************************************
*/
void Task_Monitor(void *pdata)
{
30000aec:	e92d4800 	push	{fp, lr}
30000af0:	e28db004 	add	fp, sp, #4
30000af4:	e24dd038 	sub	sp, sp, #56	@ 0x38
30000af8:	e50b0038 	str	r0, [fp, #-56]	@ 0xffffffc8
    OS_MEM_DATA mem_data;
    OS_Q_DATA   q_data;
    (void)pdata;

    for (;;) {
        OSTimeDlyHMSM(0,0,10,0); //  10 
30000afc:	e3a03000 	mov	r3, #0
30000b00:	e3a0200a 	mov	r2, #10
30000b04:	e3a01000 	mov	r1, #0
30000b08:	e3a00000 	mov	r0, #0
30000b0c:	eb001ab1 	bl	300075d8 <OSTimeDlyHMSM>

        // 1. 
        OSMemQuery(MemPartition, &mem_data);
30000b10:	e59f3094 	ldr	r3, [pc, #148]	@ 30000bac <Task_Monitor+0xc0>
30000b14:	e5933000 	ldr	r3, [r3]
30000b18:	e24b2020 	sub	r2, fp, #32
30000b1c:	e1a01002 	mov	r1, r2
30000b20:	e1a00003 	mov	r0, r3
30000b24:	eb000f19 	bl	30004790 <OSMemQuery>
        
        // 2. 
        OSQQuery(DataQueue, &q_data);
30000b28:	e59f3080 	ldr	r3, [pc, #128]	@ 30000bb0 <Task_Monitor+0xc4>
30000b2c:	e5933000 	ldr	r3, [r3]
30000b30:	e24b2034 	sub	r2, fp, #52	@ 0x34
30000b34:	e1a01002 	mov	r1, r2
30000b38:	e1a00003 	mov	r0, r3
30000b3c:	eb001510 	bl	30005f84 <OSQQuery>

        // 3. 
        OSMutexPend(UartMutex, 0, &err);
30000b40:	e59f306c 	ldr	r3, [pc, #108]	@ 30000bb4 <Task_Monitor+0xc8>
30000b44:	e5933000 	ldr	r3, [r3]
30000b48:	e24b2005 	sub	r2, fp, #5
30000b4c:	e3a01000 	mov	r1, #0
30000b50:	e1a00003 	mov	r0, r3
30000b54:	eb001086 	bl	30004d74 <OSMutexPend>
        Uart_Printf("\n--- System Monitor ---\n");
30000b58:	e59f0058 	ldr	r0, [pc, #88]	@ 30000bb8 <Task_Monitor+0xcc>
30000b5c:	eb0002e2 	bl	300016ec <Uart_Printf>
        Uart_Printf("CPU Usage: %d%%\n", OSCPUUsage);
30000b60:	e59f3054 	ldr	r3, [pc, #84]	@ 30000bbc <Task_Monitor+0xd0>
30000b64:	e5d33000 	ldrb	r3, [r3]
30000b68:	e1a01003 	mov	r1, r3
30000b6c:	e59f004c 	ldr	r0, [pc, #76]	@ 30000bc0 <Task_Monitor+0xd4>
30000b70:	eb0002dd 	bl	300016ec <Uart_Printf>
        Uart_Printf("Mem Free : %d blocks\n", mem_data.OSNFree);
30000b74:	e51b3010 	ldr	r3, [fp, #-16]
30000b78:	e1a01003 	mov	r1, r3
30000b7c:	e59f0040 	ldr	r0, [pc, #64]	@ 30000bc4 <Task_Monitor+0xd8>
30000b80:	eb0002d9 	bl	300016ec <Uart_Printf>
        Uart_Printf("Q Msg    : %d waiting\n", q_data.OSNMsgs);
30000b84:	e15b33b0 	ldrh	r3, [fp, #-48]	@ 0xffffffd0
30000b88:	e1a01003 	mov	r1, r3
30000b8c:	e59f0034 	ldr	r0, [pc, #52]	@ 30000bc8 <Task_Monitor+0xdc>
30000b90:	eb0002d5 	bl	300016ec <Uart_Printf>
        
        //  OSTaskQuery ()
        // OSTaskQuery(OS_PRIO_SELF, &TCBData);
        // Uart_Printf("My Stack: %p\n", TCBData.OSTCBStkPtr);
        
        OSMutexPost(UartMutex);
30000b94:	e59f3018 	ldr	r3, [pc, #24]	@ 30000bb4 <Task_Monitor+0xc8>
30000b98:	e5933000 	ldr	r3, [r3]
30000b9c:	e1a00003 	mov	r0, r3
30000ba0:	eb00115d 	bl	3000511c <OSMutexPost>
        OSTimeDlyHMSM(0,0,10,0); //  10 
30000ba4:	e1a00000 	nop			@ (mov r0, r0)
30000ba8:	eaffffd3 	b	30000afc <Task_Monitor+0x10>
30000bac:	3000a7d8 	.word	0x3000a7d8
30000bb0:	3000a7a4 	.word	0x3000a7a4
30000bb4:	3000a7d0 	.word	0x3000a7d0
30000bb8:	30007dfc 	.word	0x30007dfc
30000bbc:	3000aa91 	.word	0x3000aa91
30000bc0:	30007e18 	.word	0x30007e18
30000bc4:	30007e2c 	.word	0x30007e2c
30000bc8:	30007e44 	.word	0x30007e44

30000bcc <OSTaskStkInit>:
* - ARM  16  + CPSR
* -  8  AAPCS
*********************************************************************************************************
*/
OS_STK *OSTaskStkInit (void (*task)(void *pdata), void *pdata1, OS_STK *ptos, INT16U opt)
{
30000bcc:	e52db004 	push	{fp}		@ (str fp, [sp, #-4]!)
30000bd0:	e28db000 	add	fp, sp, #0
30000bd4:	e24dd01c 	sub	sp, sp, #28
30000bd8:	e50b0010 	str	r0, [fp, #-16]
30000bdc:	e50b1014 	str	r1, [fp, #-20]	@ 0xffffffec
30000be0:	e50b2018 	str	r2, [fp, #-24]	@ 0xffffffe8
30000be4:	e14b31ba 	strh	r3, [fp, #-26]	@ 0xffffffe6
    OS_STK * stk;

    stk = ptos;                         /* Load stack pointer */
30000be8:	e51b3018 	ldr	r3, [fp, #-24]	@ 0xffffffe8
30000bec:	e50b3008 	str	r3, [fp, #-8]

    /* Registers: PC, LR, R12-R0, CPSR */
    *stk = (OS_STK)task;              /* PC */
30000bf0:	e51b2010 	ldr	r2, [fp, #-16]
30000bf4:	e51b3008 	ldr	r3, [fp, #-8]
30000bf8:	e5832000 	str	r2, [r3]
    *(--stk) = (OS_STK)task;          /* LR */
30000bfc:	e51b3008 	ldr	r3, [fp, #-8]
30000c00:	e2433004 	sub	r3, r3, #4
30000c04:	e50b3008 	str	r3, [fp, #-8]
30000c08:	e51b2010 	ldr	r2, [fp, #-16]
30000c0c:	e51b3008 	ldr	r3, [fp, #-8]
30000c10:	e5832000 	str	r2, [r3]
    *(--stk) = 0;                       /* R12 */
30000c14:	e51b3008 	ldr	r3, [fp, #-8]
30000c18:	e2433004 	sub	r3, r3, #4
30000c1c:	e50b3008 	str	r3, [fp, #-8]
30000c20:	e51b3008 	ldr	r3, [fp, #-8]
30000c24:	e3a02000 	mov	r2, #0
30000c28:	e5832000 	str	r2, [r3]
    *(--stk) = 0;                       /* R11 */
30000c2c:	e51b3008 	ldr	r3, [fp, #-8]
30000c30:	e2433004 	sub	r3, r3, #4
30000c34:	e50b3008 	str	r3, [fp, #-8]
30000c38:	e51b3008 	ldr	r3, [fp, #-8]
30000c3c:	e3a02000 	mov	r2, #0
30000c40:	e5832000 	str	r2, [r3]
    *(--stk) = 0;                       /* R10 */
30000c44:	e51b3008 	ldr	r3, [fp, #-8]
30000c48:	e2433004 	sub	r3, r3, #4
30000c4c:	e50b3008 	str	r3, [fp, #-8]
30000c50:	e51b3008 	ldr	r3, [fp, #-8]
30000c54:	e3a02000 	mov	r2, #0
30000c58:	e5832000 	str	r2, [r3]
    *(--stk) = 0;                       /* R9 */
30000c5c:	e51b3008 	ldr	r3, [fp, #-8]
30000c60:	e2433004 	sub	r3, r3, #4
30000c64:	e50b3008 	str	r3, [fp, #-8]
30000c68:	e51b3008 	ldr	r3, [fp, #-8]
30000c6c:	e3a02000 	mov	r2, #0
30000c70:	e5832000 	str	r2, [r3]
    *(--stk) = 0;                       /* R8 */
30000c74:	e51b3008 	ldr	r3, [fp, #-8]
30000c78:	e2433004 	sub	r3, r3, #4
30000c7c:	e50b3008 	str	r3, [fp, #-8]
30000c80:	e51b3008 	ldr	r3, [fp, #-8]
30000c84:	e3a02000 	mov	r2, #0
30000c88:	e5832000 	str	r2, [r3]
    *(--stk) = 0;                       /* R7 */
30000c8c:	e51b3008 	ldr	r3, [fp, #-8]
30000c90:	e2433004 	sub	r3, r3, #4
30000c94:	e50b3008 	str	r3, [fp, #-8]
30000c98:	e51b3008 	ldr	r3, [fp, #-8]
30000c9c:	e3a02000 	mov	r2, #0
30000ca0:	e5832000 	str	r2, [r3]
    *(--stk) = 0;                       /* R6 */
30000ca4:	e51b3008 	ldr	r3, [fp, #-8]
30000ca8:	e2433004 	sub	r3, r3, #4
30000cac:	e50b3008 	str	r3, [fp, #-8]
30000cb0:	e51b3008 	ldr	r3, [fp, #-8]
30000cb4:	e3a02000 	mov	r2, #0
30000cb8:	e5832000 	str	r2, [r3]
    *(--stk) = 0;                       /* R5 */
30000cbc:	e51b3008 	ldr	r3, [fp, #-8]
30000cc0:	e2433004 	sub	r3, r3, #4
30000cc4:	e50b3008 	str	r3, [fp, #-8]
30000cc8:	e51b3008 	ldr	r3, [fp, #-8]
30000ccc:	e3a02000 	mov	r2, #0
30000cd0:	e5832000 	str	r2, [r3]
    *(--stk) = 0;                       /* R4 */
30000cd4:	e51b3008 	ldr	r3, [fp, #-8]
30000cd8:	e2433004 	sub	r3, r3, #4
30000cdc:	e50b3008 	str	r3, [fp, #-8]
30000ce0:	e51b3008 	ldr	r3, [fp, #-8]
30000ce4:	e3a02000 	mov	r2, #0
30000ce8:	e5832000 	str	r2, [r3]
    *(--stk) = 0;                       /* R3 */
30000cec:	e51b3008 	ldr	r3, [fp, #-8]
30000cf0:	e2433004 	sub	r3, r3, #4
30000cf4:	e50b3008 	str	r3, [fp, #-8]
30000cf8:	e51b3008 	ldr	r3, [fp, #-8]
30000cfc:	e3a02000 	mov	r2, #0
30000d00:	e5832000 	str	r2, [r3]
    *(--stk) = 0;                       /* R2 */
30000d04:	e51b3008 	ldr	r3, [fp, #-8]
30000d08:	e2433004 	sub	r3, r3, #4
30000d0c:	e50b3008 	str	r3, [fp, #-8]
30000d10:	e51b3008 	ldr	r3, [fp, #-8]
30000d14:	e3a02000 	mov	r2, #0
30000d18:	e5832000 	str	r2, [r3]
    *(--stk) = 0;                       /* R1 */
30000d1c:	e51b3008 	ldr	r3, [fp, #-8]
30000d20:	e2433004 	sub	r3, r3, #4
30000d24:	e50b3008 	str	r3, [fp, #-8]
30000d28:	e51b3008 	ldr	r3, [fp, #-8]
30000d2c:	e3a02000 	mov	r2, #0
30000d30:	e5832000 	str	r2, [r3]
    *(--stk) = (OS_STK )pdata1;       /* R0 */
30000d34:	e51b3008 	ldr	r3, [fp, #-8]
30000d38:	e2433004 	sub	r3, r3, #4
30000d3c:	e50b3008 	str	r3, [fp, #-8]
30000d40:	e51b2014 	ldr	r2, [fp, #-20]	@ 0xffffffec
30000d44:	e51b3008 	ldr	r3, [fp, #-8]
30000d48:	e5832000 	str	r2, [r3]
    *(--stk) = (OS_STK)0x00000013;    /* CPSR (SVC mode, Enable IRQ/FIQ) */
30000d4c:	e51b3008 	ldr	r3, [fp, #-8]
30000d50:	e2433004 	sub	r3, r3, #4
30000d54:	e50b3008 	str	r3, [fp, #-8]
30000d58:	e51b3008 	ldr	r3, [fp, #-8]
30000d5c:	e3a02013 	mov	r2, #19
30000d60:	e5832000 	str	r2, [r3]

    return (stk);   
30000d64:	e51b3008 	ldr	r3, [fp, #-8]
}
30000d68:	e1a00003 	mov	r0, r3
30000d6c:	e28bd000 	add	sp, fp, #0
30000d70:	e49db004 	pop	{fp}		@ (ldr fp, [sp], #4)
30000d74:	e12fff1e 	bx	lr

30000d78 <OSTaskCreateHook>:
*********************************************************************************************************
*/


void  OSTaskCreateHook (OS_TCB *ptcb)
{
30000d78:	e52db004 	push	{fp}		@ (str fp, [sp, #-4]!)
30000d7c:	e28db000 	add	fp, sp, #0
30000d80:	e24dd00c 	sub	sp, sp, #12
30000d84:	e50b0008 	str	r0, [fp, #-8]
    // 
    ptcb = ptcb;
}
30000d88:	e1a00000 	nop			@ (mov r0, r0)
30000d8c:	e28bd000 	add	sp, fp, #0
30000d90:	e49db004 	pop	{fp}		@ (ldr fp, [sp], #4)
30000d94:	e12fff1e 	bx	lr

30000d98 <OSTaskDelHook>:

void  OSTaskDelHook (OS_TCB *ptcb)
{
30000d98:	e92d4800 	push	{fp, lr}
30000d9c:	e28db004 	add	fp, sp, #4
30000da0:	e24dd010 	sub	sp, sp, #16
30000da4:	e50b0010 	str	r0, [fp, #-16]
    // 
    INT8U val;
    val = ptcb->OSTCBPrio;
30000da8:	e51b3010 	ldr	r3, [fp, #-16]
30000dac:	e5d3301e 	ldrb	r3, [r3, #30]
30000db0:	e54b3005 	strb	r3, [fp, #-5]
    Uart_Printf("/n task :",val," has been deleted /n");
30000db4:	e55b3005 	ldrb	r3, [fp, #-5]
30000db8:	e59f2018 	ldr	r2, [pc, #24]	@ 30000dd8 <OSTaskDelHook+0x40>
30000dbc:	e1a01003 	mov	r1, r3
30000dc0:	e59f0014 	ldr	r0, [pc, #20]	@ 30000ddc <OSTaskDelHook+0x44>
30000dc4:	eb000248 	bl	300016ec <Uart_Printf>
}
30000dc8:	e1a00000 	nop			@ (mov r0, r0)
30000dcc:	e24bd004 	sub	sp, fp, #4
30000dd0:	e8bd4800 	pop	{fp, lr}
30000dd4:	e12fff1e 	bx	lr
30000dd8:	30007e5c 	.word	0x30007e5c
30000ddc:	30007e74 	.word	0x30007e74

30000de0 <OSTaskSwHook>:

void  OSTaskSwHook (void)
{
30000de0:	e52db004 	push	{fp}		@ (str fp, [sp, #-4]!)
30000de4:	e28db000 	add	fp, sp, #0
    // 
}
30000de8:	e1a00000 	nop			@ (mov r0, r0)
30000dec:	e28bd000 	add	sp, fp, #0
30000df0:	e49db004 	pop	{fp}		@ (ldr fp, [sp], #4)
30000df4:	e12fff1e 	bx	lr

30000df8 <OSTaskStatHook>:

void  OSTaskStatHook (void)
{
30000df8:	e52db004 	push	{fp}		@ (str fp, [sp, #-4]!)
30000dfc:	e28db000 	add	fp, sp, #0
    // 
}
30000e00:	e1a00000 	nop			@ (mov r0, r0)
30000e04:	e28bd000 	add	sp, fp, #0
30000e08:	e49db004 	pop	{fp}		@ (ldr fp, [sp], #4)
30000e0c:	e12fff1e 	bx	lr

30000e10 <OSTimeTickHook>:

void  OSTimeTickHook (void)
{
30000e10:	e52db004 	push	{fp}		@ (str fp, [sp, #-4]!)
30000e14:	e28db000 	add	fp, sp, #0
    // 
}
30000e18:	e1a00000 	nop			@ (mov r0, r0)
30000e1c:	e28bd000 	add	sp, fp, #0
30000e20:	e49db004 	pop	{fp}		@ (ldr fp, [sp], #4)
30000e24:	e12fff1e 	bx	lr

30000e28 <OSInitHookBegin>:



void  OSInitHookBegin (void)
{
30000e28:	e52db004 	push	{fp}		@ (str fp, [sp, #-4]!)
30000e2c:	e28db000 	add	fp, sp, #0
    // 
}
30000e30:	e1a00000 	nop			@ (mov r0, r0)
30000e34:	e28bd000 	add	sp, fp, #0
30000e38:	e49db004 	pop	{fp}		@ (ldr fp, [sp], #4)
30000e3c:	e12fff1e 	bx	lr

30000e40 <OSInitHookEnd>:

void  OSInitHookEnd (void)
{
30000e40:	e52db004 	push	{fp}		@ (str fp, [sp, #-4]!)
30000e44:	e28db000 	add	fp, sp, #0
    // 
}
30000e48:	e1a00000 	nop			@ (mov r0, r0)
30000e4c:	e28bd000 	add	sp, fp, #0
30000e50:	e49db004 	pop	{fp}		@ (ldr fp, [sp], #4)
30000e54:	e12fff1e 	bx	lr

30000e58 <OSTCBInitHook>:

void  OSTCBInitHook (OS_TCB *ptcb)
{
30000e58:	e52db004 	push	{fp}		@ (str fp, [sp, #-4]!)
30000e5c:	e28db000 	add	fp, sp, #0
30000e60:	e24dd00c 	sub	sp, sp, #12
30000e64:	e50b0008 	str	r0, [fp, #-8]
    // 
    ptcb = ptcb;
}
30000e68:	e1a00000 	nop			@ (mov r0, r0)
30000e6c:	e28bd000 	add	sp, fp, #0
30000e70:	e49db004 	pop	{fp}		@ (ldr fp, [sp], #4)
30000e74:	e12fff1e 	bx	lr

30000e78 <OSTaskIdleHook>:

void  OSTaskIdleHook (void)
{
30000e78:	e52db004 	push	{fp}		@ (str fp, [sp, #-4]!)
30000e7c:	e28db000 	add	fp, sp, #0
    // Called when idle task runs
}
30000e80:	e1a00000 	nop			@ (mov r0, r0)
30000e84:	e28bd000 	add	sp, fp, #0
30000e88:	e49db004 	pop	{fp}		@ (ldr fp, [sp], #4)
30000e8c:	e12fff1e 	bx	lr

30000e90 <Beep_Ctrl>:
#include "os_uart.h"
#include "os_timer.h"

// 1.10
void Beep_Ctrl(int on)
{
30000e90:	e52db004 	push	{fp}		@ (str fp, [sp, #-4]!)
30000e94:	e28db000 	add	fp, sp, #0
30000e98:	e24dd00c 	sub	sp, sp, #12
30000e9c:	e50b0008 	str	r0, [fp, #-8]
    if (on) {rGPBDAT |=  (1<<0); }
30000ea0:	e51b3008 	ldr	r3, [fp, #-8]
30000ea4:	e3530000 	cmp	r3, #0
30000ea8:	0a000005 	beq	30000ec4 <Beep_Ctrl+0x34>
30000eac:	e59f3034 	ldr	r3, [pc, #52]	@ 30000ee8 <Beep_Ctrl+0x58>
30000eb0:	e5933000 	ldr	r3, [r3]
30000eb4:	e59f202c 	ldr	r2, [pc, #44]	@ 30000ee8 <Beep_Ctrl+0x58>
30000eb8:	e3833001 	orr	r3, r3, #1
30000ebc:	e5823000 	str	r3, [r2]
    else    {rGPBDAT &= ~(1<<0);}
}
30000ec0:	ea000004 	b	30000ed8 <Beep_Ctrl+0x48>
    else    {rGPBDAT &= ~(1<<0);}
30000ec4:	e59f301c 	ldr	r3, [pc, #28]	@ 30000ee8 <Beep_Ctrl+0x58>
30000ec8:	e5933000 	ldr	r3, [r3]
30000ecc:	e59f2014 	ldr	r2, [pc, #20]	@ 30000ee8 <Beep_Ctrl+0x58>
30000ed0:	e3c33001 	bic	r3, r3, #1
30000ed4:	e5823000 	str	r3, [r2]
}
30000ed8:	e1a00000 	nop			@ (mov r0, r0)
30000edc:	e28bd000 	add	sp, fp, #0
30000ee0:	e49db004 	pop	{fp}		@ (ldr fp, [sp], #4)
30000ee4:	e12fff1e 	bx	lr
30000ee8:	56000014 	.word	0x56000014

30000eec <Beep_Init>:

void Beep_Init(void){
30000eec:	e92d4800 	push	{fp, lr}
30000ef0:	e28db004 	add	fp, sp, #4
    rGPBCON &= ~(3<<0);
30000ef4:	e59f3038 	ldr	r3, [pc, #56]	@ 30000f34 <Beep_Init+0x48>
30000ef8:	e5933000 	ldr	r3, [r3]
30000efc:	e59f2030 	ldr	r2, [pc, #48]	@ 30000f34 <Beep_Init+0x48>
30000f00:	e3c33003 	bic	r3, r3, #3
30000f04:	e5823000 	str	r3, [r2]
    rGPBCON |=  (1<<0);
30000f08:	e59f3024 	ldr	r3, [pc, #36]	@ 30000f34 <Beep_Init+0x48>
30000f0c:	e5933000 	ldr	r3, [r3]
30000f10:	e59f201c 	ldr	r2, [pc, #28]	@ 30000f34 <Beep_Init+0x48>
30000f14:	e3833001 	orr	r3, r3, #1
30000f18:	e5823000 	str	r3, [r2]
    Beep_Ctrl(0);
30000f1c:	e3a00000 	mov	r0, #0
30000f20:	ebffffda 	bl	30000e90 <Beep_Ctrl>
}
30000f24:	e1a00000 	nop			@ (mov r0, r0)
30000f28:	e24bd004 	sub	sp, fp, #4
30000f2c:	e8bd4800 	pop	{fp, lr}
30000f30:	e12fff1e 	bx	lr
30000f34:	56000010 	.word	0x56000010

30000f38 <LED_Set>:
// 2.LED mask  bit0-3  LED1-4
void LED_Set(int mask)
{
30000f38:	e52db004 	push	{fp}		@ (str fp, [sp, #-4]!)
30000f3c:	e28db000 	add	fp, sp, #0
30000f40:	e24dd014 	sub	sp, sp, #20
30000f44:	e50b0010 	str	r0, [fp, #-16]
    INT32U val = rGPBDAT;
30000f48:	e59f309c 	ldr	r3, [pc, #156]	@ 30000fec <LED_Set+0xb4>
30000f4c:	e5933000 	ldr	r3, [r3]
30000f50:	e50b3008 	str	r3, [fp, #-8]
    val |= (0xF << 5); // 
30000f54:	e51b3008 	ldr	r3, [fp, #-8]
30000f58:	e3833e1e 	orr	r3, r3, #480	@ 0x1e0
30000f5c:	e50b3008 	str	r3, [fp, #-8]
    
    //  bit0  1 () GPB5  0
    if (mask & 1) {val &= ~(1<<5);}
30000f60:	e51b3010 	ldr	r3, [fp, #-16]
30000f64:	e2033001 	and	r3, r3, #1
30000f68:	e3530000 	cmp	r3, #0
30000f6c:	0a000002 	beq	30000f7c <LED_Set+0x44>
30000f70:	e51b3008 	ldr	r3, [fp, #-8]
30000f74:	e3c33020 	bic	r3, r3, #32
30000f78:	e50b3008 	str	r3, [fp, #-8]
    if (mask & 2) {val &= ~(1<<6);}
30000f7c:	e51b3010 	ldr	r3, [fp, #-16]
30000f80:	e2033002 	and	r3, r3, #2
30000f84:	e3530000 	cmp	r3, #0
30000f88:	0a000002 	beq	30000f98 <LED_Set+0x60>
30000f8c:	e51b3008 	ldr	r3, [fp, #-8]
30000f90:	e3c33040 	bic	r3, r3, #64	@ 0x40
30000f94:	e50b3008 	str	r3, [fp, #-8]
    if (mask & 4) {val &= ~(1<<7);}
30000f98:	e51b3010 	ldr	r3, [fp, #-16]
30000f9c:	e2033004 	and	r3, r3, #4
30000fa0:	e3530000 	cmp	r3, #0
30000fa4:	0a000002 	beq	30000fb4 <LED_Set+0x7c>
30000fa8:	e51b3008 	ldr	r3, [fp, #-8]
30000fac:	e3c33080 	bic	r3, r3, #128	@ 0x80
30000fb0:	e50b3008 	str	r3, [fp, #-8]
    if (mask & 8) {val &= ~(1<<8);}
30000fb4:	e51b3010 	ldr	r3, [fp, #-16]
30000fb8:	e2033008 	and	r3, r3, #8
30000fbc:	e3530000 	cmp	r3, #0
30000fc0:	0a000002 	beq	30000fd0 <LED_Set+0x98>
30000fc4:	e51b3008 	ldr	r3, [fp, #-8]
30000fc8:	e3c33c01 	bic	r3, r3, #256	@ 0x100
30000fcc:	e50b3008 	str	r3, [fp, #-8]
    
    rGPBDAT = val;
30000fd0:	e59f2014 	ldr	r2, [pc, #20]	@ 30000fec <LED_Set+0xb4>
30000fd4:	e51b3008 	ldr	r3, [fp, #-8]
30000fd8:	e5823000 	str	r3, [r2]
}
30000fdc:	e1a00000 	nop			@ (mov r0, r0)
30000fe0:	e28bd000 	add	sp, fp, #0
30000fe4:	e49db004 	pop	{fp}		@ (ldr fp, [sp], #4)
30000fe8:	e12fff1e 	bx	lr
30000fec:	56000014 	.word	0x56000014

30000ff0 <LED_Init>:

void LED_Init(void){
30000ff0:	e92d4800 	push	{fp, lr}
30000ff4:	e28db004 	add	fp, sp, #4
    rGPBCON &= ~((3<<10)|(3<<12)|(3<<14)|(3<<16));
30000ff8:	e59f3038 	ldr	r3, [pc, #56]	@ 30001038 <LED_Init+0x48>
30000ffc:	e5933000 	ldr	r3, [r3]
30001000:	e59f2030 	ldr	r2, [pc, #48]	@ 30001038 <LED_Init+0x48>
30001004:	e3c33bff 	bic	r3, r3, #261120	@ 0x3fc00
30001008:	e5823000 	str	r3, [r2]
    rGPBCON |=  ((1<<10)|(1<<12)|(1<<14)|(1<<16));
3000100c:	e59f3024 	ldr	r3, [pc, #36]	@ 30001038 <LED_Init+0x48>
30001010:	e5933000 	ldr	r3, [r3]
30001014:	e59f201c 	ldr	r2, [pc, #28]	@ 30001038 <LED_Init+0x48>
30001018:	e3833b55 	orr	r3, r3, #87040	@ 0x15400
3000101c:	e5823000 	str	r3, [r2]
    LED_Set(0);
30001020:	e3a00000 	mov	r0, #0
30001024:	ebffffc3 	bl	30000f38 <LED_Set>
}
30001028:	e1a00000 	nop			@ (mov r0, r0)
3000102c:	e24bd004 	sub	sp, fp, #4
30001030:	e8bd4800 	pop	{fp, lr}
30001034:	e12fff1e 	bx	lr
30001038:	56000010 	.word	0x56000010

3000103c <Key_Scan>:

// 3.
int Key_Scan(void)
{
3000103c:	e52db004 	push	{fp}		@ (str fp, [sp, #-4]!)
30001040:	e28db000 	add	fp, sp, #0
30001044:	e24dd00c 	sub	sp, sp, #12
    INT32U val = rGPGDAT;
30001048:	e59f30a8 	ldr	r3, [pc, #168]	@ 300010f8 <Key_Scan+0xbc>
3000104c:	e5933000 	ldr	r3, [r3]
30001050:	e50b3008 	str	r3, [fp, #-8]
    if (!(val & (1<<0)))  {return 1;}
30001054:	e51b3008 	ldr	r3, [fp, #-8]
30001058:	e2033001 	and	r3, r3, #1
3000105c:	e3530000 	cmp	r3, #0
30001060:	1a000001 	bne	3000106c <Key_Scan+0x30>
30001064:	e3a03001 	mov	r3, #1
30001068:	ea00001e 	b	300010e8 <Key_Scan+0xac>
    if (!(val & (1<<3)))  {return 2;}
3000106c:	e51b3008 	ldr	r3, [fp, #-8]
30001070:	e2033008 	and	r3, r3, #8
30001074:	e3530000 	cmp	r3, #0
30001078:	1a000001 	bne	30001084 <Key_Scan+0x48>
3000107c:	e3a03002 	mov	r3, #2
30001080:	ea000018 	b	300010e8 <Key_Scan+0xac>
    if (!(val & (1<<5)))  {return 3;}
30001084:	e51b3008 	ldr	r3, [fp, #-8]
30001088:	e2033020 	and	r3, r3, #32
3000108c:	e3530000 	cmp	r3, #0
30001090:	1a000001 	bne	3000109c <Key_Scan+0x60>
30001094:	e3a03003 	mov	r3, #3
30001098:	ea000012 	b	300010e8 <Key_Scan+0xac>
    if (!(val & (1<<6)))  {return 4;}
3000109c:	e51b3008 	ldr	r3, [fp, #-8]
300010a0:	e2033040 	and	r3, r3, #64	@ 0x40
300010a4:	e3530000 	cmp	r3, #0
300010a8:	1a000001 	bne	300010b4 <Key_Scan+0x78>
300010ac:	e3a03004 	mov	r3, #4
300010b0:	ea00000c 	b	300010e8 <Key_Scan+0xac>
    if (!(val & (1<<7)))  {return 5;}
300010b4:	e51b3008 	ldr	r3, [fp, #-8]
300010b8:	e2033080 	and	r3, r3, #128	@ 0x80
300010bc:	e3530000 	cmp	r3, #0
300010c0:	1a000001 	bne	300010cc <Key_Scan+0x90>
300010c4:	e3a03005 	mov	r3, #5
300010c8:	ea000006 	b	300010e8 <Key_Scan+0xac>
    if (!(val & (1<<11))) {return 6;}
300010cc:	e51b3008 	ldr	r3, [fp, #-8]
300010d0:	e2033b02 	and	r3, r3, #2048	@ 0x800
300010d4:	e3530000 	cmp	r3, #0
300010d8:	1a000001 	bne	300010e4 <Key_Scan+0xa8>
300010dc:	e3a03006 	mov	r3, #6
300010e0:	ea000000 	b	300010e8 <Key_Scan+0xac>
    return 0;
300010e4:	e3a03000 	mov	r3, #0
}
300010e8:	e1a00003 	mov	r0, r3
300010ec:	e28bd000 	add	sp, fp, #0
300010f0:	e49db004 	pop	{fp}		@ (ldr fp, [sp], #4)
300010f4:	e12fff1e 	bx	lr
300010f8:	56000064 	.word	0x56000064

300010fc <Key_Init>:

void Key_Init(void){
300010fc:	e52db004 	push	{fp}		@ (str fp, [sp, #-4]!)
30001100:	e28db000 	add	fp, sp, #0
    rGPGCON &= ~((3<<0)|(3<<6)|(3<<10)|(3<<12)|(3<<14)|(3<<22));
30001104:	e59f3020 	ldr	r3, [pc, #32]	@ 3000112c <Key_Init+0x30>
30001108:	e5932000 	ldr	r2, [r3]
3000110c:	e59f1018 	ldr	r1, [pc, #24]	@ 3000112c <Key_Init+0x30>
30001110:	e59f3018 	ldr	r3, [pc, #24]	@ 30001130 <Key_Init+0x34>
30001114:	e0033002 	and	r3, r3, r2
30001118:	e5813000 	str	r3, [r1]
}
3000111c:	e1a00000 	nop			@ (mov r0, r0)
30001120:	e28bd000 	add	sp, fp, #0
30001124:	e49db004 	pop	{fp}		@ (ldr fp, [sp], #4)
30001128:	e12fff1e 	bx	lr
3000112c:	56000060 	.word	0x56000060
30001130:	ff3f033c 	.word	0xff3f033c

30001134 <BSP_Init>:

void BSP_Init(void)
{
30001134:	e92d4800 	push	{fp, lr}
30001138:	e28db004 	add	fp, sp, #4
    Uart_Init(50000000,115200);// PCLK=50000000, Baud=115200
3000113c:	e59f1024 	ldr	r1, [pc, #36]	@ 30001168 <BSP_Init+0x34>
30001140:	e59f0024 	ldr	r0, [pc, #36]	@ 3000116c <BSP_Init+0x38>
30001144:	eb00004e 	bl	30001284 <Uart_Init>
    Beep_Init();
30001148:	ebffff67 	bl	30000eec <Beep_Init>
    LED_Init();
3000114c:	ebffffa7 	bl	30000ff0 <LED_Init>
    Key_Init(); 
30001150:	ebffffe9 	bl	300010fc <Key_Init>
    InitTimer4();
30001154:	eb000005 	bl	30001170 <InitTimer4>
}
30001158:	e1a00000 	nop			@ (mov r0, r0)
3000115c:	e24bd004 	sub	sp, fp, #4
30001160:	e8bd4800 	pop	{fp, lr}
30001164:	e12fff1e 	bx	lr
30001168:	0001c200 	.word	0x0001c200
3000116c:	02faf080 	.word	0x02faf080

30001170 <InitTimer4>:
* Timer Input Clock = 50MHz / (249 + 1) / 4 = 50kHz
* TCNTB4 = 50000 / 100 = 500
*********************************************************************************************************
*/
void InitTimer4(void)
{
30001170:	e52db004 	push	{fp}		@ (str fp, [sp, #-4]!)
30001174:	e28db000 	add	fp, sp, #0
    // 1.  Timer 4 
    //  OSTickISR 
    pISR_TIMER4 = (INT32U)OSTickISR;
30001178:	e59f30e8 	ldr	r3, [pc, #232]	@ 30001268 <InitTimer4+0xf8>
3000117c:	e59f20e8 	ldr	r2, [pc, #232]	@ 3000126c <InitTimer4+0xfc>
30001180:	e5832000 	str	r2, [r3]

    // 2.  ()
    rSRCPND |= (1 << 14); //  1  Timer4 
30001184:	e3a0344a 	mov	r3, #1241513984	@ 0x4a000000
30001188:	e5933000 	ldr	r3, [r3]
3000118c:	e3a0244a 	mov	r2, #1241513984	@ 0x4a000000
30001190:	e3833901 	orr	r3, r3, #16384	@ 0x4000
30001194:	e5823000 	str	r3, [r2]
    rINTPND |= (1 << 14); 
30001198:	e59f30d0 	ldr	r3, [pc, #208]	@ 30001270 <InitTimer4+0x100>
3000119c:	e5933000 	ldr	r3, [r3]
300011a0:	e59f20c8 	ldr	r2, [pc, #200]	@ 30001270 <InitTimer4+0x100>
300011a4:	e3833901 	orr	r3, r3, #16384	@ 0x4000
300011a8:	e5823000 	str	r3, [r2]

    // 3.  (Prescaler 1 for Timer 2,3,4)
    // rTCFG0 [15:8] = 249
    rTCFG0 &= ~(0xFF << 8);
300011ac:	e3a03451 	mov	r3, #1358954496	@ 0x51000000
300011b0:	e5933000 	ldr	r3, [r3]
300011b4:	e3a02451 	mov	r2, #1358954496	@ 0x51000000
300011b8:	e3c33cff 	bic	r3, r3, #65280	@ 0xff00
300011bc:	e5823000 	str	r3, [r2]
    rTCFG0 |=  (249 << 8);
300011c0:	e3a03451 	mov	r3, #1358954496	@ 0x51000000
300011c4:	e5933000 	ldr	r3, [r3]
300011c8:	e3a02451 	mov	r2, #1358954496	@ 0x51000000
300011cc:	e3833cf9 	orr	r3, r3, #63744	@ 0xf900
300011d0:	e5823000 	str	r3, [r2]

    // 4.  (Divider MUX for Timer 4)
    // rTCFG1 [19:16] = 0001 (1/4)
    rTCFG1 &= ~(0x0F << 16);
300011d4:	e59f3098 	ldr	r3, [pc, #152]	@ 30001274 <InitTimer4+0x104>
300011d8:	e5933000 	ldr	r3, [r3]
300011dc:	e59f2090 	ldr	r2, [pc, #144]	@ 30001274 <InitTimer4+0x104>
300011e0:	e3c3380f 	bic	r3, r3, #983040	@ 0xf0000
300011e4:	e5823000 	str	r3, [r2]
    rTCFG1 |=  (1 << 16);
300011e8:	e59f3084 	ldr	r3, [pc, #132]	@ 30001274 <InitTimer4+0x104>
300011ec:	e5933000 	ldr	r3, [r3]
300011f0:	e59f207c 	ldr	r2, [pc, #124]	@ 30001274 <InitTimer4+0x104>
300011f4:	e3833801 	orr	r3, r3, #65536	@ 0x10000
300011f8:	e5823000 	str	r3, [r2]

    // 5.  (TCNTB4)
    //  50kHz,  10ms (100Hz) => 500
    rTCNTB4 = (50000000 / 250 / 4) / OS_TICKS_PER_SEC;
300011fc:	e59f3074 	ldr	r3, [pc, #116]	@ 30001278 <InitTimer4+0x108>
30001200:	e3a02ffa 	mov	r2, #1000	@ 0x3e8
30001204:	e5832000 	str	r2, [r3]

    // 6.  (Manual Update)
    // TCON Bit 21: Timer 4 Manual Update
    rTCON |=  (1 << 21);
30001208:	e59f306c 	ldr	r3, [pc, #108]	@ 3000127c <InitTimer4+0x10c>
3000120c:	e5933000 	ldr	r3, [r3]
30001210:	e59f2064 	ldr	r2, [pc, #100]	@ 3000127c <InitTimer4+0x10c>
30001214:	e3833602 	orr	r3, r3, #2097152	@ 0x200000
30001218:	e5823000 	str	r3, [r2]
    
    // 7.  ( Timer )
    rTCON &= ~(1 << 21);
3000121c:	e59f3058 	ldr	r3, [pc, #88]	@ 3000127c <InitTimer4+0x10c>
30001220:	e5933000 	ldr	r3, [r3]
30001224:	e59f2050 	ldr	r2, [pc, #80]	@ 3000127c <InitTimer4+0x10c>
30001228:	e3c33602 	bic	r3, r3, #2097152	@ 0x200000
3000122c:	e5823000 	str	r3, [r2]

    // 8.  &  (Start + Auto Reload)
    // TCON Bit 20: Start, Bit 22: Auto Reload
    rTCON |=  (1 << 20) | (1 << 22);
30001230:	e59f3044 	ldr	r3, [pc, #68]	@ 3000127c <InitTimer4+0x10c>
30001234:	e5933000 	ldr	r3, [r3]
30001238:	e59f203c 	ldr	r2, [pc, #60]	@ 3000127c <InitTimer4+0x10c>
3000123c:	e3833605 	orr	r3, r3, #5242880	@ 0x500000
30001240:	e5823000 	str	r3, [r2]

    // 9.  (Unmask Timer 4 Interrupt)
    // INTMSK Bit 14: Timer 4
    rINTMSK &= ~(1 << 14);
30001244:	e59f3034 	ldr	r3, [pc, #52]	@ 30001280 <InitTimer4+0x110>
30001248:	e5933000 	ldr	r3, [r3]
3000124c:	e59f202c 	ldr	r2, [pc, #44]	@ 30001280 <InitTimer4+0x110>
30001250:	e3c33901 	bic	r3, r3, #16384	@ 0x4000
30001254:	e5823000 	str	r3, [r2]
30001258:	e1a00000 	nop			@ (mov r0, r0)
3000125c:	e28bd000 	add	sp, fp, #0
30001260:	e49db004 	pop	{fp}		@ (ldr fp, [sp], #4)
30001264:	e12fff1e 	bx	lr
30001268:	33ffff58 	.word	0x33ffff58
3000126c:	300003cc 	.word	0x300003cc
30001270:	4a000010 	.word	0x4a000010
30001274:	51000004 	.word	0x51000004
30001278:	5100003c 	.word	0x5100003c
3000127c:	51000008 	.word	0x51000008
30001280:	4a000008 	.word	0x4a000008

30001284 <Uart_Init>:
#include "includes.h"

//  UART0
void Uart_Init(int pclk, int baud)
{
30001284:	e92d4800 	push	{fp, lr}
30001288:	e28db004 	add	fp, sp, #4
3000128c:	e24dd010 	sub	sp, sp, #16
30001290:	e50b0010 	str	r0, [fp, #-16]
30001294:	e50b1014 	str	r1, [fp, #-20]	@ 0xffffffec
    int i;
    // 1.  GPIO (GPH2=TXD0, GPH3=RXD0)
    rGPHCON &= ~((3<<4) | (3<<6));
30001298:	e59f30c0 	ldr	r3, [pc, #192]	@ 30001360 <Uart_Init+0xdc>
3000129c:	e5933000 	ldr	r3, [r3]
300012a0:	e59f20b8 	ldr	r2, [pc, #184]	@ 30001360 <Uart_Init+0xdc>
300012a4:	e3c330f0 	bic	r3, r3, #240	@ 0xf0
300012a8:	e5823000 	str	r3, [r2]
    rGPHCON |=  ((2<<4) | (2<<6));
300012ac:	e59f30ac 	ldr	r3, [pc, #172]	@ 30001360 <Uart_Init+0xdc>
300012b0:	e5933000 	ldr	r3, [r3]
300012b4:	e59f20a4 	ldr	r2, [pc, #164]	@ 30001360 <Uart_Init+0xdc>
300012b8:	e38330a0 	orr	r3, r3, #160	@ 0xa0
300012bc:	e5823000 	str	r3, [r2]
    rGPHUP  &= ~((1<<2) | (1<<3));  // 
300012c0:	e59f309c 	ldr	r3, [pc, #156]	@ 30001364 <Uart_Init+0xe0>
300012c4:	e5933000 	ldr	r3, [r3]
300012c8:	e59f2094 	ldr	r2, [pc, #148]	@ 30001364 <Uart_Init+0xe0>
300012cc:	e3c3300c 	bic	r3, r3, #12
300012d0:	e5823000 	str	r3, [r2]

    // 2.  UART 
    rULCON0 = 0x3;  // 8N1: 8, , 1
300012d4:	e3a03205 	mov	r3, #1342177280	@ 0x50000000
300012d8:	e3a02003 	mov	r2, #3
300012dc:	e5832000 	str	r2, [r3]
    rUCON0  = 0x5;  //  
300012e0:	e3a03245 	mov	r3, #1342177284	@ 0x50000004
300012e4:	e3a02005 	mov	r2, #5
300012e8:	e5832000 	str	r2, [r3]
    rUFCON0 = 0x0;  //  FIFO
300012ec:	e3a03285 	mov	r3, #1342177288	@ 0x50000008
300012f0:	e3a02000 	mov	r2, #0
300012f4:	e5832000 	str	r2, [r3]
    rUMCON0 = 0x0;  // 
300012f8:	e3a032c5 	mov	r3, #1342177292	@ 0x5000000c
300012fc:	e3a02000 	mov	r2, #0
30001300:	e5832000 	str	r2, [r3]

    // 3.  115200
    rUBRDIV0 = (int)(pclk / (baud * 16)) - 1;
30001304:	e51b3014 	ldr	r3, [fp, #-20]	@ 0xffffffec
30001308:	e1a03203 	lsl	r3, r3, #4
3000130c:	e1a01003 	mov	r1, r3
30001310:	e51b0010 	ldr	r0, [fp, #-16]
30001314:	eb001a24 	bl	30007bac <__divsi3>
30001318:	e1a03000 	mov	r3, r0
3000131c:	e2432001 	sub	r2, r3, #1
30001320:	e59f3040 	ldr	r3, [pc, #64]	@ 30001368 <Uart_Init+0xe4>
30001324:	e5832000 	str	r2, [r3]

    // 
    for(i=0; i<100; i++);
30001328:	e3a03000 	mov	r3, #0
3000132c:	e50b3008 	str	r3, [fp, #-8]
30001330:	ea000002 	b	30001340 <Uart_Init+0xbc>
30001334:	e51b3008 	ldr	r3, [fp, #-8]
30001338:	e2833001 	add	r3, r3, #1
3000133c:	e50b3008 	str	r3, [fp, #-8]
30001340:	e51b3008 	ldr	r3, [fp, #-8]
30001344:	e3530063 	cmp	r3, #99	@ 0x63
30001348:	dafffff9 	ble	30001334 <Uart_Init+0xb0>
}
3000134c:	e1a00000 	nop			@ (mov r0, r0)
30001350:	e1a00000 	nop			@ (mov r0, r0)
30001354:	e24bd004 	sub	sp, fp, #4
30001358:	e8bd4800 	pop	{fp, lr}
3000135c:	e12fff1e 	bx	lr
30001360:	56000070 	.word	0x56000070
30001364:	56000078 	.word	0x56000078
30001368:	50000028 	.word	0x50000028

3000136c <Uart_SendByte>:

// 
void Uart_SendByte(char c)
{
3000136c:	e52db004 	push	{fp}		@ (str fp, [sp, #-4]!)
30001370:	e28db000 	add	fp, sp, #0
30001374:	e24dd00c 	sub	sp, sp, #12
30001378:	e1a03000 	mov	r3, r0
3000137c:	e54b3005 	strb	r3, [fp, #-5]
    if(c == '\n')
30001380:	e55b3005 	ldrb	r3, [fp, #-5]
30001384:	e353000a 	cmp	r3, #10
30001388:	1a000008 	bne	300013b0 <Uart_SendByte+0x44>
    {
        while(!(rUTRSTAT0 & 0x2)); // 
3000138c:	e1a00000 	nop			@ (mov r0, r0)
30001390:	e59f304c 	ldr	r3, [pc, #76]	@ 300013e4 <Uart_SendByte+0x78>
30001394:	e5933000 	ldr	r3, [r3]
30001398:	e2033002 	and	r3, r3, #2
3000139c:	e3530000 	cmp	r3, #0
300013a0:	0afffffa 	beq	30001390 <Uart_SendByte+0x24>
        rUTXH0 = '\r';             // 
300013a4:	e59f303c 	ldr	r3, [pc, #60]	@ 300013e8 <Uart_SendByte+0x7c>
300013a8:	e3a0200d 	mov	r2, #13
300013ac:	e5832000 	str	r2, [r3]
    }
    while(!(rUTRSTAT0 & 0x2));     // 
300013b0:	e1a00000 	nop			@ (mov r0, r0)
300013b4:	e59f3028 	ldr	r3, [pc, #40]	@ 300013e4 <Uart_SendByte+0x78>
300013b8:	e5933000 	ldr	r3, [r3]
300013bc:	e2033002 	and	r3, r3, #2
300013c0:	e3530000 	cmp	r3, #0
300013c4:	0afffffa 	beq	300013b4 <Uart_SendByte+0x48>
    rUTXH0 = c;                    // 
300013c8:	e59f2018 	ldr	r2, [pc, #24]	@ 300013e8 <Uart_SendByte+0x7c>
300013cc:	e55b3005 	ldrb	r3, [fp, #-5]
300013d0:	e5823000 	str	r3, [r2]
}
300013d4:	e1a00000 	nop			@ (mov r0, r0)
300013d8:	e28bd000 	add	sp, fp, #0
300013dc:	e49db004 	pop	{fp}		@ (ldr fp, [sp], #4)
300013e0:	e12fff1e 	bx	lr
300013e4:	50000010 	.word	0x50000010
300013e8:	50000020 	.word	0x50000020

300013ec <int_to_str>:

// 
static void int_to_str(int num, char *str, int pad_width)
{
300013ec:	e52db004 	push	{fp}		@ (str fp, [sp, #-4]!)
300013f0:	e28db000 	add	fp, sp, #0
300013f4:	e24dd034 	sub	sp, sp, #52	@ 0x34
300013f8:	e50b0028 	str	r0, [fp, #-40]	@ 0xffffffd8
300013fc:	e50b102c 	str	r1, [fp, #-44]	@ 0xffffffd4
30001400:	e50b2030 	str	r2, [fp, #-48]	@ 0xffffffd0
    char buf[16];
    int i = 0, is_neg = 0;
30001404:	e3a03000 	mov	r3, #0
30001408:	e50b3008 	str	r3, [fp, #-8]
3000140c:	e3a03000 	mov	r3, #0
30001410:	e50b300c 	str	r3, [fp, #-12]
    
    if (num < 0) {
30001414:	e51b3028 	ldr	r3, [fp, #-40]	@ 0xffffffd8
30001418:	e3530000 	cmp	r3, #0
3000141c:	aa000004 	bge	30001434 <int_to_str+0x48>
        is_neg = 1;
30001420:	e3a03001 	mov	r3, #1
30001424:	e50b300c 	str	r3, [fp, #-12]
        num = -num;
30001428:	e51b3028 	ldr	r3, [fp, #-40]	@ 0xffffffd8
3000142c:	e2633000 	rsb	r3, r3, #0
30001430:	e50b3028 	str	r3, [fp, #-40]	@ 0xffffffd8
    }
    
    if (num == 0) {
30001434:	e51b3028 	ldr	r3, [fp, #-40]	@ 0xffffffd8
30001438:	e3530000 	cmp	r3, #0
3000143c:	1a000022 	bne	300014cc <int_to_str+0xe0>
        buf[i++] = '0';
30001440:	e51b3008 	ldr	r3, [fp, #-8]
30001444:	e2832001 	add	r2, r3, #1
30001448:	e50b2008 	str	r2, [fp, #-8]
3000144c:	e2433004 	sub	r3, r3, #4
30001450:	e083300b 	add	r3, r3, fp
30001454:	e3a02030 	mov	r2, #48	@ 0x30
30001458:	e5432020 	strb	r2, [r3, #-32]	@ 0xffffffe0
3000145c:	ea00001d 	b	300014d8 <int_to_str+0xec>
    } else {
        while (num > 0) {
            buf[i++] = '0' + (num % 10);
30001460:	e51b1028 	ldr	r1, [fp, #-40]	@ 0xffffffd8
30001464:	e59f3170 	ldr	r3, [pc, #368]	@ 300015dc <int_to_str+0x1f0>
30001468:	e0c32391 	smull	r2, r3, r1, r3
3000146c:	e1a02143 	asr	r2, r3, #2
30001470:	e1a03fc1 	asr	r3, r1, #31
30001474:	e0422003 	sub	r2, r2, r3
30001478:	e1a03002 	mov	r3, r2
3000147c:	e1a03103 	lsl	r3, r3, #2
30001480:	e0833002 	add	r3, r3, r2
30001484:	e1a03083 	lsl	r3, r3, #1
30001488:	e0412003 	sub	r2, r1, r3
3000148c:	e20220ff 	and	r2, r2, #255	@ 0xff
30001490:	e51b3008 	ldr	r3, [fp, #-8]
30001494:	e2831001 	add	r1, r3, #1
30001498:	e50b1008 	str	r1, [fp, #-8]
3000149c:	e2822030 	add	r2, r2, #48	@ 0x30
300014a0:	e20220ff 	and	r2, r2, #255	@ 0xff
300014a4:	e2433004 	sub	r3, r3, #4
300014a8:	e083300b 	add	r3, r3, fp
300014ac:	e5432020 	strb	r2, [r3, #-32]	@ 0xffffffe0
            num /= 10;
300014b0:	e51b3028 	ldr	r3, [fp, #-40]	@ 0xffffffd8
300014b4:	e59f2120 	ldr	r2, [pc, #288]	@ 300015dc <int_to_str+0x1f0>
300014b8:	e0c21293 	smull	r1, r2, r3, r2
300014bc:	e1a02142 	asr	r2, r2, #2
300014c0:	e1a03fc3 	asr	r3, r3, #31
300014c4:	e0423003 	sub	r3, r2, r3
300014c8:	e50b3028 	str	r3, [fp, #-40]	@ 0xffffffd8
        while (num > 0) {
300014cc:	e51b3028 	ldr	r3, [fp, #-40]	@ 0xffffffd8
300014d0:	e3530000 	cmp	r3, #0
300014d4:	caffffe1 	bgt	30001460 <int_to_str+0x74>
        }
    }
    
    if (is_neg) {
300014d8:	e51b300c 	ldr	r3, [fp, #-12]
300014dc:	e3530000 	cmp	r3, #0
300014e0:	0a00001f 	beq	30001564 <int_to_str+0x178>
        str[0] = '-';
300014e4:	e51b302c 	ldr	r3, [fp, #-44]	@ 0xffffffd4
300014e8:	e3a0202d 	mov	r2, #45	@ 0x2d
300014ec:	e5c32000 	strb	r2, [r3]
        for (int j = 0; j < i; j++) {
300014f0:	e3a03000 	mov	r3, #0
300014f4:	e50b3010 	str	r3, [fp, #-16]
300014f8:	ea00000e 	b	30001538 <int_to_str+0x14c>
            str[j + 1] = buf[i - 1 - j];
300014fc:	e51b3008 	ldr	r3, [fp, #-8]
30001500:	e2432001 	sub	r2, r3, #1
30001504:	e51b3010 	ldr	r3, [fp, #-16]
30001508:	e0422003 	sub	r2, r2, r3
3000150c:	e51b3010 	ldr	r3, [fp, #-16]
30001510:	e2833001 	add	r3, r3, #1
30001514:	e51b102c 	ldr	r1, [fp, #-44]	@ 0xffffffd4
30001518:	e0813003 	add	r3, r1, r3
3000151c:	e2422004 	sub	r2, r2, #4
30001520:	e082200b 	add	r2, r2, fp
30001524:	e5522020 	ldrb	r2, [r2, #-32]	@ 0xffffffe0
30001528:	e5c32000 	strb	r2, [r3]
        for (int j = 0; j < i; j++) {
3000152c:	e51b3010 	ldr	r3, [fp, #-16]
30001530:	e2833001 	add	r3, r3, #1
30001534:	e50b3010 	str	r3, [fp, #-16]
30001538:	e51b2010 	ldr	r2, [fp, #-16]
3000153c:	e51b3008 	ldr	r3, [fp, #-8]
30001540:	e1520003 	cmp	r2, r3
30001544:	baffffec 	blt	300014fc <int_to_str+0x110>
        }
        str[i + 1] = '\0';
30001548:	e51b3008 	ldr	r3, [fp, #-8]
3000154c:	e2833001 	add	r3, r3, #1
30001550:	e51b202c 	ldr	r2, [fp, #-44]	@ 0xffffffd4
30001554:	e0823003 	add	r3, r2, r3
30001558:	e3a02000 	mov	r2, #0
3000155c:	e5c32000 	strb	r2, [r3]
        for (int j = 0; j < i; j++) {
            str[j] = buf[i - 1 - j];
        }
        str[i] = '\0';
    }
}
30001560:	ea000019 	b	300015cc <int_to_str+0x1e0>
        for (int j = 0; j < i; j++) {
30001564:	e3a03000 	mov	r3, #0
30001568:	e50b3014 	str	r3, [fp, #-20]	@ 0xffffffec
3000156c:	ea00000d 	b	300015a8 <int_to_str+0x1bc>
            str[j] = buf[i - 1 - j];
30001570:	e51b3008 	ldr	r3, [fp, #-8]
30001574:	e2432001 	sub	r2, r3, #1
30001578:	e51b3014 	ldr	r3, [fp, #-20]	@ 0xffffffec
3000157c:	e0422003 	sub	r2, r2, r3
30001580:	e51b3014 	ldr	r3, [fp, #-20]	@ 0xffffffec
30001584:	e51b102c 	ldr	r1, [fp, #-44]	@ 0xffffffd4
30001588:	e0813003 	add	r3, r1, r3
3000158c:	e2422004 	sub	r2, r2, #4
30001590:	e082200b 	add	r2, r2, fp
30001594:	e5522020 	ldrb	r2, [r2, #-32]	@ 0xffffffe0
30001598:	e5c32000 	strb	r2, [r3]
        for (int j = 0; j < i; j++) {
3000159c:	e51b3014 	ldr	r3, [fp, #-20]	@ 0xffffffec
300015a0:	e2833001 	add	r3, r3, #1
300015a4:	e50b3014 	str	r3, [fp, #-20]	@ 0xffffffec
300015a8:	e51b2014 	ldr	r2, [fp, #-20]	@ 0xffffffec
300015ac:	e51b3008 	ldr	r3, [fp, #-8]
300015b0:	e1520003 	cmp	r2, r3
300015b4:	baffffed 	blt	30001570 <int_to_str+0x184>
        str[i] = '\0';
300015b8:	e51b3008 	ldr	r3, [fp, #-8]
300015bc:	e51b202c 	ldr	r2, [fp, #-44]	@ 0xffffffd4
300015c0:	e0823003 	add	r3, r2, r3
300015c4:	e3a02000 	mov	r2, #0
300015c8:	e5c32000 	strb	r2, [r3]
}
300015cc:	e1a00000 	nop			@ (mov r0, r0)
300015d0:	e28bd000 	add	sp, fp, #0
300015d4:	e49db004 	pop	{fp}		@ (ldr fp, [sp], #4)
300015d8:	e12fff1e 	bx	lr
300015dc:	66666667 	.word	0x66666667

300015e0 <hex_to_str>:

// 
static void hex_to_str(unsigned int num, char *str)
{
300015e0:	e52db004 	push	{fp}		@ (str fp, [sp, #-4]!)
300015e4:	e28db000 	add	fp, sp, #0
300015e8:	e24dd02c 	sub	sp, sp, #44	@ 0x2c
300015ec:	e50b0028 	str	r0, [fp, #-40]	@ 0xffffffd8
300015f0:	e50b102c 	str	r1, [fp, #-44]	@ 0xffffffd4
    char buf[16];
    int i = 0;
300015f4:	e3a03000 	mov	r3, #0
300015f8:	e50b3008 	str	r3, [fp, #-8]
    const char *hex = "0123456789abcdef";
300015fc:	e59f30e4 	ldr	r3, [pc, #228]	@ 300016e8 <hex_to_str+0x108>
30001600:	e50b3010 	str	r3, [fp, #-16]
    
    if (num == 0) {
30001604:	e51b3028 	ldr	r3, [fp, #-40]	@ 0xffffffd8
30001608:	e3530000 	cmp	r3, #0
3000160c:	1a000015 	bne	30001668 <hex_to_str+0x88>
        str[0] = '0';
30001610:	e51b302c 	ldr	r3, [fp, #-44]	@ 0xffffffd4
30001614:	e3a02030 	mov	r2, #48	@ 0x30
30001618:	e5c32000 	strb	r2, [r3]
        str[1] = '\0';
3000161c:	e51b302c 	ldr	r3, [fp, #-44]	@ 0xffffffd4
30001620:	e2833001 	add	r3, r3, #1
30001624:	e3a02000 	mov	r2, #0
30001628:	e5c32000 	strb	r2, [r3]
3000162c:	ea00002a 	b	300016dc <hex_to_str+0xfc>
        return;
    }
    
    while (num > 0) {
        buf[i++] = hex[num & 0xf];
30001630:	e51b3028 	ldr	r3, [fp, #-40]	@ 0xffffffd8
30001634:	e203300f 	and	r3, r3, #15
30001638:	e51b2010 	ldr	r2, [fp, #-16]
3000163c:	e0822003 	add	r2, r2, r3
30001640:	e51b3008 	ldr	r3, [fp, #-8]
30001644:	e2831001 	add	r1, r3, #1
30001648:	e50b1008 	str	r1, [fp, #-8]
3000164c:	e5d22000 	ldrb	r2, [r2]
30001650:	e2433004 	sub	r3, r3, #4
30001654:	e083300b 	add	r3, r3, fp
30001658:	e543201c 	strb	r2, [r3, #-28]	@ 0xffffffe4
        num >>= 4;
3000165c:	e51b3028 	ldr	r3, [fp, #-40]	@ 0xffffffd8
30001660:	e1a03223 	lsr	r3, r3, #4
30001664:	e50b3028 	str	r3, [fp, #-40]	@ 0xffffffd8
    while (num > 0) {
30001668:	e51b3028 	ldr	r3, [fp, #-40]	@ 0xffffffd8
3000166c:	e3530000 	cmp	r3, #0
30001670:	1affffee 	bne	30001630 <hex_to_str+0x50>
    }
    
    for (int j = 0; j < i; j++) {
30001674:	e3a03000 	mov	r3, #0
30001678:	e50b300c 	str	r3, [fp, #-12]
3000167c:	ea00000d 	b	300016b8 <hex_to_str+0xd8>
        str[j] = buf[i - 1 - j];
30001680:	e51b3008 	ldr	r3, [fp, #-8]
30001684:	e2432001 	sub	r2, r3, #1
30001688:	e51b300c 	ldr	r3, [fp, #-12]
3000168c:	e0422003 	sub	r2, r2, r3
30001690:	e51b300c 	ldr	r3, [fp, #-12]
30001694:	e51b102c 	ldr	r1, [fp, #-44]	@ 0xffffffd4
30001698:	e0813003 	add	r3, r1, r3
3000169c:	e2422004 	sub	r2, r2, #4
300016a0:	e082200b 	add	r2, r2, fp
300016a4:	e552201c 	ldrb	r2, [r2, #-28]	@ 0xffffffe4
300016a8:	e5c32000 	strb	r2, [r3]
    for (int j = 0; j < i; j++) {
300016ac:	e51b300c 	ldr	r3, [fp, #-12]
300016b0:	e2833001 	add	r3, r3, #1
300016b4:	e50b300c 	str	r3, [fp, #-12]
300016b8:	e51b200c 	ldr	r2, [fp, #-12]
300016bc:	e51b3008 	ldr	r3, [fp, #-8]
300016c0:	e1520003 	cmp	r2, r3
300016c4:	baffffed 	blt	30001680 <hex_to_str+0xa0>
    }
    str[i] = '\0';
300016c8:	e51b3008 	ldr	r3, [fp, #-8]
300016cc:	e51b202c 	ldr	r2, [fp, #-44]	@ 0xffffffd4
300016d0:	e0823003 	add	r3, r2, r3
300016d4:	e3a02000 	mov	r2, #0
300016d8:	e5c32000 	strb	r2, [r3]
}
300016dc:	e28bd000 	add	sp, fp, #0
300016e0:	e49db004 	pop	{fp}		@ (ldr fp, [sp], #4)
300016e4:	e12fff1e 	bx	lr
300016e8:	30007e80 	.word	0x30007e80

300016ec <Uart_Printf>:

//  %d, %x, %c, %s, %%
void Uart_Printf(const char *fmt, ...)
{
300016ec:	e92d000f 	push	{r0, r1, r2, r3}
300016f0:	e92d4800 	push	{fp, lr}
300016f4:	e28db004 	add	fp, sp, #4
300016f8:	e24dde15 	sub	sp, sp, #336	@ 0x150
    va_list args;
    char buf[256];
    char tmp[32];
    char *p = buf;
300016fc:	e24b3e13 	sub	r3, fp, #304	@ 0x130
30001700:	e50b3008 	str	r3, [fp, #-8]
    const char *s = fmt;
30001704:	e59b3004 	ldr	r3, [fp, #4]
30001708:	e50b300c 	str	r3, [fp, #-12]
    int len = 0;
3000170c:	e3a03000 	mov	r3, #0
30001710:	e50b3010 	str	r3, [fp, #-16]
    
    va_start(args, fmt);
30001714:	e28b3008 	add	r3, fp, #8
30001718:	e50b3030 	str	r3, [fp, #-48]	@ 0xffffffd0
    
    while (*s && len < 255) {
3000171c:	ea0000c4 	b	30001a34 <Uart_Printf+0x348>
        if (*s == '%') {
30001720:	e51b300c 	ldr	r3, [fp, #-12]
30001724:	e5d33000 	ldrb	r3, [r3]
30001728:	e3530025 	cmp	r3, #37	@ 0x25
3000172c:	1a00009a 	bne	3000199c <Uart_Printf+0x2b0>
            s++;
30001730:	e51b300c 	ldr	r3, [fp, #-12]
30001734:	e2833001 	add	r3, r3, #1
30001738:	e50b300c 	str	r3, [fp, #-12]
            if (*s == '%') {
3000173c:	e51b300c 	ldr	r3, [fp, #-12]
30001740:	e5d33000 	ldrb	r3, [r3]
30001744:	e3530025 	cmp	r3, #37	@ 0x25
30001748:	1a000008 	bne	30001770 <Uart_Printf+0x84>
                // %% -> %
                *p++ = '%';
3000174c:	e51b3008 	ldr	r3, [fp, #-8]
30001750:	e2832001 	add	r2, r3, #1
30001754:	e50b2008 	str	r2, [fp, #-8]
30001758:	e3a02025 	mov	r2, #37	@ 0x25
3000175c:	e5c32000 	strb	r2, [r3]
                len++;
30001760:	e51b3010 	ldr	r3, [fp, #-16]
30001764:	e2833001 	add	r3, r3, #1
30001768:	e50b3010 	str	r3, [fp, #-16]
3000176c:	ea000086 	b	3000198c <Uart_Printf+0x2a0>
            } else if (*s == 'd') {
30001770:	e51b300c 	ldr	r3, [fp, #-12]
30001774:	e5d33000 	ldrb	r3, [r3]
30001778:	e3530064 	cmp	r3, #100	@ 0x64
3000177c:	1a000023 	bne	30001810 <Uart_Printf+0x124>
                // 
                int val = va_arg(args, int);
30001780:	e51b3030 	ldr	r3, [fp, #-48]	@ 0xffffffd0
30001784:	e2832004 	add	r2, r3, #4
30001788:	e50b2030 	str	r2, [fp, #-48]	@ 0xffffffd0
3000178c:	e5933000 	ldr	r3, [r3]
30001790:	e50b302c 	str	r3, [fp, #-44]	@ 0xffffffd4
                int_to_str(val, tmp, 0);
30001794:	e24b3e15 	sub	r3, fp, #336	@ 0x150
30001798:	e3a02000 	mov	r2, #0
3000179c:	e1a01003 	mov	r1, r3
300017a0:	e51b002c 	ldr	r0, [fp, #-44]	@ 0xffffffd4
300017a4:	ebffff10 	bl	300013ec <int_to_str>
                int i = 0;
300017a8:	e3a03000 	mov	r3, #0
300017ac:	e50b3014 	str	r3, [fp, #-20]	@ 0xffffffec
                while (tmp[i] && len < 255) {
300017b0:	ea00000c 	b	300017e8 <Uart_Printf+0xfc>
                    *p++ = tmp[i++];
300017b4:	e51b2014 	ldr	r2, [fp, #-20]	@ 0xffffffec
300017b8:	e2823001 	add	r3, r2, #1
300017bc:	e50b3014 	str	r3, [fp, #-20]	@ 0xffffffec
300017c0:	e51b3008 	ldr	r3, [fp, #-8]
300017c4:	e2831001 	add	r1, r3, #1
300017c8:	e50b1008 	str	r1, [fp, #-8]
300017cc:	e2422004 	sub	r2, r2, #4
300017d0:	e082200b 	add	r2, r2, fp
300017d4:	e552214c 	ldrb	r2, [r2, #-332]	@ 0xfffffeb4
300017d8:	e5c32000 	strb	r2, [r3]
                    len++;
300017dc:	e51b3010 	ldr	r3, [fp, #-16]
300017e0:	e2833001 	add	r3, r3, #1
300017e4:	e50b3010 	str	r3, [fp, #-16]
                while (tmp[i] && len < 255) {
300017e8:	e24b2e15 	sub	r2, fp, #336	@ 0x150
300017ec:	e51b3014 	ldr	r3, [fp, #-20]	@ 0xffffffec
300017f0:	e0823003 	add	r3, r2, r3
300017f4:	e5d33000 	ldrb	r3, [r3]
300017f8:	e3530000 	cmp	r3, #0
300017fc:	0a000062 	beq	3000198c <Uart_Printf+0x2a0>
30001800:	e51b3010 	ldr	r3, [fp, #-16]
30001804:	e35300fe 	cmp	r3, #254	@ 0xfe
30001808:	daffffe9 	ble	300017b4 <Uart_Printf+0xc8>
3000180c:	ea00005e 	b	3000198c <Uart_Printf+0x2a0>
                }
            } else if (*s == 'x') {
30001810:	e51b300c 	ldr	r3, [fp, #-12]
30001814:	e5d33000 	ldrb	r3, [r3]
30001818:	e3530078 	cmp	r3, #120	@ 0x78
3000181c:	1a000022 	bne	300018ac <Uart_Printf+0x1c0>
                // 
                unsigned int val = va_arg(args, unsigned int);
30001820:	e51b3030 	ldr	r3, [fp, #-48]	@ 0xffffffd0
30001824:	e2832004 	add	r2, r3, #4
30001828:	e50b2030 	str	r2, [fp, #-48]	@ 0xffffffd0
3000182c:	e5933000 	ldr	r3, [r3]
30001830:	e50b3028 	str	r3, [fp, #-40]	@ 0xffffffd8
                hex_to_str(val, tmp);
30001834:	e24b3e15 	sub	r3, fp, #336	@ 0x150
30001838:	e1a01003 	mov	r1, r3
3000183c:	e51b0028 	ldr	r0, [fp, #-40]	@ 0xffffffd8
30001840:	ebffff66 	bl	300015e0 <hex_to_str>
                int i = 0;
30001844:	e3a03000 	mov	r3, #0
30001848:	e50b3018 	str	r3, [fp, #-24]	@ 0xffffffe8
                while (tmp[i] && len < 255) {
3000184c:	ea00000c 	b	30001884 <Uart_Printf+0x198>
                    *p++ = tmp[i++];
30001850:	e51b2018 	ldr	r2, [fp, #-24]	@ 0xffffffe8
30001854:	e2823001 	add	r3, r2, #1
30001858:	e50b3018 	str	r3, [fp, #-24]	@ 0xffffffe8
3000185c:	e51b3008 	ldr	r3, [fp, #-8]
30001860:	e2831001 	add	r1, r3, #1
30001864:	e50b1008 	str	r1, [fp, #-8]
30001868:	e2422004 	sub	r2, r2, #4
3000186c:	e082200b 	add	r2, r2, fp
30001870:	e552214c 	ldrb	r2, [r2, #-332]	@ 0xfffffeb4
30001874:	e5c32000 	strb	r2, [r3]
                    len++;
30001878:	e51b3010 	ldr	r3, [fp, #-16]
3000187c:	e2833001 	add	r3, r3, #1
30001880:	e50b3010 	str	r3, [fp, #-16]
                while (tmp[i] && len < 255) {
30001884:	e24b2e15 	sub	r2, fp, #336	@ 0x150
30001888:	e51b3018 	ldr	r3, [fp, #-24]	@ 0xffffffe8
3000188c:	e0823003 	add	r3, r2, r3
30001890:	e5d33000 	ldrb	r3, [r3]
30001894:	e3530000 	cmp	r3, #0
30001898:	0a00003b 	beq	3000198c <Uart_Printf+0x2a0>
3000189c:	e51b3010 	ldr	r3, [fp, #-16]
300018a0:	e35300fe 	cmp	r3, #254	@ 0xfe
300018a4:	daffffe9 	ble	30001850 <Uart_Printf+0x164>
300018a8:	ea000037 	b	3000198c <Uart_Printf+0x2a0>
                }
            } else if (*s == 'c') {
300018ac:	e51b300c 	ldr	r3, [fp, #-12]
300018b0:	e5d33000 	ldrb	r3, [r3]
300018b4:	e3530063 	cmp	r3, #99	@ 0x63
300018b8:	1a00000d 	bne	300018f4 <Uart_Printf+0x208>
                // 
                char c = va_arg(args, int);
300018bc:	e51b3030 	ldr	r3, [fp, #-48]	@ 0xffffffd0
300018c0:	e2832004 	add	r2, r3, #4
300018c4:	e50b2030 	str	r2, [fp, #-48]	@ 0xffffffd0
300018c8:	e5933000 	ldr	r3, [r3]
300018cc:	e54b3021 	strb	r3, [fp, #-33]	@ 0xffffffdf
                *p++ = c;
300018d0:	e51b3008 	ldr	r3, [fp, #-8]
300018d4:	e2832001 	add	r2, r3, #1
300018d8:	e50b2008 	str	r2, [fp, #-8]
300018dc:	e55b2021 	ldrb	r2, [fp, #-33]	@ 0xffffffdf
300018e0:	e5c32000 	strb	r2, [r3]
                len++;
300018e4:	e51b3010 	ldr	r3, [fp, #-16]
300018e8:	e2833001 	add	r3, r3, #1
300018ec:	e50b3010 	str	r3, [fp, #-16]
300018f0:	ea000025 	b	3000198c <Uart_Printf+0x2a0>
            } else if (*s == 's') {
300018f4:	e51b300c 	ldr	r3, [fp, #-12]
300018f8:	e5d33000 	ldrb	r3, [r3]
300018fc:	e3530073 	cmp	r3, #115	@ 0x73
30001900:	1a000018 	bne	30001968 <Uart_Printf+0x27c>
                // 
                const char *str = va_arg(args, const char *);
30001904:	e51b3030 	ldr	r3, [fp, #-48]	@ 0xffffffd0
30001908:	e2832004 	add	r2, r3, #4
3000190c:	e50b2030 	str	r2, [fp, #-48]	@ 0xffffffd0
30001910:	e5933000 	ldr	r3, [r3]
30001914:	e50b301c 	str	r3, [fp, #-28]	@ 0xffffffe4
                while (*str && len < 255) {
30001918:	ea00000a 	b	30001948 <Uart_Printf+0x25c>
                    *p++ = *str++;
3000191c:	e51b201c 	ldr	r2, [fp, #-28]	@ 0xffffffe4
30001920:	e2823001 	add	r3, r2, #1
30001924:	e50b301c 	str	r3, [fp, #-28]	@ 0xffffffe4
30001928:	e51b3008 	ldr	r3, [fp, #-8]
3000192c:	e2831001 	add	r1, r3, #1
30001930:	e50b1008 	str	r1, [fp, #-8]
30001934:	e5d22000 	ldrb	r2, [r2]
30001938:	e5c32000 	strb	r2, [r3]
                    len++;
3000193c:	e51b3010 	ldr	r3, [fp, #-16]
30001940:	e2833001 	add	r3, r3, #1
30001944:	e50b3010 	str	r3, [fp, #-16]
                while (*str && len < 255) {
30001948:	e51b301c 	ldr	r3, [fp, #-28]	@ 0xffffffe4
3000194c:	e5d33000 	ldrb	r3, [r3]
30001950:	e3530000 	cmp	r3, #0
30001954:	0a00000c 	beq	3000198c <Uart_Printf+0x2a0>
30001958:	e51b3010 	ldr	r3, [fp, #-16]
3000195c:	e35300fe 	cmp	r3, #254	@ 0xfe
30001960:	daffffed 	ble	3000191c <Uart_Printf+0x230>
30001964:	ea000008 	b	3000198c <Uart_Printf+0x2a0>
                }
            } else {
                *p++ = *s;
30001968:	e51b3008 	ldr	r3, [fp, #-8]
3000196c:	e2832001 	add	r2, r3, #1
30001970:	e50b2008 	str	r2, [fp, #-8]
30001974:	e51b200c 	ldr	r2, [fp, #-12]
30001978:	e5d22000 	ldrb	r2, [r2]
3000197c:	e5c32000 	strb	r2, [r3]
                len++;
30001980:	e51b3010 	ldr	r3, [fp, #-16]
30001984:	e2833001 	add	r3, r3, #1
30001988:	e50b3010 	str	r3, [fp, #-16]
            }
            s++;
3000198c:	e51b300c 	ldr	r3, [fp, #-12]
30001990:	e2833001 	add	r3, r3, #1
30001994:	e50b300c 	str	r3, [fp, #-12]
30001998:	ea000025 	b	30001a34 <Uart_Printf+0x348>
        } else if (*s == '\n') {
3000199c:	e51b300c 	ldr	r3, [fp, #-12]
300019a0:	e5d33000 	ldrb	r3, [r3]
300019a4:	e353000a 	cmp	r3, #10
300019a8:	1a000016 	bne	30001a08 <Uart_Printf+0x31c>
            *p++ = '\r';
300019ac:	e51b3008 	ldr	r3, [fp, #-8]
300019b0:	e2832001 	add	r2, r3, #1
300019b4:	e50b2008 	str	r2, [fp, #-8]
300019b8:	e3a0200d 	mov	r2, #13
300019bc:	e5c32000 	strb	r2, [r3]
            len++;
300019c0:	e51b3010 	ldr	r3, [fp, #-16]
300019c4:	e2833001 	add	r3, r3, #1
300019c8:	e50b3010 	str	r3, [fp, #-16]
            if (len < 255) {
300019cc:	e51b3010 	ldr	r3, [fp, #-16]
300019d0:	e35300fe 	cmp	r3, #254	@ 0xfe
300019d4:	ca000007 	bgt	300019f8 <Uart_Printf+0x30c>
                *p++ = '\n';
300019d8:	e51b3008 	ldr	r3, [fp, #-8]
300019dc:	e2832001 	add	r2, r3, #1
300019e0:	e50b2008 	str	r2, [fp, #-8]
300019e4:	e3a0200a 	mov	r2, #10
300019e8:	e5c32000 	strb	r2, [r3]
                len++;
300019ec:	e51b3010 	ldr	r3, [fp, #-16]
300019f0:	e2833001 	add	r3, r3, #1
300019f4:	e50b3010 	str	r3, [fp, #-16]
            }
            s++;
300019f8:	e51b300c 	ldr	r3, [fp, #-12]
300019fc:	e2833001 	add	r3, r3, #1
30001a00:	e50b300c 	str	r3, [fp, #-12]
30001a04:	ea00000a 	b	30001a34 <Uart_Printf+0x348>
        } else {
            *p++ = *s++;
30001a08:	e51b200c 	ldr	r2, [fp, #-12]
30001a0c:	e2823001 	add	r3, r2, #1
30001a10:	e50b300c 	str	r3, [fp, #-12]
30001a14:	e51b3008 	ldr	r3, [fp, #-8]
30001a18:	e2831001 	add	r1, r3, #1
30001a1c:	e50b1008 	str	r1, [fp, #-8]
30001a20:	e5d22000 	ldrb	r2, [r2]
30001a24:	e5c32000 	strb	r2, [r3]
            len++;
30001a28:	e51b3010 	ldr	r3, [fp, #-16]
30001a2c:	e2833001 	add	r3, r3, #1
30001a30:	e50b3010 	str	r3, [fp, #-16]
    while (*s && len < 255) {
30001a34:	e51b300c 	ldr	r3, [fp, #-12]
30001a38:	e5d33000 	ldrb	r3, [r3]
30001a3c:	e3530000 	cmp	r3, #0
30001a40:	0a000002 	beq	30001a50 <Uart_Printf+0x364>
30001a44:	e51b3010 	ldr	r3, [fp, #-16]
30001a48:	e35300fe 	cmp	r3, #254	@ 0xfe
30001a4c:	daffff33 	ble	30001720 <Uart_Printf+0x34>
        }
    }
    
    *p = '\0';
30001a50:	e51b3008 	ldr	r3, [fp, #-8]
30001a54:	e3a02000 	mov	r2, #0
30001a58:	e5c32000 	strb	r2, [r3]
    va_end(args);
    
    // 
    int i = 0;
30001a5c:	e3a03000 	mov	r3, #0
30001a60:	e50b3020 	str	r3, [fp, #-32]	@ 0xffffffe0
    while (buf[i] != '\0') {
30001a64:	ea000007 	b	30001a88 <Uart_Printf+0x39c>
        Uart_SendByte(buf[i++]);
30001a68:	e51b3020 	ldr	r3, [fp, #-32]	@ 0xffffffe0
30001a6c:	e2832001 	add	r2, r3, #1
30001a70:	e50b2020 	str	r2, [fp, #-32]	@ 0xffffffe0
30001a74:	e2433004 	sub	r3, r3, #4
30001a78:	e083300b 	add	r3, r3, fp
30001a7c:	e553312c 	ldrb	r3, [r3, #-300]	@ 0xfffffed4
30001a80:	e1a00003 	mov	r0, r3
30001a84:	ebfffe38 	bl	3000136c <Uart_SendByte>
    while (buf[i] != '\0') {
30001a88:	e24b2e13 	sub	r2, fp, #304	@ 0x130
30001a8c:	e51b3020 	ldr	r3, [fp, #-32]	@ 0xffffffe0
30001a90:	e0823003 	add	r3, r2, r3
30001a94:	e5d33000 	ldrb	r3, [r3]
30001a98:	e3530000 	cmp	r3, #0
30001a9c:	1afffff1 	bne	30001a68 <Uart_Printf+0x37c>
    }
}
30001aa0:	e1a00000 	nop			@ (mov r0, r0)
30001aa4:	e1a00000 	nop			@ (mov r0, r0)
30001aa8:	e24bd004 	sub	sp, fp, #4
30001aac:	e8bd4800 	pop	{fp, lr}
30001ab0:	e28dd010 	add	sp, sp, #16
30001ab4:	e12fff1e 	bx	lr

30001ab8 <OS_InitMisc>:
*
* Returns    : none
*******************************************************************************
*/
static void OS_InitMisc(void)
{
30001ab8:	e52db004 	push	{fp}		@ (str fp, [sp, #-4]!)
30001abc:	e28db000 	add	fp, sp, #0
    OSTime        = 0L;                     /* Clear system clock                    */
30001ac0:	e59f308c 	ldr	r3, [pc, #140]	@ 30001b54 <OS_InitMisc+0x9c>
30001ac4:	e3a02000 	mov	r2, #0
30001ac8:	e5832000 	str	r2, [r3]
    OSIntNesting  = 0;                      /* Clear interrupt nesting counter       */
30001acc:	e59f3084 	ldr	r3, [pc, #132]	@ 30001b58 <OS_InitMisc+0xa0>
30001ad0:	e3a02000 	mov	r2, #0
30001ad4:	e5c32000 	strb	r2, [r3]
    OSLockNesting = 0;                      /* Clear scheduling lock counter         */
30001ad8:	e59f307c 	ldr	r3, [pc, #124]	@ 30001b5c <OS_InitMisc+0xa4>
30001adc:	e3a02000 	mov	r2, #0
30001ae0:	e5c32000 	strb	r2, [r3]
    OSTaskCtr     = 0;                      /* Clear task counter                    */
30001ae4:	e59f3074 	ldr	r3, [pc, #116]	@ 30001b60 <OS_InitMisc+0xa8>
30001ae8:	e3a02000 	mov	r2, #0
30001aec:	e5c32000 	strb	r2, [r3]
    OSRunning     = FALSE;                  /* Kernel not started                    */
30001af0:	e59f306c 	ldr	r3, [pc, #108]	@ 30001b64 <OS_InitMisc+0xac>
30001af4:	e3a02000 	mov	r2, #0
30001af8:	e5c32000 	strb	r2, [r3]
    OSCtxSwCtr    = 0;                      /* Clear context switch counter          */
30001afc:	e59f3064 	ldr	r3, [pc, #100]	@ 30001b68 <OS_InitMisc+0xb0>
30001b00:	e3a02000 	mov	r2, #0
30001b04:	e5832000 	str	r2, [r3]
    OSIdleCtr     = 0L;                     /* Clear idle counter                    */
30001b08:	e59f305c 	ldr	r3, [pc, #92]	@ 30001b6c <OS_InitMisc+0xb4>
30001b0c:	e3a02000 	mov	r2, #0
30001b10:	e5832000 	str	r2, [r3]
    OSIdleCtrRun  = 0L;                     /* Clear run idle counter                */
30001b14:	e59f3054 	ldr	r3, [pc, #84]	@ 30001b70 <OS_InitMisc+0xb8>
30001b18:	e3a02000 	mov	r2, #0
30001b1c:	e5832000 	str	r2, [r3]
    OSIdleCtrMax  = 0L;                     /* Clear max idle counter                */
30001b20:	e59f304c 	ldr	r3, [pc, #76]	@ 30001b74 <OS_InitMisc+0xbc>
30001b24:	e3a02000 	mov	r2, #0
30001b28:	e5832000 	str	r2, [r3]
    OSStatRdy     = FALSE;                  /* Statistics task not ready             */
30001b2c:	e59f3044 	ldr	r3, [pc, #68]	@ 30001b78 <OS_InitMisc+0xc0>
30001b30:	e3a02000 	mov	r2, #0
30001b34:	e5c32000 	strb	r2, [r3]
    OSCPUUsage    = 0;                      /* Clear CPU usage                       */
30001b38:	e59f303c 	ldr	r3, [pc, #60]	@ 30001b7c <OS_InitMisc+0xc4>
30001b3c:	e3a02000 	mov	r2, #0
30001b40:	e5c32000 	strb	r2, [r3]
}
30001b44:	e1a00000 	nop			@ (mov r0, r0)
30001b48:	e28bd000 	add	sp, fp, #0
30001b4c:	e49db004 	pop	{fp}		@ (ldr fp, [sp], #4)
30001b50:	e12fff1e 	bx	lr
30001b54:	3000aa68 	.word	0x3000aa68
30001b58:	3000aa6c 	.word	0x3000aa6c
30001b5c:	3000aa6e 	.word	0x3000aa6e
30001b60:	3000aa7d 	.word	0x3000aa7d
30001b64:	3000aa7c 	.word	0x3000aa7c
30001b68:	3000aa80 	.word	0x3000aa80
30001b6c:	3000aa84 	.word	0x3000aa84
30001b70:	3000aa88 	.word	0x3000aa88
30001b74:	3000aa8c 	.word	0x3000aa8c
30001b78:	3000aa90 	.word	0x3000aa90
30001b7c:	3000aa91 	.word	0x3000aa91

30001b80 <OS_InitRdyList>:
*
* Returns    : none
*******************************************************************************
*/
static void OS_InitRdyList(void)
{
30001b80:	e52db004 	push	{fp}		@ (str fp, [sp, #-4]!)
30001b84:	e28db000 	add	fp, sp, #0
30001b88:	e24dd00c 	sub	sp, sp, #12
    INT16U i;
    INT8U *prdytbl;

    OSRdyGrp  = 0x00;                       /* Clear ready list group                */
30001b8c:	e59f3084 	ldr	r3, [pc, #132]	@ 30001c18 <OS_InitRdyList+0x98>
30001b90:	e3a02000 	mov	r2, #0
30001b94:	e5c32000 	strb	r2, [r3]
    prdytbl   = &OSRdyTbl[0];
30001b98:	e59f307c 	ldr	r3, [pc, #124]	@ 30001c1c <OS_InitRdyList+0x9c>
30001b9c:	e50b300c 	str	r3, [fp, #-12]
    for (i = 0; i < OS_RDY_TBL_SIZE; i++) {
30001ba0:	e3a03000 	mov	r3, #0
30001ba4:	e14b30b6 	strh	r3, [fp, #-6]
30001ba8:	ea000007 	b	30001bcc <OS_InitRdyList+0x4c>
        *prdytbl++ = 0x00;                  /* Clear ready list table                */
30001bac:	e51b300c 	ldr	r3, [fp, #-12]
30001bb0:	e2832001 	add	r2, r3, #1
30001bb4:	e50b200c 	str	r2, [fp, #-12]
30001bb8:	e3a02000 	mov	r2, #0
30001bbc:	e5c32000 	strb	r2, [r3]
    for (i = 0; i < OS_RDY_TBL_SIZE; i++) {
30001bc0:	e15b30b6 	ldrh	r3, [fp, #-6]
30001bc4:	e2833001 	add	r3, r3, #1
30001bc8:	e14b30b6 	strh	r3, [fp, #-6]
30001bcc:	e15b30b6 	ldrh	r3, [fp, #-6]
30001bd0:	e3530007 	cmp	r3, #7
30001bd4:	9afffff4 	bls	30001bac <OS_InitRdyList+0x2c>
    }
    OSPrioCur     = 0;                      /* Set current priority to lowest        */
30001bd8:	e59f3040 	ldr	r3, [pc, #64]	@ 30001c20 <OS_InitRdyList+0xa0>
30001bdc:	e3a02000 	mov	r2, #0
30001be0:	e5c32000 	strb	r2, [r3]
    OSPrioHighRdy = 0;                      /* Set highest ready priority            */
30001be4:	e59f3038 	ldr	r3, [pc, #56]	@ 30001c24 <OS_InitRdyList+0xa4>
30001be8:	e3a02000 	mov	r2, #0
30001bec:	e5c32000 	strb	r2, [r3]
    OSTCBHighRdy  = (OS_TCB *)0;            /* No task ready yet                     */
30001bf0:	e59f3030 	ldr	r3, [pc, #48]	@ 30001c28 <OS_InitRdyList+0xa8>
30001bf4:	e3a02000 	mov	r2, #0
30001bf8:	e5832000 	str	r2, [r3]
    OSTCBCur      = (OS_TCB *)0;            /* No current task yet                   */
30001bfc:	e59f3028 	ldr	r3, [pc, #40]	@ 30001c2c <OS_InitRdyList+0xac>
30001c00:	e3a02000 	mov	r2, #0
30001c04:	e5832000 	str	r2, [r3]
}
30001c08:	e1a00000 	nop			@ (mov r0, r0)
30001c0c:	e28bd000 	add	sp, fp, #0
30001c10:	e49db004 	pop	{fp}		@ (ldr fp, [sp], #4)
30001c14:	e12fff1e 	bx	lr
30001c18:	3000aa71 	.word	0x3000aa71
30001c1c:	3000aa74 	.word	0x3000aa74
30001c20:	3000aa6f 	.word	0x3000aa6f
30001c24:	3000aa70 	.word	0x3000aa70
30001c28:	3000b39c 	.word	0x3000b39c
30001c2c:	3000b394 	.word	0x3000b394

30001c30 <OS_InitEventList>:
*
* Returns    : none
*******************************************************************************
*/
static void OS_InitEventList(void)
{
30001c30:	e92d4800 	push	{fp, lr}
30001c34:	e28db004 	add	fp, sp, #4
30001c38:	e24dd010 	sub	sp, sp, #16
    INT16U i;
    OS_EVENT *pevent;
    OS_EVENT *pevent2;

    /* Initialize event free list */
    pevent = &OSEventTbl[0];
30001c3c:	e59f304c 	ldr	r3, [pc, #76]	@ 30001c90 <OS_InitEventList+0x60>
30001c40:	e50b3008 	str	r3, [fp, #-8]
    pevent2 = &OSEventTbl[1];
30001c44:	e59f3048 	ldr	r3, [pc, #72]	@ 30001c94 <OS_InitEventList+0x64>
30001c48:	e50b300c 	str	r3, [fp, #-12]
    for (i = 0; i < OS_MAX_EVENTS - 1; i++) {
30001c4c:	e3a03000 	mov	r3, #0
30001c50:	e14b30be 	strh	r3, [fp, #-14]
30001c54:	e1a00000 	nop			@ (mov r0, r0)
        pevent->OSEventType = OS_EVENT_TYPE_UNUSED;
        pevent->OSEventPtr = (void *)pevent2;
        pevent++;
        pevent2++;
    }
    pevent->OSEventType = OS_EVENT_TYPE_UNUSED;
30001c58:	e51b3008 	ldr	r3, [fp, #-8]
30001c5c:	e3a02000 	mov	r2, #0
30001c60:	e5c32000 	strb	r2, [r3]
    pevent->OSEventPtr = (void *)0;
30001c64:	e51b3008 	ldr	r3, [fp, #-8]
30001c68:	e3a02000 	mov	r2, #0
30001c6c:	e5832004 	str	r2, [r3, #4]
    OSEventFreeList = &OSEventTbl[0];
30001c70:	e59f3020 	ldr	r3, [pc, #32]	@ 30001c98 <OS_InitEventList+0x68>
30001c74:	e59f2014 	ldr	r2, [pc, #20]	@ 30001c90 <OS_InitEventList+0x60>
30001c78:	e5832000 	str	r2, [r3]

    /* Initialize flag free list */
    OS_FlagInit();
30001c7c:	eb000779 	bl	30003a68 <OS_FlagInit>
}
30001c80:	e1a00000 	nop			@ (mov r0, r0)
30001c84:	e24bd004 	sub	sp, fp, #4
30001c88:	e8bd4800 	pop	{fp, lr}
30001c8c:	e12fff1e 	bx	lr
30001c90:	3000b594 	.word	0x3000b594
30001c94:	3000b5a8 	.word	0x3000b5a8
30001c98:	3000b590 	.word	0x3000b590

30001c9c <OS_InitTaskIdle>:
*
* Returns    : none
*******************************************************************************
*/
static void OS_InitTaskIdle(void)
{
30001c9c:	e92d4800 	push	{fp, lr}
30001ca0:	e28db004 	add	fp, sp, #4
    (void)OSTaskCreate(OS_TaskIdle,
30001ca4:	e3a0303e 	mov	r3, #62	@ 0x3e
30001ca8:	e59f2018 	ldr	r2, [pc, #24]	@ 30001cc8 <OS_InitTaskIdle+0x2c>
30001cac:	e3a01000 	mov	r1, #0
30001cb0:	e59f0014 	ldr	r0, [pc, #20]	@ 30001ccc <OS_InitTaskIdle+0x30>
30001cb4:	eb00137e 	bl	30006ab4 <OSTaskCreate>
                       (void *)0,
                       &OSTaskIdleStk[OS_TASK_IDLE_STK_SIZE - 1],
                       OS_IDLE_PRIO);
}
30001cb8:	e1a00000 	nop			@ (mov r0, r0)
30001cbc:	e24bd004 	sub	sp, fp, #4
30001cc0:	e8bd4800 	pop	{fp, lr}
30001cc4:	e12fff1e 	bx	lr
30001cc8:	3000ab90 	.word	0x3000ab90
30001ccc:	30002958 	.word	0x30002958

30001cd0 <OSInit>:

void  OSInit(void)
{
30001cd0:	e92d4800 	push	{fp, lr}
30001cd4:	e28db004 	add	fp, sp, #4
    OSInitHookBegin();               /*  */
30001cd8:	ebfffc52 	bl	30000e28 <OSInitHookBegin>
    OS_InitMisc();                   /*  */
30001cdc:	ebffff75 	bl	30001ab8 <OS_InitMisc>
    OS_InitRdyList();                /*  */
30001ce0:	ebffffa6 	bl	30001b80 <OS_InitRdyList>
    OS_InitTCBList();                /*  OS_TCB  */
30001ce4:	eb0002a0 	bl	3000276c <OS_InitTCBList>
    OS_InitEventList();              /*  */
30001ce8:	ebffffd0 	bl	30001c30 <OS_InitEventList>
    OS_MemInit();                    /*  */
30001cec:	eb000ada 	bl	3000485c <OS_MemInit>
    OS_QInit();                      /*  */
30001cf0:	eb0010df 	bl	30006074 <OS_QInit>
    OS_InitTaskIdle();               /*  */
30001cf4:	ebffffe8 	bl	30001c9c <OS_InitTaskIdle>
    OS_InitTaskStat();               /*  */
30001cf8:	eb00028e 	bl	30002738 <OS_InitTaskStat>
    OSInitHookEnd();                 /*  */
30001cfc:	ebfffc4f 	bl	30000e40 <OSInitHookEnd>
}
30001d00:	e1a00000 	nop			@ (mov r0, r0)
30001d04:	e24bd004 	sub	sp, fp, #4
30001d08:	e8bd4800 	pop	{fp, lr}
30001d0c:	e12fff1e 	bx	lr

30001d10 <OSIntEnter>:

//ISR,context switch
void  OSIntEnter (void)
{
30001d10:	e52db004 	push	{fp}		@ (str fp, [sp, #-4]!)
30001d14:	e28db000 	add	fp, sp, #0
    if (OSRunning == TRUE) {
30001d18:	e59f3040 	ldr	r3, [pc, #64]	@ 30001d60 <OSIntEnter+0x50>
30001d1c:	e5d33000 	ldrb	r3, [r3]
30001d20:	e3530001 	cmp	r3, #1
30001d24:	1a000009 	bne	30001d50 <OSIntEnter+0x40>
        if (OSIntNesting < 255) {
30001d28:	e59f3034 	ldr	r3, [pc, #52]	@ 30001d64 <OSIntEnter+0x54>
30001d2c:	e5d33000 	ldrb	r3, [r3]
30001d30:	e35300ff 	cmp	r3, #255	@ 0xff
30001d34:	0a000005 	beq	30001d50 <OSIntEnter+0x40>
            OSIntNesting++;                      /*  ISR                         */
30001d38:	e59f3024 	ldr	r3, [pc, #36]	@ 30001d64 <OSIntEnter+0x54>
30001d3c:	e5d33000 	ldrb	r3, [r3]
30001d40:	e2833001 	add	r3, r3, #1
30001d44:	e20320ff 	and	r2, r3, #255	@ 0xff
30001d48:	e59f3014 	ldr	r3, [pc, #20]	@ 30001d64 <OSIntEnter+0x54>
30001d4c:	e5c32000 	strb	r2, [r3]
        }
    }
}
30001d50:	e1a00000 	nop			@ (mov r0, r0)
30001d54:	e28bd000 	add	sp, fp, #0
30001d58:	e49db004 	pop	{fp}		@ (ldr fp, [sp], #4)
30001d5c:	e12fff1e 	bx	lr
30001d60:	3000aa7c 	.word	0x3000aa7c
30001d64:	3000aa6c 	.word	0x3000aa6c

30001d68 <OSIntExit>:

//ISRcontext switch
void OSIntExit(void){
30001d68:	e92d4800 	push	{fp, lr}
30001d6c:	e28db004 	add	fp, sp, #4
30001d70:	e24dd008 	sub	sp, sp, #8
    OS_CPU_SR   cpu_sr;                                         //CPU 
    if(OSRunning == TRUE){
30001d74:	e59f3118 	ldr	r3, [pc, #280]	@ 30001e94 <OSIntExit+0x12c>
30001d78:	e5d33000 	ldrb	r3, [r3]
30001d7c:	e3530001 	cmp	r3, #1
30001d80:	1a00003f 	bne	30001e84 <OSIntExit+0x11c>
        OS_ENTER_CRITICAL();
30001d84:	ebfff962 	bl	30000314 <OS_CPU_SR_Save>
30001d88:	e50b0008 	str	r0, [fp, #-8]
       if(OSIntNesting > 0){
30001d8c:	e59f3104 	ldr	r3, [pc, #260]	@ 30001e98 <OSIntExit+0x130>
30001d90:	e5d33000 	ldrb	r3, [r3]
30001d94:	e3530000 	cmp	r3, #0
30001d98:	0a000005 	beq	30001db4 <OSIntExit+0x4c>
           OSIntNesting--; 
30001d9c:	e59f30f4 	ldr	r3, [pc, #244]	@ 30001e98 <OSIntExit+0x130>
30001da0:	e5d33000 	ldrb	r3, [r3]
30001da4:	e2433001 	sub	r3, r3, #1
30001da8:	e20320ff 	and	r2, r3, #255	@ 0xff
30001dac:	e59f30e4 	ldr	r3, [pc, #228]	@ 30001e98 <OSIntExit+0x130>
30001db0:	e5c32000 	strb	r2, [r3]
       }
       if((OSIntNesting == 0) && (OSLockNesting == 0)){
30001db4:	e59f30dc 	ldr	r3, [pc, #220]	@ 30001e98 <OSIntExit+0x130>
30001db8:	e5d33000 	ldrb	r3, [r3]
30001dbc:	e3530000 	cmp	r3, #0
30001dc0:	1a00002d 	bne	30001e7c <OSIntExit+0x114>
30001dc4:	e59f30d0 	ldr	r3, [pc, #208]	@ 30001e9c <OSIntExit+0x134>
30001dc8:	e5d33000 	ldrb	r3, [r3]
30001dcc:	e3530000 	cmp	r3, #0
30001dd0:	1a000029 	bne	30001e7c <OSIntExit+0x114>
            OSIntExitY = OSUnMapTbl[OSRdyGrp];                     // 
30001dd4:	e59f30c4 	ldr	r3, [pc, #196]	@ 30001ea0 <OSIntExit+0x138>
30001dd8:	e5d33000 	ldrb	r3, [r3]
30001ddc:	e1a02003 	mov	r2, r3
30001de0:	e59f30bc 	ldr	r3, [pc, #188]	@ 30001ea4 <OSIntExit+0x13c>
30001de4:	e7d32002 	ldrb	r2, [r3, r2]
30001de8:	e59f30b8 	ldr	r3, [pc, #184]	@ 30001ea8 <OSIntExit+0x140>
30001dec:	e5c32000 	strb	r2, [r3]
            OSPrioHighRdy = (INT8U)((OSIntExitY << 3) + OSUnMapTbl[OSRdyTbl[OSIntExitY]]);
30001df0:	e59f30b0 	ldr	r3, [pc, #176]	@ 30001ea8 <OSIntExit+0x140>
30001df4:	e5d33000 	ldrb	r3, [r3]
30001df8:	e1a03183 	lsl	r3, r3, #3
30001dfc:	e20320ff 	and	r2, r3, #255	@ 0xff
30001e00:	e59f30a0 	ldr	r3, [pc, #160]	@ 30001ea8 <OSIntExit+0x140>
30001e04:	e5d33000 	ldrb	r3, [r3]
30001e08:	e1a01003 	mov	r1, r3
30001e0c:	e59f3098 	ldr	r3, [pc, #152]	@ 30001eac <OSIntExit+0x144>
30001e10:	e7d33001 	ldrb	r3, [r3, r1]
30001e14:	e1a01003 	mov	r1, r3
30001e18:	e59f3084 	ldr	r3, [pc, #132]	@ 30001ea4 <OSIntExit+0x13c>
30001e1c:	e7d33001 	ldrb	r3, [r3, r1]
30001e20:	e0823003 	add	r3, r2, r3
30001e24:	e20320ff 	and	r2, r3, #255	@ 0xff
30001e28:	e59f3080 	ldr	r3, [pc, #128]	@ 30001eb0 <OSIntExit+0x148>
30001e2c:	e5c32000 	strb	r2, [r3]
            if (OSPrioHighRdy != OSPrioCur) {              /*  */
30001e30:	e59f3078 	ldr	r3, [pc, #120]	@ 30001eb0 <OSIntExit+0x148>
30001e34:	e5d32000 	ldrb	r2, [r3]
30001e38:	e59f3074 	ldr	r3, [pc, #116]	@ 30001eb4 <OSIntExit+0x14c>
30001e3c:	e5d33000 	ldrb	r3, [r3]
30001e40:	e1520003 	cmp	r2, r3
30001e44:	0a00000c 	beq	30001e7c <OSIntExit+0x114>
                OSTCBHighRdy  = OSTCBPrioTbl[OSPrioHighRdy];
30001e48:	e59f3060 	ldr	r3, [pc, #96]	@ 30001eb0 <OSIntExit+0x148>
30001e4c:	e5d33000 	ldrb	r3, [r3]
30001e50:	e1a02003 	mov	r2, r3
30001e54:	e59f305c 	ldr	r3, [pc, #92]	@ 30001eb8 <OSIntExit+0x150>
30001e58:	e7933102 	ldr	r3, [r3, r2, lsl #2]
30001e5c:	e59f2058 	ldr	r2, [pc, #88]	@ 30001ebc <OSIntExit+0x154>
30001e60:	e5823000 	str	r3, [r2]
                OSCtxSwCtr++;                              /*  */
30001e64:	e59f3054 	ldr	r3, [pc, #84]	@ 30001ec0 <OSIntExit+0x158>
30001e68:	e5933000 	ldr	r3, [r3]
30001e6c:	e2833001 	add	r3, r3, #1
30001e70:	e59f2048 	ldr	r2, [pc, #72]	@ 30001ec0 <OSIntExit+0x158>
30001e74:	e5823000 	str	r3, [r2]
                OSIntCtxSw();                              /*        */
30001e78:	ebfff947 	bl	3000039c <OSIntCtxSw>
            }
        }
    OS_EXIT_CRITICAL();
30001e7c:	e51b0008 	ldr	r0, [fp, #-8]
30001e80:	ebfff927 	bl	30000324 <OS_CPU_SR_Restore>
    }
}
30001e84:	e1a00000 	nop			@ (mov r0, r0)
30001e88:	e24bd004 	sub	sp, fp, #4
30001e8c:	e8bd4800 	pop	{fp, lr}
30001e90:	e12fff1e 	bx	lr
30001e94:	3000aa7c 	.word	0x3000aa7c
30001e98:	3000aa6c 	.word	0x3000aa6c
30001e9c:	3000aa6e 	.word	0x3000aa6e
30001ea0:	3000aa71 	.word	0x3000aa71
30001ea4:	30007e9c 	.word	0x30007e9c
30001ea8:	3000aa6d 	.word	0x3000aa6d
30001eac:	3000aa74 	.word	0x3000aa74
30001eb0:	3000aa70 	.word	0x3000aa70
30001eb4:	3000aa6f 	.word	0x3000aa6f
30001eb8:	3000b3a4 	.word	0x3000b3a4
30001ebc:	3000b39c 	.word	0x3000b39c
30001ec0:	3000aa80 	.word	0x3000aa80

30001ec4 <OSSchedLock>:


//
void OSSchedLock(void){
30001ec4:	e92d4800 	push	{fp, lr}
30001ec8:	e28db004 	add	fp, sp, #4
30001ecc:	e24dd008 	sub	sp, sp, #8
    OS_CPU_SR   cpu_sr;                                         
    if(OSRunning == FALSE){
30001ed0:	e59f3054 	ldr	r3, [pc, #84]	@ 30001f2c <OSSchedLock+0x68>
30001ed4:	e5d33000 	ldrb	r3, [r3]
30001ed8:	e3530000 	cmp	r3, #0
30001edc:	0a00000e 	beq	30001f1c <OSSchedLock+0x58>
        return;
    }
    else{
        OS_ENTER_CRITICAL();
30001ee0:	ebfff90b 	bl	30000314 <OS_CPU_SR_Save>
30001ee4:	e50b0008 	str	r0, [fp, #-8]
        if(OSLockNesting < 255){
30001ee8:	e59f3040 	ldr	r3, [pc, #64]	@ 30001f30 <OSSchedLock+0x6c>
30001eec:	e5d33000 	ldrb	r3, [r3]
30001ef0:	e35300ff 	cmp	r3, #255	@ 0xff
30001ef4:	0a000005 	beq	30001f10 <OSSchedLock+0x4c>
            OSLockNesting++; 
30001ef8:	e59f3030 	ldr	r3, [pc, #48]	@ 30001f30 <OSSchedLock+0x6c>
30001efc:	e5d33000 	ldrb	r3, [r3]
30001f00:	e2833001 	add	r3, r3, #1
30001f04:	e20320ff 	and	r2, r3, #255	@ 0xff
30001f08:	e59f3020 	ldr	r3, [pc, #32]	@ 30001f30 <OSSchedLock+0x6c>
30001f0c:	e5c32000 	strb	r2, [r3]
        }
        OS_EXIT_CRITICAL();
30001f10:	e51b0008 	ldr	r0, [fp, #-8]
30001f14:	ebfff902 	bl	30000324 <OS_CPU_SR_Restore>
30001f18:	ea000000 	b	30001f20 <OSSchedLock+0x5c>
        return;
30001f1c:	e1a00000 	nop			@ (mov r0, r0)
    }
}
30001f20:	e24bd004 	sub	sp, fp, #4
30001f24:	e8bd4800 	pop	{fp, lr}
30001f28:	e12fff1e 	bx	lr
30001f2c:	3000aa7c 	.word	0x3000aa7c
30001f30:	3000aa6e 	.word	0x3000aa6e

30001f34 <OSSchedUnlock>:

//
void OSSchedUnlock(void){
30001f34:	e92d4800 	push	{fp, lr}
30001f38:	e28db004 	add	fp, sp, #4
30001f3c:	e24dd008 	sub	sp, sp, #8
    OS_CPU_SR   cpu_sr;                                         
    if(OSRunning == TRUE){
30001f40:	e59f308c 	ldr	r3, [pc, #140]	@ 30001fd4 <OSSchedUnlock+0xa0>
30001f44:	e5d33000 	ldrb	r3, [r3]
30001f48:	e3530001 	cmp	r3, #1
30001f4c:	1a00001c 	bne	30001fc4 <OSSchedUnlock+0x90>
        OS_ENTER_CRITICAL();
30001f50:	ebfff8ef 	bl	30000314 <OS_CPU_SR_Save>
30001f54:	e50b0008 	str	r0, [fp, #-8]
        if(OSLockNesting > 0){
30001f58:	e59f3078 	ldr	r3, [pc, #120]	@ 30001fd8 <OSSchedUnlock+0xa4>
30001f5c:	e5d33000 	ldrb	r3, [r3]
30001f60:	e3530000 	cmp	r3, #0
30001f64:	0a000014 	beq	30001fbc <OSSchedUnlock+0x88>
            OSLockNesting--; 
30001f68:	e59f3068 	ldr	r3, [pc, #104]	@ 30001fd8 <OSSchedUnlock+0xa4>
30001f6c:	e5d33000 	ldrb	r3, [r3]
30001f70:	e2433001 	sub	r3, r3, #1
30001f74:	e20320ff 	and	r2, r3, #255	@ 0xff
30001f78:	e59f3058 	ldr	r3, [pc, #88]	@ 30001fd8 <OSSchedUnlock+0xa4>
30001f7c:	e5c32000 	strb	r2, [r3]
            if((OSLockNesting == 0) && (OSIntNesting == 0)){
30001f80:	e59f3050 	ldr	r3, [pc, #80]	@ 30001fd8 <OSSchedUnlock+0xa4>
30001f84:	e5d33000 	ldrb	r3, [r3]
30001f88:	e3530000 	cmp	r3, #0
30001f8c:	1a000007 	bne	30001fb0 <OSSchedUnlock+0x7c>
30001f90:	e59f3044 	ldr	r3, [pc, #68]	@ 30001fdc <OSSchedUnlock+0xa8>
30001f94:	e5d33000 	ldrb	r3, [r3]
30001f98:	e3530000 	cmp	r3, #0
30001f9c:	1a000003 	bne	30001fb0 <OSSchedUnlock+0x7c>
                OS_EXIT_CRITICAL();
30001fa0:	e51b0008 	ldr	r0, [fp, #-8]
30001fa4:	ebfff8de 	bl	30000324 <OS_CPU_SR_Restore>
                OS_Sched();
30001fa8:	eb000227 	bl	3000284c <OS_Sched>
        }
        else{
            OS_EXIT_CRITICAL();
        }
    }
}
30001fac:	ea000004 	b	30001fc4 <OSSchedUnlock+0x90>
                OS_EXIT_CRITICAL();
30001fb0:	e51b0008 	ldr	r0, [fp, #-8]
30001fb4:	ebfff8da 	bl	30000324 <OS_CPU_SR_Restore>
}
30001fb8:	ea000001 	b	30001fc4 <OSSchedUnlock+0x90>
            OS_EXIT_CRITICAL();
30001fbc:	e51b0008 	ldr	r0, [fp, #-8]
30001fc0:	ebfff8d7 	bl	30000324 <OS_CPU_SR_Restore>
}
30001fc4:	e1a00000 	nop			@ (mov r0, r0)
30001fc8:	e24bd004 	sub	sp, fp, #4
30001fcc:	e8bd4800 	pop	{fp, lr}
30001fd0:	e12fff1e 	bx	lr
30001fd4:	3000aa7c 	.word	0x3000aa7c
30001fd8:	3000aa6e 	.word	0x3000aa6e
30001fdc:	3000aa6c 	.word	0x3000aa6c

30001fe0 <OSStart>:

//
void  OSStart (void)
{
30001fe0:	e92d4800 	push	{fp, lr}
30001fe4:	e28db004 	add	fp, sp, #4
30001fe8:	e24dd008 	sub	sp, sp, #8
    INT8U y;
    INT8U x;

    if (OSRunning == FALSE) {
30001fec:	e59f30ac 	ldr	r3, [pc, #172]	@ 300020a0 <OSStart+0xc0>
30001ff0:	e5d33000 	ldrb	r3, [r3]
30001ff4:	e3530000 	cmp	r3, #0
30001ff8:	1a000024 	bne	30002090 <OSStart+0xb0>
        y             = OSUnMapTbl[OSRdyGrp];        
30001ffc:	e59f30a0 	ldr	r3, [pc, #160]	@ 300020a4 <OSStart+0xc4>
30002000:	e5d33000 	ldrb	r3, [r3]
30002004:	e1a02003 	mov	r2, r3
30002008:	e59f3098 	ldr	r3, [pc, #152]	@ 300020a8 <OSStart+0xc8>
3000200c:	e7d33002 	ldrb	r3, [r3, r2]
30002010:	e54b3005 	strb	r3, [fp, #-5]
        x             = OSUnMapTbl[OSRdyTbl[y]];
30002014:	e55b3005 	ldrb	r3, [fp, #-5]
30002018:	e59f208c 	ldr	r2, [pc, #140]	@ 300020ac <OSStart+0xcc>
3000201c:	e7d23003 	ldrb	r3, [r2, r3]
30002020:	e1a02003 	mov	r2, r3
30002024:	e59f307c 	ldr	r3, [pc, #124]	@ 300020a8 <OSStart+0xc8>
30002028:	e7d33002 	ldrb	r3, [r3, r2]
3000202c:	e54b3006 	strb	r3, [fp, #-6]
        OSPrioHighRdy = (INT8U)((y << 3) + x);
30002030:	e55b3005 	ldrb	r3, [fp, #-5]
30002034:	e1a03183 	lsl	r3, r3, #3
30002038:	e20320ff 	and	r2, r3, #255	@ 0xff
3000203c:	e55b3006 	ldrb	r3, [fp, #-6]
30002040:	e0823003 	add	r3, r2, r3
30002044:	e20320ff 	and	r2, r3, #255	@ 0xff
30002048:	e59f3060 	ldr	r3, [pc, #96]	@ 300020b0 <OSStart+0xd0>
3000204c:	e5c32000 	strb	r2, [r3]
        OSPrioCur     = OSPrioHighRdy;
30002050:	e59f3058 	ldr	r3, [pc, #88]	@ 300020b0 <OSStart+0xd0>
30002054:	e5d32000 	ldrb	r2, [r3]
30002058:	e59f3054 	ldr	r3, [pc, #84]	@ 300020b4 <OSStart+0xd4>
3000205c:	e5c32000 	strb	r2, [r3]
        OSTCBHighRdy  = OSTCBPrioTbl[OSPrioHighRdy]; 
30002060:	e59f3048 	ldr	r3, [pc, #72]	@ 300020b0 <OSStart+0xd0>
30002064:	e5d33000 	ldrb	r3, [r3]
30002068:	e1a02003 	mov	r2, r3
3000206c:	e59f3044 	ldr	r3, [pc, #68]	@ 300020b8 <OSStart+0xd8>
30002070:	e7933102 	ldr	r3, [r3, r2, lsl #2]
30002074:	e59f2040 	ldr	r2, [pc, #64]	@ 300020bc <OSStart+0xdc>
30002078:	e5823000 	str	r3, [r2]
        OSTCBCur      = OSTCBHighRdy;
3000207c:	e59f3038 	ldr	r3, [pc, #56]	@ 300020bc <OSStart+0xdc>
30002080:	e5933000 	ldr	r3, [r3]
30002084:	e59f2034 	ldr	r2, [pc, #52]	@ 300020c0 <OSStart+0xe0>
30002088:	e5823000 	str	r3, [r2]
        OSStartHighRdy();                            
3000208c:	ebfff8a6 	bl	3000032c <OSStartHighRdy>
    }
}
30002090:	e1a00000 	nop			@ (mov r0, r0)
30002094:	e24bd004 	sub	sp, fp, #4
30002098:	e8bd4800 	pop	{fp, lr}
3000209c:	e12fff1e 	bx	lr
300020a0:	3000aa7c 	.word	0x3000aa7c
300020a4:	3000aa71 	.word	0x3000aa71
300020a8:	30007e9c 	.word	0x30007e9c
300020ac:	3000aa74 	.word	0x3000aa74
300020b0:	3000aa70 	.word	0x3000aa70
300020b4:	3000aa6f 	.word	0x3000aa6f
300020b8:	3000b3a4 	.word	0x3000b3a4
300020bc:	3000b39c 	.word	0x3000b39c
300020c0:	3000b394 	.word	0x3000b394

300020c4 <OSStatInit>:

//
void  OSStatInit (void)
{
300020c4:	e92d4800 	push	{fp, lr}
300020c8:	e28db004 	add	fp, sp, #4
300020cc:	e24dd008 	sub	sp, sp, #8
    OS_CPU_SR  cpu_sr;
  
    OSTimeDly(2);                                /*  */
300020d0:	e3a00002 	mov	r0, #2
300020d4:	eb0014f8 	bl	300074bc <OSTimeDly>
    OS_ENTER_CRITICAL();
300020d8:	ebfff88d 	bl	30000314 <OS_CPU_SR_Save>
300020dc:	e50b0008 	str	r0, [fp, #-8]
    OSIdleCtr    = 0L;                           /*  */
300020e0:	e59f3050 	ldr	r3, [pc, #80]	@ 30002138 <OSStatInit+0x74>
300020e4:	e3a02000 	mov	r2, #0
300020e8:	e5832000 	str	r2, [r3]
    OS_EXIT_CRITICAL();
300020ec:	e51b0008 	ldr	r0, [fp, #-8]
300020f0:	ebfff88b 	bl	30000324 <OS_CPU_SR_Restore>
    OSTimeDly(OS_TICKS_PER_SEC);                 /*  1 */
300020f4:	e3a00032 	mov	r0, #50	@ 0x32
300020f8:	eb0014ef 	bl	300074bc <OSTimeDly>
    OS_ENTER_CRITICAL();
300020fc:	ebfff884 	bl	30000314 <OS_CPU_SR_Save>
30002100:	e50b0008 	str	r0, [fp, #-8]
    OSIdleCtrMax = OSIdleCtr;                    /*  1  */
30002104:	e59f302c 	ldr	r3, [pc, #44]	@ 30002138 <OSStatInit+0x74>
30002108:	e5933000 	ldr	r3, [r3]
3000210c:	e59f2028 	ldr	r2, [pc, #40]	@ 3000213c <OSStatInit+0x78>
30002110:	e5823000 	str	r3, [r2]
    OSStatRdy    = TRUE;
30002114:	e59f3024 	ldr	r3, [pc, #36]	@ 30002140 <OSStatInit+0x7c>
30002118:	e3a02001 	mov	r2, #1
3000211c:	e5c32000 	strb	r2, [r3]
    OS_EXIT_CRITICAL();
30002120:	e51b0008 	ldr	r0, [fp, #-8]
30002124:	ebfff87e 	bl	30000324 <OS_CPU_SR_Restore>
}
30002128:	e1a00000 	nop			@ (mov r0, r0)
3000212c:	e24bd004 	sub	sp, fp, #4
30002130:	e8bd4800 	pop	{fp, lr}
30002134:	e12fff1e 	bx	lr
30002138:	3000aa84 	.word	0x3000aa84
3000213c:	3000aa8c 	.word	0x3000aa8c
30002140:	3000aa90 	.word	0x3000aa90

30002144 <OSTimeTick>:

//
void  OSTimeTick (void)
{
30002144:	e92d4800 	push	{fp, lr}
30002148:	e28db004 	add	fp, sp, #4
3000214c:	e24dd008 	sub	sp, sp, #8
                              
    OS_CPU_SR  cpu_sr;
    OS_TCB    *ptcb;
    OSTimeTickHook();
30002150:	ebfffb2e 	bl	30000e10 <OSTimeTickHook>
                                          
    OS_ENTER_CRITICAL();                                   
30002154:	ebfff86e 	bl	30000314 <OS_CPU_SR_Save>
30002158:	e50b000c 	str	r0, [fp, #-12]
    OSTime++;
3000215c:	e59f3124 	ldr	r3, [pc, #292]	@ 30002288 <OSTimeTick+0x144>
30002160:	e5933000 	ldr	r3, [r3]
30002164:	e2833001 	add	r3, r3, #1
30002168:	e59f2118 	ldr	r2, [pc, #280]	@ 30002288 <OSTimeTick+0x144>
3000216c:	e5823000 	str	r3, [r2]
    OS_EXIT_CRITICAL();
30002170:	e51b000c 	ldr	r0, [fp, #-12]
30002174:	ebfff86a 	bl	30000324 <OS_CPU_SR_Restore>

    if (OSRunning == TRUE) {    
30002178:	e59f310c 	ldr	r3, [pc, #268]	@ 3000228c <OSTimeTick+0x148>
3000217c:	e5d33000 	ldrb	r3, [r3]
30002180:	e3530001 	cmp	r3, #1
30002184:	1a00003b 	bne	30002278 <OSTimeTick+0x134>
        ptcb = OSTCBList;                                  
30002188:	e59f3100 	ldr	r3, [pc, #256]	@ 30002290 <OSTimeTick+0x14c>
3000218c:	e5933000 	ldr	r3, [r3]
30002190:	e50b3008 	str	r3, [fp, #-8]
        while (ptcb->OSTCBPrio != OS_IDLE_PRIO) {          
30002194:	ea000033 	b	30002268 <OSTimeTick+0x124>
            OS_ENTER_CRITICAL();
30002198:	ebfff85d 	bl	30000314 <OS_CPU_SR_Save>
3000219c:	e50b000c 	str	r0, [fp, #-12]
            if (ptcb->OSTCBDly != 0) {                     
300021a0:	e51b3008 	ldr	r3, [fp, #-8]
300021a4:	e1d331bc 	ldrh	r3, [r3, #28]
300021a8:	e3530000 	cmp	r3, #0
300021ac:	0a000028 	beq	30002254 <OSTimeTick+0x110>
                if (--ptcb->OSTCBDly == 0) {               
300021b0:	e51b3008 	ldr	r3, [fp, #-8]
300021b4:	e1d331bc 	ldrh	r3, [r3, #28]
300021b8:	e2433001 	sub	r3, r3, #1
300021bc:	e1a03803 	lsl	r3, r3, #16
300021c0:	e1a02823 	lsr	r2, r3, #16
300021c4:	e51b3008 	ldr	r3, [fp, #-8]
300021c8:	e1c321bc 	strh	r2, [r3, #28]
300021cc:	e51b3008 	ldr	r3, [fp, #-8]
300021d0:	e1d331bc 	ldrh	r3, [r3, #28]
300021d4:	e3530000 	cmp	r3, #0
300021d8:	1a00001d 	bne	30002254 <OSTimeTick+0x110>
                    if ((ptcb->OSTCBStat & OS_STAT_SUSPEND) == OS_STAT_RDY) {
300021dc:	e51b3008 	ldr	r3, [fp, #-8]
300021e0:	e5d3301f 	ldrb	r3, [r3, #31]
300021e4:	e2033008 	and	r3, r3, #8
300021e8:	e3530000 	cmp	r3, #0
300021ec:	1a000015 	bne	30002248 <OSTimeTick+0x104>
                        OSRdyGrp               |= ptcb->OSTCBBitY; 
300021f0:	e51b3008 	ldr	r3, [fp, #-8]
300021f4:	e5d32023 	ldrb	r2, [r3, #35]	@ 0x23
300021f8:	e59f3094 	ldr	r3, [pc, #148]	@ 30002294 <OSTimeTick+0x150>
300021fc:	e5d33000 	ldrb	r3, [r3]
30002200:	e1823003 	orr	r3, r2, r3
30002204:	e20320ff 	and	r2, r3, #255	@ 0xff
30002208:	e59f3084 	ldr	r3, [pc, #132]	@ 30002294 <OSTimeTick+0x150>
3000220c:	e5c32000 	strb	r2, [r3]
                        OSRdyTbl[ptcb->OSTCBY] |= ptcb->OSTCBBitX;
30002210:	e51b3008 	ldr	r3, [fp, #-8]
30002214:	e5d33021 	ldrb	r3, [r3, #33]	@ 0x21
30002218:	e1a02003 	mov	r2, r3
3000221c:	e59f3074 	ldr	r3, [pc, #116]	@ 30002298 <OSTimeTick+0x154>
30002220:	e7d32002 	ldrb	r2, [r3, r2]
30002224:	e51b3008 	ldr	r3, [fp, #-8]
30002228:	e5d33022 	ldrb	r3, [r3, #34]	@ 0x22
3000222c:	e51b1008 	ldr	r1, [fp, #-8]
30002230:	e5d11021 	ldrb	r1, [r1, #33]	@ 0x21
30002234:	e1823003 	orr	r3, r2, r3
30002238:	e20320ff 	and	r2, r3, #255	@ 0xff
3000223c:	e59f3054 	ldr	r3, [pc, #84]	@ 30002298 <OSTimeTick+0x154>
30002240:	e7c32001 	strb	r2, [r3, r1]
30002244:	ea000002 	b	30002254 <OSTimeTick+0x110>
                    } else {  
                        ptcb->OSTCBDly = 1;  
30002248:	e51b3008 	ldr	r3, [fp, #-8]
3000224c:	e3a02001 	mov	r2, #1
30002250:	e1c321bc 	strh	r2, [r3, #28]
                    }    
                }
            }
            ptcb = ptcb->OSTCBNext;
30002254:	e51b3008 	ldr	r3, [fp, #-8]
30002258:	e5933008 	ldr	r3, [r3, #8]
3000225c:	e50b3008 	str	r3, [fp, #-8]
            OS_EXIT_CRITICAL();
30002260:	e51b000c 	ldr	r0, [fp, #-12]
30002264:	ebfff82e 	bl	30000324 <OS_CPU_SR_Restore>
        while (ptcb->OSTCBPrio != OS_IDLE_PRIO) {          
30002268:	e51b3008 	ldr	r3, [fp, #-8]
3000226c:	e5d3301e 	ldrb	r3, [r3, #30]
30002270:	e353003e 	cmp	r3, #62	@ 0x3e
30002274:	1affffc7 	bne	30002198 <OSTimeTick+0x54>
        }
    }
}
30002278:	e1a00000 	nop			@ (mov r0, r0)
3000227c:	e24bd004 	sub	sp, fp, #4
30002280:	e8bd4800 	pop	{fp, lr}
30002284:	e12fff1e 	bx	lr
30002288:	3000aa68 	.word	0x3000aa68
3000228c:	3000aa7c 	.word	0x3000aa7c
30002290:	3000b3a0 	.word	0x3000b3a0
30002294:	3000aa71 	.word	0x3000aa71
30002298:	3000aa74 	.word	0x3000aa74

3000229c <OS_Dummy>:

//
void OS_Dummy(void){
3000229c:	e52db004 	push	{fp}		@ (str fp, [sp, #-4]!)
300022a0:	e28db000 	add	fp, sp, #0

}
300022a4:	e1a00000 	nop			@ (mov r0, r0)
300022a8:	e28bd000 	add	sp, fp, #0
300022ac:	e49db004 	pop	{fp}		@ (ldr fp, [sp], #4)
300022b0:	e12fff1e 	bx	lr

300022b4 <OS_EventTaskRdy>:

//
INT8U OS_EventTaskRdy(OS_EVENT *pevent, void *msg, INT8U msk){
300022b4:	e52db004 	push	{fp}		@ (str fp, [sp, #-4]!)
300022b8:	e28db000 	add	fp, sp, #0
300022bc:	e24dd024 	sub	sp, sp, #36	@ 0x24
300022c0:	e50b0018 	str	r0, [fp, #-24]	@ 0xffffffe8
300022c4:	e50b101c 	str	r1, [fp, #-28]	@ 0xffffffe4
300022c8:	e1a03002 	mov	r3, r2
300022cc:	e54b301d 	strb	r3, [fp, #-29]	@ 0xffffffe3
    INT8U      X;
    INT8U      Y;
    INT8U      Bit_X;
    INT8U      Bit_Y;

    Y       = OSUnMapTbl[pevent->OSEventGrp];
300022d0:	e51b3018 	ldr	r3, [fp, #-24]	@ 0xffffffe8
300022d4:	e5d33001 	ldrb	r3, [r3, #1]
300022d8:	e1a02003 	mov	r2, r3
300022dc:	e59f318c 	ldr	r3, [pc, #396]	@ 30002470 <OS_EventTaskRdy+0x1bc>
300022e0:	e7d33002 	ldrb	r3, [r3, r2]
300022e4:	e54b3005 	strb	r3, [fp, #-5]
    Bit_Y   = OSMapTbl[Y];
300022e8:	e55b3005 	ldrb	r3, [fp, #-5]
300022ec:	e59f2180 	ldr	r2, [pc, #384]	@ 30002474 <OS_EventTaskRdy+0x1c0>
300022f0:	e7d23003 	ldrb	r3, [r2, r3]
300022f4:	e54b3006 	strb	r3, [fp, #-6]
    X       = OSUnMapTbl[pevent->OSEventTbl[Y]];
300022f8:	e55b3005 	ldrb	r3, [fp, #-5]
300022fc:	e51b2018 	ldr	r2, [fp, #-24]	@ 0xffffffe8
30002300:	e0823003 	add	r3, r2, r3
30002304:	e5d3300c 	ldrb	r3, [r3, #12]
30002308:	e1a02003 	mov	r2, r3
3000230c:	e59f315c 	ldr	r3, [pc, #348]	@ 30002470 <OS_EventTaskRdy+0x1bc>
30002310:	e7d33002 	ldrb	r3, [r3, r2]
30002314:	e54b3007 	strb	r3, [fp, #-7]
    Bit_X   = OSMapTbl[X];
30002318:	e55b3007 	ldrb	r3, [fp, #-7]
3000231c:	e59f2150 	ldr	r2, [pc, #336]	@ 30002474 <OS_EventTaskRdy+0x1c0>
30002320:	e7d23003 	ldrb	r3, [r2, r3]
30002324:	e54b3008 	strb	r3, [fp, #-8]
    prio    = (INT8U)((Y << 3) + X);
30002328:	e55b3005 	ldrb	r3, [fp, #-5]
3000232c:	e1a03183 	lsl	r3, r3, #3
30002330:	e20320ff 	and	r2, r3, #255	@ 0xff
30002334:	e55b3007 	ldrb	r3, [fp, #-7]
30002338:	e0823003 	add	r3, r2, r3
3000233c:	e54b3009 	strb	r3, [fp, #-9]
    if((pevent->OSEventTbl[Y] & ~Bit_X) == 0x00){ /*  */
30002340:	e55b3005 	ldrb	r3, [fp, #-5]
30002344:	e51b2018 	ldr	r2, [fp, #-24]	@ 0xffffffe8
30002348:	e0823003 	add	r3, r2, r3
3000234c:	e5d3300c 	ldrb	r3, [r3, #12]
30002350:	e1a02003 	mov	r2, r3
30002354:	e55b3008 	ldrb	r3, [fp, #-8]
30002358:	e1e03003 	mvn	r3, r3
3000235c:	e0033002 	and	r3, r3, r2
30002360:	e3530000 	cmp	r3, #0
30002364:	1a00000d 	bne	300023a0 <OS_EventTaskRdy+0xec>
        pevent->OSEventGrp &= ~Bit_Y; /*  */
30002368:	e51b3018 	ldr	r3, [fp, #-24]	@ 0xffffffe8
3000236c:	e5d33001 	ldrb	r3, [r3, #1]
30002370:	e1a03c03 	lsl	r3, r3, #24
30002374:	e1a02c43 	asr	r2, r3, #24
30002378:	e15b30d6 	ldrsb	r3, [fp, #-6]
3000237c:	e1e03003 	mvn	r3, r3
30002380:	e1a03c03 	lsl	r3, r3, #24
30002384:	e1a03c43 	asr	r3, r3, #24
30002388:	e0033002 	and	r3, r3, r2
3000238c:	e1a03c03 	lsl	r3, r3, #24
30002390:	e1a03c43 	asr	r3, r3, #24
30002394:	e20320ff 	and	r2, r3, #255	@ 0xff
30002398:	e51b3018 	ldr	r3, [fp, #-24]	@ 0xffffffe8
3000239c:	e5c32001 	strb	r2, [r3, #1]
    }
    ptcb = OSTCBPrioTbl[prio]; /*  */
300023a0:	e55b3009 	ldrb	r3, [fp, #-9]
300023a4:	e59f20cc 	ldr	r2, [pc, #204]	@ 30002478 <OS_EventTaskRdy+0x1c4>
300023a8:	e7923103 	ldr	r3, [r2, r3, lsl #2]
300023ac:	e50b3010 	str	r3, [fp, #-16]
    ptcb->OSTCBDly      = 0; /*  */
300023b0:	e51b3010 	ldr	r3, [fp, #-16]
300023b4:	e3a02000 	mov	r2, #0
300023b8:	e1c321bc 	strh	r2, [r3, #28]
    ptcb->OSTCBEventPtr = (OS_EVENT *)0; /*  */
300023bc:	e51b3010 	ldr	r3, [fp, #-16]
300023c0:	e3a02000 	mov	r2, #0
300023c4:	e583200c 	str	r2, [r3, #12]
    ptcb->OSTCBMsg      = msg; /*  */
300023c8:	e51b3010 	ldr	r3, [fp, #-16]
300023cc:	e51b201c 	ldr	r2, [fp, #-28]	@ 0xffffffe4
300023d0:	e5832010 	str	r2, [r3, #16]
    msg = msg; /*  */
    ptcb->OSTCBStat     &= ~msk; /*  */
300023d4:	e51b3010 	ldr	r3, [fp, #-16]
300023d8:	e5d3301f 	ldrb	r3, [r3, #31]
300023dc:	e1a03c03 	lsl	r3, r3, #24
300023e0:	e1a02c43 	asr	r2, r3, #24
300023e4:	e15b31dd 	ldrsb	r3, [fp, #-29]	@ 0xffffffe3
300023e8:	e1e03003 	mvn	r3, r3
300023ec:	e1a03c03 	lsl	r3, r3, #24
300023f0:	e1a03c43 	asr	r3, r3, #24
300023f4:	e0033002 	and	r3, r3, r2
300023f8:	e1a03c03 	lsl	r3, r3, #24
300023fc:	e1a03c43 	asr	r3, r3, #24
30002400:	e20320ff 	and	r2, r3, #255	@ 0xff
30002404:	e51b3010 	ldr	r3, [fp, #-16]
30002408:	e5c3201f 	strb	r2, [r3, #31]
    if(ptcb->OSTCBStat == OS_STAT_RDY){ /*  */
3000240c:	e51b3010 	ldr	r3, [fp, #-16]
30002410:	e5d3301f 	ldrb	r3, [r3, #31]
30002414:	e3530000 	cmp	r3, #0
30002418:	1a00000f 	bne	3000245c <OS_EventTaskRdy+0x1a8>
        OSRdyGrp    |= Bit_Y; /*  */
3000241c:	e59f3058 	ldr	r3, [pc, #88]	@ 3000247c <OS_EventTaskRdy+0x1c8>
30002420:	e5d32000 	ldrb	r2, [r3]
30002424:	e55b3006 	ldrb	r3, [fp, #-6]
30002428:	e1823003 	orr	r3, r2, r3
3000242c:	e20320ff 	and	r2, r3, #255	@ 0xff
30002430:	e59f3044 	ldr	r3, [pc, #68]	@ 3000247c <OS_EventTaskRdy+0x1c8>
30002434:	e5c32000 	strb	r2, [r3]
        OSRdyTbl[Y] |= Bit_X; /*  */
30002438:	e55b3005 	ldrb	r3, [fp, #-5]
3000243c:	e59f203c 	ldr	r2, [pc, #60]	@ 30002480 <OS_EventTaskRdy+0x1cc>
30002440:	e7d21003 	ldrb	r1, [r2, r3]
30002444:	e55b3005 	ldrb	r3, [fp, #-5]
30002448:	e55b2008 	ldrb	r2, [fp, #-8]
3000244c:	e1812002 	orr	r2, r1, r2
30002450:	e20210ff 	and	r1, r2, #255	@ 0xff
30002454:	e59f2024 	ldr	r2, [pc, #36]	@ 30002480 <OS_EventTaskRdy+0x1cc>
30002458:	e7c21003 	strb	r1, [r2, r3]
    }
    return(prio); /*  */
3000245c:	e55b3009 	ldrb	r3, [fp, #-9]
}
30002460:	e1a00003 	mov	r0, r3
30002464:	e28bd000 	add	sp, fp, #0
30002468:	e49db004 	pop	{fp}		@ (ldr fp, [sp], #4)
3000246c:	e12fff1e 	bx	lr
30002470:	30007e9c 	.word	0x30007e9c
30002474:	30007e94 	.word	0x30007e94
30002478:	3000b3a4 	.word	0x3000b3a4
3000247c:	3000aa71 	.word	0x3000aa71
30002480:	3000aa74 	.word	0x3000aa74

30002484 <OS_EventTaskWait>:

//
void OS_EventTaskWait(OS_EVENT *pevent){
30002484:	e52db004 	push	{fp}		@ (str fp, [sp, #-4]!)
30002488:	e28db000 	add	fp, sp, #0
3000248c:	e24dd00c 	sub	sp, sp, #12
30002490:	e50b0008 	str	r0, [fp, #-8]
    OSTCBCur->OSTCBEventPtr = pevent; /*  */
30002494:	e59f3140 	ldr	r3, [pc, #320]	@ 300025dc <OS_EventTaskWait+0x158>
30002498:	e5933000 	ldr	r3, [r3]
3000249c:	e51b2008 	ldr	r2, [fp, #-8]
300024a0:	e583200c 	str	r2, [r3, #12]
    if((OSRdyTbl[OSTCBCur->OSTCBY] &= ~OSTCBCur->OSTCBBitX) == 0x00){
300024a4:	e59f3130 	ldr	r3, [pc, #304]	@ 300025dc <OS_EventTaskWait+0x158>
300024a8:	e5933000 	ldr	r3, [r3]
300024ac:	e5d33021 	ldrb	r3, [r3, #33]	@ 0x21
300024b0:	e1a02003 	mov	r2, r3
300024b4:	e59f3124 	ldr	r3, [pc, #292]	@ 300025e0 <OS_EventTaskWait+0x15c>
300024b8:	e7d33002 	ldrb	r3, [r3, r2]
300024bc:	e1a03c03 	lsl	r3, r3, #24
300024c0:	e1a02c43 	asr	r2, r3, #24
300024c4:	e59f3110 	ldr	r3, [pc, #272]	@ 300025dc <OS_EventTaskWait+0x158>
300024c8:	e5933000 	ldr	r3, [r3]
300024cc:	e5d33022 	ldrb	r3, [r3, #34]	@ 0x22
300024d0:	e1a03c03 	lsl	r3, r3, #24
300024d4:	e1a03c43 	asr	r3, r3, #24
300024d8:	e1e03003 	mvn	r3, r3
300024dc:	e1a03c03 	lsl	r3, r3, #24
300024e0:	e1a03c43 	asr	r3, r3, #24
300024e4:	e0033002 	and	r3, r3, r2
300024e8:	e1a03c03 	lsl	r3, r3, #24
300024ec:	e1a02c43 	asr	r2, r3, #24
300024f0:	e59f30e4 	ldr	r3, [pc, #228]	@ 300025dc <OS_EventTaskWait+0x158>
300024f4:	e5933000 	ldr	r3, [r3]
300024f8:	e5d33021 	ldrb	r3, [r3, #33]	@ 0x21
300024fc:	e20210ff 	and	r1, r2, #255	@ 0xff
30002500:	e59f20d8 	ldr	r2, [pc, #216]	@ 300025e0 <OS_EventTaskWait+0x15c>
30002504:	e7c21003 	strb	r1, [r2, r3]
30002508:	e59f20d0 	ldr	r2, [pc, #208]	@ 300025e0 <OS_EventTaskWait+0x15c>
3000250c:	e7d23003 	ldrb	r3, [r2, r3]
30002510:	e3530000 	cmp	r3, #0
30002514:	1a000011 	bne	30002560 <OS_EventTaskWait+0xdc>
        OSRdyGrp &= ~OSTCBCur->OSTCBBitY; /*  */        
30002518:	e59f30bc 	ldr	r3, [pc, #188]	@ 300025dc <OS_EventTaskWait+0x158>
3000251c:	e5933000 	ldr	r3, [r3]
30002520:	e5d33023 	ldrb	r3, [r3, #35]	@ 0x23
30002524:	e1a03c03 	lsl	r3, r3, #24
30002528:	e1a03c43 	asr	r3, r3, #24
3000252c:	e1e03003 	mvn	r3, r3
30002530:	e1a03c03 	lsl	r3, r3, #24
30002534:	e1a02c43 	asr	r2, r3, #24
30002538:	e59f30a4 	ldr	r3, [pc, #164]	@ 300025e4 <OS_EventTaskWait+0x160>
3000253c:	e5d33000 	ldrb	r3, [r3]
30002540:	e1a03c03 	lsl	r3, r3, #24
30002544:	e1a03c43 	asr	r3, r3, #24
30002548:	e0033002 	and	r3, r3, r2
3000254c:	e1a03c03 	lsl	r3, r3, #24
30002550:	e1a03c43 	asr	r3, r3, #24
30002554:	e20320ff 	and	r2, r3, #255	@ 0xff
30002558:	e59f3084 	ldr	r3, [pc, #132]	@ 300025e4 <OS_EventTaskWait+0x160>
3000255c:	e5c32000 	strb	r2, [r3]
    }
    pevent->OSEventTbl[OSTCBCur->OSTCBY] |= OSTCBCur->OSTCBBitX; /*  */
30002560:	e59f3074 	ldr	r3, [pc, #116]	@ 300025dc <OS_EventTaskWait+0x158>
30002564:	e5933000 	ldr	r3, [r3]
30002568:	e5d33021 	ldrb	r3, [r3, #33]	@ 0x21
3000256c:	e1a02003 	mov	r2, r3
30002570:	e51b3008 	ldr	r3, [fp, #-8]
30002574:	e0833002 	add	r3, r3, r2
30002578:	e5d3200c 	ldrb	r2, [r3, #12]
3000257c:	e59f3058 	ldr	r3, [pc, #88]	@ 300025dc <OS_EventTaskWait+0x158>
30002580:	e5933000 	ldr	r3, [r3]
30002584:	e5d33022 	ldrb	r3, [r3, #34]	@ 0x22
30002588:	e59f104c 	ldr	r1, [pc, #76]	@ 300025dc <OS_EventTaskWait+0x158>
3000258c:	e5911000 	ldr	r1, [r1]
30002590:	e5d11021 	ldrb	r1, [r1, #33]	@ 0x21
30002594:	e1823003 	orr	r3, r2, r3
30002598:	e20320ff 	and	r2, r3, #255	@ 0xff
3000259c:	e51b3008 	ldr	r3, [fp, #-8]
300025a0:	e0833001 	add	r3, r3, r1
300025a4:	e5c3200c 	strb	r2, [r3, #12]
    pevent->OSEventGrp |= OSTCBCur->OSTCBBitY;
300025a8:	e51b3008 	ldr	r3, [fp, #-8]
300025ac:	e5d32001 	ldrb	r2, [r3, #1]
300025b0:	e59f3024 	ldr	r3, [pc, #36]	@ 300025dc <OS_EventTaskWait+0x158>
300025b4:	e5933000 	ldr	r3, [r3]
300025b8:	e5d33023 	ldrb	r3, [r3, #35]	@ 0x23
300025bc:	e1823003 	orr	r3, r2, r3
300025c0:	e20320ff 	and	r2, r3, #255	@ 0xff
300025c4:	e51b3008 	ldr	r3, [fp, #-8]
300025c8:	e5c32001 	strb	r2, [r3, #1]
}
300025cc:	e1a00000 	nop			@ (mov r0, r0)
300025d0:	e28bd000 	add	sp, fp, #0
300025d4:	e49db004 	pop	{fp}		@ (ldr fp, [sp], #4)
300025d8:	e12fff1e 	bx	lr
300025dc:	3000b394 	.word	0x3000b394
300025e0:	3000aa74 	.word	0x3000aa74
300025e4:	3000aa71 	.word	0x3000aa71

300025e8 <OS_EventTO>:

//,TO: timeout
void OS_EventTO(OS_EVENT *pevent){
300025e8:	e52db004 	push	{fp}		@ (str fp, [sp, #-4]!)
300025ec:	e28db000 	add	fp, sp, #0
300025f0:	e24dd00c 	sub	sp, sp, #12
300025f4:	e50b0008 	str	r0, [fp, #-8]
    if((pevent->OSEventTbl[OSTCBCur->OSTCBY] &= ~OSTCBCur->OSTCBBitX) == 0x00){ /*  */
300025f8:	e59f30f0 	ldr	r3, [pc, #240]	@ 300026f0 <OS_EventTO+0x108>
300025fc:	e5933000 	ldr	r3, [r3]
30002600:	e5d33021 	ldrb	r3, [r3, #33]	@ 0x21
30002604:	e1a02003 	mov	r2, r3
30002608:	e51b3008 	ldr	r3, [fp, #-8]
3000260c:	e0833002 	add	r3, r3, r2
30002610:	e5d3300c 	ldrb	r3, [r3, #12]
30002614:	e1a03c03 	lsl	r3, r3, #24
30002618:	e1a02c43 	asr	r2, r3, #24
3000261c:	e59f30cc 	ldr	r3, [pc, #204]	@ 300026f0 <OS_EventTO+0x108>
30002620:	e5933000 	ldr	r3, [r3]
30002624:	e5d33022 	ldrb	r3, [r3, #34]	@ 0x22
30002628:	e1a03c03 	lsl	r3, r3, #24
3000262c:	e1a03c43 	asr	r3, r3, #24
30002630:	e1e03003 	mvn	r3, r3
30002634:	e1a03c03 	lsl	r3, r3, #24
30002638:	e1a03c43 	asr	r3, r3, #24
3000263c:	e0033002 	and	r3, r3, r2
30002640:	e1a03c03 	lsl	r3, r3, #24
30002644:	e1a02c43 	asr	r2, r3, #24
30002648:	e59f30a0 	ldr	r3, [pc, #160]	@ 300026f0 <OS_EventTO+0x108>
3000264c:	e5933000 	ldr	r3, [r3]
30002650:	e5d33021 	ldrb	r3, [r3, #33]	@ 0x21
30002654:	e20210ff 	and	r1, r2, #255	@ 0xff
30002658:	e51b2008 	ldr	r2, [fp, #-8]
3000265c:	e0822003 	add	r2, r2, r3
30002660:	e5c2100c 	strb	r1, [r2, #12]
30002664:	e51b2008 	ldr	r2, [fp, #-8]
30002668:	e0823003 	add	r3, r2, r3
3000266c:	e5d3300c 	ldrb	r3, [r3, #12]
30002670:	e3530000 	cmp	r3, #0
30002674:	1a000011 	bne	300026c0 <OS_EventTO+0xd8>
        pevent->OSEventGrp &= ~OSTCBCur->OSTCBBitY; /*  */
30002678:	e51b3008 	ldr	r3, [fp, #-8]
3000267c:	e5d33001 	ldrb	r3, [r3, #1]
30002680:	e1a03c03 	lsl	r3, r3, #24
30002684:	e1a02c43 	asr	r2, r3, #24
30002688:	e59f3060 	ldr	r3, [pc, #96]	@ 300026f0 <OS_EventTO+0x108>
3000268c:	e5933000 	ldr	r3, [r3]
30002690:	e5d33023 	ldrb	r3, [r3, #35]	@ 0x23
30002694:	e1a03c03 	lsl	r3, r3, #24
30002698:	e1a03c43 	asr	r3, r3, #24
3000269c:	e1e03003 	mvn	r3, r3
300026a0:	e1a03c03 	lsl	r3, r3, #24
300026a4:	e1a03c43 	asr	r3, r3, #24
300026a8:	e0033002 	and	r3, r3, r2
300026ac:	e1a03c03 	lsl	r3, r3, #24
300026b0:	e1a03c43 	asr	r3, r3, #24
300026b4:	e20320ff 	and	r2, r3, #255	@ 0xff
300026b8:	e51b3008 	ldr	r3, [fp, #-8]
300026bc:	e5c32001 	strb	r2, [r3, #1]
    }
    OSTCBCur->OSTCBStat = OS_STAT_RDY; /*  */
300026c0:	e59f3028 	ldr	r3, [pc, #40]	@ 300026f0 <OS_EventTO+0x108>
300026c4:	e5933000 	ldr	r3, [r3]
300026c8:	e3a02000 	mov	r2, #0
300026cc:	e5c3201f 	strb	r2, [r3, #31]
    OSTCBCur->OSTCBEventPtr = (OS_EVENT *)0; /*  */
300026d0:	e59f3018 	ldr	r3, [pc, #24]	@ 300026f0 <OS_EventTO+0x108>
300026d4:	e5933000 	ldr	r3, [r3]
300026d8:	e3a02000 	mov	r2, #0
300026dc:	e583200c 	str	r2, [r3, #12]
}
300026e0:	e1a00000 	nop			@ (mov r0, r0)
300026e4:	e28bd000 	add	sp, fp, #0
300026e8:	e49db004 	pop	{fp}		@ (ldr fp, [sp], #4)
300026ec:	e12fff1e 	bx	lr
300026f0:	3000b394 	.word	0x3000b394

300026f4 <OS_EventWaitListInit>:

//
void OS_EventWaitListInit(OS_EVENT *pevent){
300026f4:	e92d4800 	push	{fp, lr}
300026f8:	e28db004 	add	fp, sp, #4
300026fc:	e24dd008 	sub	sp, sp, #8
30002700:	e50b0008 	str	r0, [fp, #-8]
    pevent->OSEventType = 0;                                 /* 0 */
30002704:	e51b3008 	ldr	r3, [fp, #-8]
30002708:	e3a02000 	mov	r2, #0
3000270c:	e5c32000 	strb	r2, [r3]
    memset(pevent->OSEventTbl, 0, sizeof(pevent->OSEventTbl));
30002710:	e51b3008 	ldr	r3, [fp, #-8]
30002714:	e283300c 	add	r3, r3, #12
30002718:	e3a02008 	mov	r2, #8
3000271c:	e3a01000 	mov	r1, #0
30002720:	e1a00003 	mov	r0, r3
30002724:	eb001483 	bl	30007938 <memset>
}
30002728:	e1a00000 	nop			@ (mov r0, r0)
3000272c:	e24bd004 	sub	sp, fp, #4
30002730:	e8bd4800 	pop	{fp, lr}
30002734:	e12fff1e 	bx	lr

30002738 <OS_InitTaskStat>:
//
//
//
//
static  void  OS_InitTaskStat (void)
{
30002738:	e92d4800 	push	{fp, lr}
3000273c:	e28db004 	add	fp, sp, #4
    (void)OSTaskCreate(OS_TaskStat,
30002740:	e3a0303d 	mov	r3, #61	@ 0x3d
30002744:	e59f2018 	ldr	r2, [pc, #24]	@ 30002764 <OS_InitTaskStat+0x2c>
30002748:	e3a01000 	mov	r1, #0
3000274c:	e59f0014 	ldr	r0, [pc, #20]	@ 30002768 <OS_InitTaskStat+0x30>
30002750:	eb0010d7 	bl	30006ab4 <OSTaskCreate>
                       (void *)0,                                      /*  OS_TaskStat()*/
                       &OSTaskStatStk[OS_TASK_STAT_STK_SIZE - 1],      /*                */
                       OS_STAT_PRIO);                                  /*   */
}
30002754:	e1a00000 	nop			@ (mov r0, r0)
30002758:	e24bd004 	sub	sp, fp, #4
3000275c:	e8bd4800 	pop	{fp, lr}
30002760:	e12fff1e 	bx	lr
30002764:	3000b390 	.word	0x3000b390
30002768:	3000299c 	.word	0x3000299c

3000276c <OS_InitTCBList>:

//TCBList
static void OS_InitTCBList(void){
3000276c:	e52db004 	push	{fp}		@ (str fp, [sp, #-4]!)
30002770:	e28db000 	add	fp, sp, #0
30002774:	e24dd014 	sub	sp, sp, #20
    INT8U        i;
    OS_TCB      *ptcb1;
    OS_TCB      *ptcb2;

    OSTCBList = (OS_TCB *)0;
30002778:	e59f30b8 	ldr	r3, [pc, #184]	@ 30002838 <OS_InitTCBList+0xcc>
3000277c:	e3a02000 	mov	r2, #0
30002780:	e5832000 	str	r2, [r3]
    for(i = 0; i < OS_LOWEST_PRIO + 1; i++){
30002784:	e3a03000 	mov	r3, #0
30002788:	e54b3005 	strb	r3, [fp, #-5]
3000278c:	ea000006 	b	300027ac <OS_InitTCBList+0x40>
        OSTCBPrioTbl[i] = (OS_TCB *)0;
30002790:	e55b3005 	ldrb	r3, [fp, #-5]
30002794:	e59f20a0 	ldr	r2, [pc, #160]	@ 3000283c <OS_InitTCBList+0xd0>
30002798:	e3a01000 	mov	r1, #0
3000279c:	e7821103 	str	r1, [r2, r3, lsl #2]
    for(i = 0; i < OS_LOWEST_PRIO + 1; i++){
300027a0:	e55b3005 	ldrb	r3, [fp, #-5]
300027a4:	e2833001 	add	r3, r3, #1
300027a8:	e54b3005 	strb	r3, [fp, #-5]
300027ac:	e55b3005 	ldrb	r3, [fp, #-5]
300027b0:	e353003e 	cmp	r3, #62	@ 0x3e
300027b4:	9afffff5 	bls	30002790 <OS_InitTCBList+0x24>
    }
    ptcb1 = &OSTCBTbl[0];
300027b8:	e59f3080 	ldr	r3, [pc, #128]	@ 30002840 <OS_InitTCBList+0xd4>
300027bc:	e50b300c 	str	r3, [fp, #-12]
    ptcb2 = &OSTCBTbl[1];
300027c0:	e59f307c 	ldr	r3, [pc, #124]	@ 30002844 <OS_InitTCBList+0xd8>
300027c4:	e50b3010 	str	r3, [fp, #-16]
    for(i = 0; i < OS_MAX_TASKS + OS_N_SYS_TASKS - 1; i++){
300027c8:	e3a03000 	mov	r3, #0
300027cc:	e54b3005 	strb	r3, [fp, #-5]
300027d0:	ea00000b 	b	30002804 <OS_InitTCBList+0x98>
        ptcb1->OSTCBNext = ptcb2;
300027d4:	e51b300c 	ldr	r3, [fp, #-12]
300027d8:	e51b2010 	ldr	r2, [fp, #-16]
300027dc:	e5832008 	str	r2, [r3, #8]
        ptcb1++;
300027e0:	e51b300c 	ldr	r3, [fp, #-12]
300027e4:	e2833028 	add	r3, r3, #40	@ 0x28
300027e8:	e50b300c 	str	r3, [fp, #-12]
        ptcb2++;
300027ec:	e51b3010 	ldr	r3, [fp, #-16]
300027f0:	e2833028 	add	r3, r3, #40	@ 0x28
300027f4:	e50b3010 	str	r3, [fp, #-16]
    for(i = 0; i < OS_MAX_TASKS + OS_N_SYS_TASKS - 1; i++){
300027f8:	e55b3005 	ldrb	r3, [fp, #-5]
300027fc:	e2833001 	add	r3, r3, #1
30002800:	e54b3005 	strb	r3, [fp, #-5]
30002804:	e55b3005 	ldrb	r3, [fp, #-5]
30002808:	e3530004 	cmp	r3, #4
3000280c:	9afffff0 	bls	300027d4 <OS_InitTCBList+0x68>
    }
    ptcb1->OSTCBNext = (OS_TCB *)0;
30002810:	e51b300c 	ldr	r3, [fp, #-12]
30002814:	e3a02000 	mov	r2, #0
30002818:	e5832008 	str	r2, [r3, #8]
    OSTCBFreeList = &OSTCBTbl[0];
3000281c:	e59f3024 	ldr	r3, [pc, #36]	@ 30002848 <OS_InitTCBList+0xdc>
30002820:	e59f2018 	ldr	r2, [pc, #24]	@ 30002840 <OS_InitTCBList+0xd4>
30002824:	e5832000 	str	r2, [r3]
}
30002828:	e1a00000 	nop			@ (mov r0, r0)
3000282c:	e28bd000 	add	sp, fp, #0
30002830:	e49db004 	pop	{fp}		@ (ldr fp, [sp], #4)
30002834:	e12fff1e 	bx	lr
30002838:	3000b3a0 	.word	0x3000b3a0
3000283c:	3000b3a4 	.word	0x3000b3a4
30002840:	3000b4a0 	.word	0x3000b4a0
30002844:	3000b4c8 	.word	0x3000b4c8
30002848:	3000b398 	.word	0x3000b398

3000284c <OS_Sched>:

void  OS_Sched (void)
{
3000284c:	e92d4800 	push	{fp, lr}
30002850:	e28db004 	add	fp, sp, #4
30002854:	e24dd008 	sub	sp, sp, #8
    OS_CPU_SR  cpu_sr;
    INT8U      y;
    OS_ENTER_CRITICAL();
30002858:	ebfff6ad 	bl	30000314 <OS_CPU_SR_Save>
3000285c:	e50b0008 	str	r0, [fp, #-8]
    if ((OSIntNesting == 0) && (OSLockNesting == 0)) { 
30002860:	e59f30c8 	ldr	r3, [pc, #200]	@ 30002930 <OS_Sched+0xe4>
30002864:	e5d33000 	ldrb	r3, [r3]
30002868:	e3530000 	cmp	r3, #0
3000286c:	1a000029 	bne	30002918 <OS_Sched+0xcc>
30002870:	e59f30bc 	ldr	r3, [pc, #188]	@ 30002934 <OS_Sched+0xe8>
30002874:	e5d33000 	ldrb	r3, [r3]
30002878:	e3530000 	cmp	r3, #0
3000287c:	1a000025 	bne	30002918 <OS_Sched+0xcc>
        y             = OSUnMapTbl[OSRdyGrp];      
30002880:	e59f30b0 	ldr	r3, [pc, #176]	@ 30002938 <OS_Sched+0xec>
30002884:	e5d33000 	ldrb	r3, [r3]
30002888:	e1a02003 	mov	r2, r3
3000288c:	e59f30a8 	ldr	r3, [pc, #168]	@ 3000293c <OS_Sched+0xf0>
30002890:	e7d33002 	ldrb	r3, [r3, r2]
30002894:	e54b3009 	strb	r3, [fp, #-9]
        OSPrioHighRdy = (INT8U)((y << 3) + OSUnMapTbl[OSRdyTbl[y]]);
30002898:	e55b3009 	ldrb	r3, [fp, #-9]
3000289c:	e1a03183 	lsl	r3, r3, #3
300028a0:	e20320ff 	and	r2, r3, #255	@ 0xff
300028a4:	e55b3009 	ldrb	r3, [fp, #-9]
300028a8:	e59f1090 	ldr	r1, [pc, #144]	@ 30002940 <OS_Sched+0xf4>
300028ac:	e7d13003 	ldrb	r3, [r1, r3]
300028b0:	e1a01003 	mov	r1, r3
300028b4:	e59f3080 	ldr	r3, [pc, #128]	@ 3000293c <OS_Sched+0xf0>
300028b8:	e7d33001 	ldrb	r3, [r3, r1]
300028bc:	e0823003 	add	r3, r2, r3
300028c0:	e20320ff 	and	r2, r3, #255	@ 0xff
300028c4:	e59f3078 	ldr	r3, [pc, #120]	@ 30002944 <OS_Sched+0xf8>
300028c8:	e5c32000 	strb	r2, [r3]
        if (OSPrioHighRdy != OSPrioCur) {   
300028cc:	e59f3070 	ldr	r3, [pc, #112]	@ 30002944 <OS_Sched+0xf8>
300028d0:	e5d32000 	ldrb	r2, [r3]
300028d4:	e59f306c 	ldr	r3, [pc, #108]	@ 30002948 <OS_Sched+0xfc>
300028d8:	e5d33000 	ldrb	r3, [r3]
300028dc:	e1520003 	cmp	r2, r3
300028e0:	0a00000c 	beq	30002918 <OS_Sched+0xcc>
            OSTCBHighRdy = OSTCBPrioTbl[OSPrioHighRdy];
300028e4:	e59f3058 	ldr	r3, [pc, #88]	@ 30002944 <OS_Sched+0xf8>
300028e8:	e5d33000 	ldrb	r3, [r3]
300028ec:	e1a02003 	mov	r2, r3
300028f0:	e59f3054 	ldr	r3, [pc, #84]	@ 3000294c <OS_Sched+0x100>
300028f4:	e7933102 	ldr	r3, [r3, r2, lsl #2]
300028f8:	e59f2050 	ldr	r2, [pc, #80]	@ 30002950 <OS_Sched+0x104>
300028fc:	e5823000 	str	r3, [r2]
            OSCtxSwCtr++;                            
30002900:	e59f304c 	ldr	r3, [pc, #76]	@ 30002954 <OS_Sched+0x108>
30002904:	e5933000 	ldr	r3, [r3]
30002908:	e2833001 	add	r3, r3, #1
3000290c:	e59f2040 	ldr	r2, [pc, #64]	@ 30002954 <OS_Sched+0x108>
30002910:	e5823000 	str	r3, [r2]
            OS_TASK_SW(); 
30002914:	ebfff68d 	bl	30000350 <OSCtxSw>
        }
    }
    OS_EXIT_CRITICAL();
30002918:	e51b0008 	ldr	r0, [fp, #-8]
3000291c:	ebfff680 	bl	30000324 <OS_CPU_SR_Restore>
}
30002920:	e1a00000 	nop			@ (mov r0, r0)
30002924:	e24bd004 	sub	sp, fp, #4
30002928:	e8bd4800 	pop	{fp, lr}
3000292c:	e12fff1e 	bx	lr
30002930:	3000aa6c 	.word	0x3000aa6c
30002934:	3000aa6e 	.word	0x3000aa6e
30002938:	3000aa71 	.word	0x3000aa71
3000293c:	30007e9c 	.word	0x30007e9c
30002940:	3000aa74 	.word	0x3000aa74
30002944:	3000aa70 	.word	0x3000aa70
30002948:	3000aa6f 	.word	0x3000aa6f
3000294c:	3000b3a4 	.word	0x3000b3a4
30002950:	3000b39c 	.word	0x3000b39c
30002954:	3000aa80 	.word	0x3000aa80

30002958 <OS_TaskIdle>:

//
void OS_TaskIdle(void *pdata1){
30002958:	e92d4800 	push	{fp, lr}
3000295c:	e28db004 	add	fp, sp, #4
30002960:	e24dd010 	sub	sp, sp, #16
30002964:	e50b0010 	str	r0, [fp, #-16]
    OS_CPU_SR  cpu_sr;                                         //CPU 
    pdata1 = pdata1;                                           // 
    while(1){
        OS_ENTER_CRITICAL();
30002968:	ebfff669 	bl	30000314 <OS_CPU_SR_Save>
3000296c:	e50b0008 	str	r0, [fp, #-8]
        OSIdleCtr++;                                           // 1
30002970:	e59f3020 	ldr	r3, [pc, #32]	@ 30002998 <OS_TaskIdle+0x40>
30002974:	e5933000 	ldr	r3, [r3]
30002978:	e2833001 	add	r3, r3, #1
3000297c:	e59f2014 	ldr	r2, [pc, #20]	@ 30002998 <OS_TaskIdle+0x40>
30002980:	e5823000 	str	r3, [r2]
        OS_EXIT_CRITICAL();
30002984:	e51b0008 	ldr	r0, [fp, #-8]
30002988:	ebfff665 	bl	30000324 <OS_CPU_SR_Restore>
        OSTaskIdleHook();                                     // ,
3000298c:	ebfff939 	bl	30000e78 <OSTaskIdleHook>
        OS_ENTER_CRITICAL();
30002990:	e1a00000 	nop			@ (mov r0, r0)
30002994:	eafffff3 	b	30002968 <OS_TaskIdle+0x10>
30002998:	3000aa84 	.word	0x3000aa84

3000299c <OS_TaskStat>:
    }
}

//
void OS_TaskStat(void *pdata1){
3000299c:	e92d4800 	push	{fp, lr}
300029a0:	e28db004 	add	fp, sp, #4
300029a4:	e24dd018 	sub	sp, sp, #24
300029a8:	e50b0018 	str	r0, [fp, #-24]	@ 0xffffffe8
    INT32U     run;
    INT32U     max;
    INT8S      usage;

    pdata1 = pdata1;                               /*  'pdata'      */
    while (OSStatRdy == FALSE) {
300029ac:	ea000001 	b	300029b8 <OS_TaskStat+0x1c>
        OSTimeDly(2 * OS_TICKS_PER_SEC);         /*                  */
300029b0:	e3a00064 	mov	r0, #100	@ 0x64
300029b4:	eb0012c0 	bl	300074bc <OSTimeDly>
    while (OSStatRdy == FALSE) {
300029b8:	e59f30e4 	ldr	r3, [pc, #228]	@ 30002aa4 <OS_TaskStat+0x108>
300029bc:	e5d33000 	ldrb	r3, [r3]
300029c0:	e3530000 	cmp	r3, #0
300029c4:	0afffff9 	beq	300029b0 <OS_TaskStat+0x14>
    }
    max = OSIdleCtrMax / 100L;
300029c8:	e59f30d8 	ldr	r3, [pc, #216]	@ 30002aa8 <OS_TaskStat+0x10c>
300029cc:	e5933000 	ldr	r3, [r3]
300029d0:	e59f20d4 	ldr	r2, [pc, #212]	@ 30002aac <OS_TaskStat+0x110>
300029d4:	e0831392 	umull	r1, r3, r2, r3
300029d8:	e1a032a3 	lsr	r3, r3, #5
300029dc:	e50b3008 	str	r3, [fp, #-8]
    for (;;) {
        OS_ENTER_CRITICAL();
300029e0:	ebfff64b 	bl	30000314 <OS_CPU_SR_Save>
300029e4:	e50b000c 	str	r0, [fp, #-12]
        OSIdleCtrRun = OSIdleCtr;                /*  */
300029e8:	e59f30c0 	ldr	r3, [pc, #192]	@ 30002ab0 <OS_TaskStat+0x114>
300029ec:	e5933000 	ldr	r3, [r3]
300029f0:	e59f20bc 	ldr	r2, [pc, #188]	@ 30002ab4 <OS_TaskStat+0x118>
300029f4:	e5823000 	str	r3, [r2]
        run          = OSIdleCtr;
300029f8:	e59f30b0 	ldr	r3, [pc, #176]	@ 30002ab0 <OS_TaskStat+0x114>
300029fc:	e5933000 	ldr	r3, [r3]
30002a00:	e50b3010 	str	r3, [fp, #-16]
        OSIdleCtr    = 0L;                       /*          */
30002a04:	e59f30a4 	ldr	r3, [pc, #164]	@ 30002ab0 <OS_TaskStat+0x114>
30002a08:	e3a02000 	mov	r2, #0
30002a0c:	e5832000 	str	r2, [r3]
        OS_EXIT_CRITICAL();
30002a10:	e51b000c 	ldr	r0, [fp, #-12]
30002a14:	ebfff642 	bl	30000324 <OS_CPU_SR_Restore>
        if (max > 0L) {
30002a18:	e51b3008 	ldr	r3, [fp, #-8]
30002a1c:	e3530000 	cmp	r3, #0
30002a20:	0a000012 	beq	30002a70 <OS_TaskStat+0xd4>
            usage = (INT8S)(100L - run / max);
30002a24:	e51b1008 	ldr	r1, [fp, #-8]
30002a28:	e51b0010 	ldr	r0, [fp, #-16]
30002a2c:	eb001419 	bl	30007a98 <__udivsi3>
30002a30:	e1a03000 	mov	r3, r0
30002a34:	e20330ff 	and	r3, r3, #255	@ 0xff
30002a38:	e2633064 	rsb	r3, r3, #100	@ 0x64
30002a3c:	e20330ff 	and	r3, r3, #255	@ 0xff
30002a40:	e54b3011 	strb	r3, [fp, #-17]	@ 0xffffffef
            if (usage >= 0) {                    /*       */
30002a44:	e15b31d1 	ldrsb	r3, [fp, #-17]	@ 0xffffffef
30002a48:	e3530000 	cmp	r3, #0
30002a4c:	ba000003 	blt	30002a60 <OS_TaskStat+0xc4>
                OSCPUUsage = usage;
30002a50:	e55b2011 	ldrb	r2, [fp, #-17]	@ 0xffffffef
30002a54:	e59f305c 	ldr	r3, [pc, #92]	@ 30002ab8 <OS_TaskStat+0x11c>
30002a58:	e5c32000 	strb	r2, [r3]
30002a5c:	ea00000c 	b	30002a94 <OS_TaskStat+0xf8>
            } 
            else {
                OSCPUUsage = 0;
30002a60:	e59f3050 	ldr	r3, [pc, #80]	@ 30002ab8 <OS_TaskStat+0x11c>
30002a64:	e3a02000 	mov	r2, #0
30002a68:	e5c32000 	strb	r2, [r3]
30002a6c:	ea000008 	b	30002a94 <OS_TaskStat+0xf8>
            }
        } 
        else {
            OSCPUUsage = 0;
30002a70:	e59f3040 	ldr	r3, [pc, #64]	@ 30002ab8 <OS_TaskStat+0x11c>
30002a74:	e3a02000 	mov	r2, #0
30002a78:	e5c32000 	strb	r2, [r3]
            max        = OSIdleCtrMax / 100L;
30002a7c:	e59f3024 	ldr	r3, [pc, #36]	@ 30002aa8 <OS_TaskStat+0x10c>
30002a80:	e5933000 	ldr	r3, [r3]
30002a84:	e59f2020 	ldr	r2, [pc, #32]	@ 30002aac <OS_TaskStat+0x110>
30002a88:	e0831392 	umull	r1, r3, r2, r3
30002a8c:	e1a032a3 	lsr	r3, r3, #5
30002a90:	e50b3008 	str	r3, [fp, #-8]
        }
        OSTaskStatHook();                        /*                          */
30002a94:	ebfff8d7 	bl	30000df8 <OSTaskStatHook>
        OSTimeDly(OS_TICKS_PER_SEC);             /*  OSIdleCtr           */
30002a98:	e3a00032 	mov	r0, #50	@ 0x32
30002a9c:	eb001286 	bl	300074bc <OSTimeDly>
        OS_ENTER_CRITICAL();
30002aa0:	eaffffce 	b	300029e0 <OS_TaskStat+0x44>
30002aa4:	3000aa90 	.word	0x3000aa90
30002aa8:	3000aa8c 	.word	0x3000aa8c
30002aac:	51eb851f 	.word	0x51eb851f
30002ab0:	3000aa84 	.word	0x3000aa84
30002ab4:	3000aa88 	.word	0x3000aa88
30002ab8:	3000aa91 	.word	0x3000aa91

30002abc <OS_TCBInit>:

//TCB
INT8U  OS_TCBInit (INT8U  prio, OS_STK  * ptos, 
				   OS_STK * pbos, INT16U  id, 
				   INT32U  stk_size, void * pext, INT16U  opt)
{
30002abc:	e92d4800 	push	{fp, lr}
30002ac0:	e28db004 	add	fp, sp, #4
30002ac4:	e24dd018 	sub	sp, sp, #24
30002ac8:	e50b1014 	str	r1, [fp, #-20]	@ 0xffffffec
30002acc:	e50b2018 	str	r2, [fp, #-24]	@ 0xffffffe8
30002ad0:	e1a02003 	mov	r2, r3
30002ad4:	e1a03000 	mov	r3, r0
30002ad8:	e54b300d 	strb	r3, [fp, #-13]
30002adc:	e1a03002 	mov	r3, r2
30002ae0:	e14b31b0 	strh	r3, [fp, #-16]
    OS_CPU_SR  cpu_sr;

    OS_TCB   *ptcb;
    OS_ENTER_CRITICAL();
30002ae4:	ebfff60a 	bl	30000314 <OS_CPU_SR_Save>
30002ae8:	e50b0008 	str	r0, [fp, #-8]
    ptcb = OSTCBFreeList;      
30002aec:	e59f31d8 	ldr	r3, [pc, #472]	@ 30002ccc <OS_TCBInit+0x210>
30002af0:	e5933000 	ldr	r3, [r3]
30002af4:	e50b300c 	str	r3, [fp, #-12]
    if (ptcb != (OS_TCB *)0) {
30002af8:	e51b300c 	ldr	r3, [fp, #-12]
30002afc:	e3530000 	cmp	r3, #0
30002b00:	0a00006a 	beq	30002cb0 <OS_TCBInit+0x1f4>
        OSTCBFreeList        = ptcb->OSTCBNext;    
30002b04:	e51b300c 	ldr	r3, [fp, #-12]
30002b08:	e5933008 	ldr	r3, [r3, #8]
30002b0c:	e59f21b8 	ldr	r2, [pc, #440]	@ 30002ccc <OS_TCBInit+0x210>
30002b10:	e5823000 	str	r3, [r2]
        OS_EXIT_CRITICAL();
30002b14:	e51b0008 	ldr	r0, [fp, #-8]
30002b18:	ebfff601 	bl	30000324 <OS_CPU_SR_Restore>
        ptcb->OSTCBStkPtr    = (OS_STK *)ptos;
30002b1c:	e51b300c 	ldr	r3, [fp, #-12]
30002b20:	e51b2014 	ldr	r2, [fp, #-20]	@ 0xffffffec
30002b24:	e5832000 	str	r2, [r3]
        ptcb->OSTCBPrio      = (INT8U)prio;                
30002b28:	e51b300c 	ldr	r3, [fp, #-12]
30002b2c:	e55b200d 	ldrb	r2, [fp, #-13]
30002b30:	e5c3201e 	strb	r2, [r3, #30]
        ptcb->OSTCBStat      = OS_STAT_RDY;                
30002b34:	e51b300c 	ldr	r3, [fp, #-12]
30002b38:	e3a02000 	mov	r2, #0
30002b3c:	e5c3201f 	strb	r2, [r3, #31]
        ptcb->OSTCBDly       = 0;                          
30002b40:	e51b300c 	ldr	r3, [fp, #-12]
30002b44:	e3a02000 	mov	r2, #0
30002b48:	e1c321bc 	strh	r2, [r3, #28]
        ptcb->OSTCBDelReq    = OS_NO_ERR;
30002b4c:	e51b300c 	ldr	r3, [fp, #-12]
30002b50:	e3a02000 	mov	r2, #0
30002b54:	e5c32024 	strb	r2, [r3, #36]	@ 0x24
        ptcb->OSTCBY         = prio >> 3;                  
30002b58:	e55b300d 	ldrb	r3, [fp, #-13]
30002b5c:	e1a031a3 	lsr	r3, r3, #3
30002b60:	e20320ff 	and	r2, r3, #255	@ 0xff
30002b64:	e51b300c 	ldr	r3, [fp, #-12]
30002b68:	e5c32021 	strb	r2, [r3, #33]	@ 0x21
        ptcb->OSTCBBitY      = OSMapTbl[ptcb->OSTCBY];
30002b6c:	e51b300c 	ldr	r3, [fp, #-12]
30002b70:	e5d33021 	ldrb	r3, [r3, #33]	@ 0x21
30002b74:	e1a02003 	mov	r2, r3
30002b78:	e59f3150 	ldr	r3, [pc, #336]	@ 30002cd0 <OS_TCBInit+0x214>
30002b7c:	e7d32002 	ldrb	r2, [r3, r2]
30002b80:	e51b300c 	ldr	r3, [fp, #-12]
30002b84:	e5c32023 	strb	r2, [r3, #35]	@ 0x23
        ptcb->OSTCBX         = prio & 0x07;
30002b88:	e55b300d 	ldrb	r3, [fp, #-13]
30002b8c:	e2033007 	and	r3, r3, #7
30002b90:	e20320ff 	and	r2, r3, #255	@ 0xff
30002b94:	e51b300c 	ldr	r3, [fp, #-12]
30002b98:	e5c32020 	strb	r2, [r3, #32]
        ptcb->OSTCBBitX      = OSMapTbl[ptcb->OSTCBX];
30002b9c:	e51b300c 	ldr	r3, [fp, #-12]
30002ba0:	e5d33020 	ldrb	r3, [r3, #32]
30002ba4:	e1a02003 	mov	r2, r3
30002ba8:	e59f3120 	ldr	r3, [pc, #288]	@ 30002cd0 <OS_TCBInit+0x214>
30002bac:	e7d32002 	ldrb	r2, [r3, r2]
30002bb0:	e51b300c 	ldr	r3, [fp, #-12]
30002bb4:	e5c32022 	strb	r2, [r3, #34]	@ 0x22
        ptcb->OSTCBEventPtr  = (OS_EVENT *)0;            
30002bb8:	e51b300c 	ldr	r3, [fp, #-12]
30002bbc:	e3a02000 	mov	r2, #0
30002bc0:	e583200c 	str	r2, [r3, #12]
        ptcb->OSTCBFlagNode  = (OS_FLAG_NODE *)0;      
30002bc4:	e51b300c 	ldr	r3, [fp, #-12]
30002bc8:	e3a02000 	mov	r2, #0
30002bcc:	e5832014 	str	r2, [r3, #20]
        ptcb->OSTCBMsg       = (void *)0;     
30002bd0:	e51b300c 	ldr	r3, [fp, #-12]
30002bd4:	e3a02000 	mov	r2, #0
30002bd8:	e5832010 	str	r2, [r3, #16]
        OSTCBInitHook(ptcb);
30002bdc:	e51b000c 	ldr	r0, [fp, #-12]
30002be0:	ebfff89c 	bl	30000e58 <OSTCBInitHook>

        OSTaskCreateHook(ptcb);                            
30002be4:	e51b000c 	ldr	r0, [fp, #-12]
30002be8:	ebfff862 	bl	30000d78 <OSTaskCreateHook>
        OS_ENTER_CRITICAL();
30002bec:	ebfff5c8 	bl	30000314 <OS_CPU_SR_Save>
30002bf0:	e50b0008 	str	r0, [fp, #-8]
        OSTCBPrioTbl[prio] = ptcb;
30002bf4:	e55b300d 	ldrb	r3, [fp, #-13]
30002bf8:	e59f10d4 	ldr	r1, [pc, #212]	@ 30002cd4 <OS_TCBInit+0x218>
30002bfc:	e51b200c 	ldr	r2, [fp, #-12]
30002c00:	e7812103 	str	r2, [r1, r3, lsl #2]
        ptcb->OSTCBNext    = OSTCBList;                    
30002c04:	e59f30cc 	ldr	r3, [pc, #204]	@ 30002cd8 <OS_TCBInit+0x21c>
30002c08:	e5932000 	ldr	r2, [r3]
30002c0c:	e51b300c 	ldr	r3, [fp, #-12]
30002c10:	e5832008 	str	r2, [r3, #8]
        ptcb->OSTCBPrev    = (OS_TCB *)0;
30002c14:	e51b300c 	ldr	r3, [fp, #-12]
30002c18:	e3a02000 	mov	r2, #0
30002c1c:	e5832004 	str	r2, [r3, #4]
        if (OSTCBList != (OS_TCB *)0) {
30002c20:	e59f30b0 	ldr	r3, [pc, #176]	@ 30002cd8 <OS_TCBInit+0x21c>
30002c24:	e5933000 	ldr	r3, [r3]
30002c28:	e3530000 	cmp	r3, #0
30002c2c:	0a000003 	beq	30002c40 <OS_TCBInit+0x184>
            OSTCBList->OSTCBPrev = ptcb;
30002c30:	e59f30a0 	ldr	r3, [pc, #160]	@ 30002cd8 <OS_TCBInit+0x21c>
30002c34:	e5933000 	ldr	r3, [r3]
30002c38:	e51b200c 	ldr	r2, [fp, #-12]
30002c3c:	e5832004 	str	r2, [r3, #4]
        }
        OSTCBList               = ptcb;
30002c40:	e59f2090 	ldr	r2, [pc, #144]	@ 30002cd8 <OS_TCBInit+0x21c>
30002c44:	e51b300c 	ldr	r3, [fp, #-12]
30002c48:	e5823000 	str	r3, [r2]
        OSRdyGrp               |= ptcb->OSTCBBitY;         
30002c4c:	e51b300c 	ldr	r3, [fp, #-12]
30002c50:	e5d32023 	ldrb	r2, [r3, #35]	@ 0x23
30002c54:	e59f3080 	ldr	r3, [pc, #128]	@ 30002cdc <OS_TCBInit+0x220>
30002c58:	e5d33000 	ldrb	r3, [r3]
30002c5c:	e1823003 	orr	r3, r2, r3
30002c60:	e20320ff 	and	r2, r3, #255	@ 0xff
30002c64:	e59f3070 	ldr	r3, [pc, #112]	@ 30002cdc <OS_TCBInit+0x220>
30002c68:	e5c32000 	strb	r2, [r3]
        OSRdyTbl[ptcb->OSTCBY] |= ptcb->OSTCBBitX;
30002c6c:	e51b300c 	ldr	r3, [fp, #-12]
30002c70:	e5d33021 	ldrb	r3, [r3, #33]	@ 0x21
30002c74:	e1a02003 	mov	r2, r3
30002c78:	e59f3060 	ldr	r3, [pc, #96]	@ 30002ce0 <OS_TCBInit+0x224>
30002c7c:	e7d32002 	ldrb	r2, [r3, r2]
30002c80:	e51b300c 	ldr	r3, [fp, #-12]
30002c84:	e5d33022 	ldrb	r3, [r3, #34]	@ 0x22
30002c88:	e51b100c 	ldr	r1, [fp, #-12]
30002c8c:	e5d11021 	ldrb	r1, [r1, #33]	@ 0x21
30002c90:	e1823003 	orr	r3, r2, r3
30002c94:	e20320ff 	and	r2, r3, #255	@ 0xff
30002c98:	e59f3040 	ldr	r3, [pc, #64]	@ 30002ce0 <OS_TCBInit+0x224>
30002c9c:	e7c32001 	strb	r2, [r3, r1]
        OS_EXIT_CRITICAL();
30002ca0:	e51b0008 	ldr	r0, [fp, #-8]
30002ca4:	ebfff59e 	bl	30000324 <OS_CPU_SR_Restore>
        return (OS_NO_ERR);
30002ca8:	e3a03000 	mov	r3, #0
30002cac:	ea000002 	b	30002cbc <OS_TCBInit+0x200>
    }
    OS_EXIT_CRITICAL();
30002cb0:	e51b0008 	ldr	r0, [fp, #-8]
30002cb4:	ebfff59a 	bl	30000324 <OS_CPU_SR_Restore>
    return (OS_NO_MORE_TCB);
30002cb8:	e3a03046 	mov	r3, #70	@ 0x46
}
30002cbc:	e1a00003 	mov	r0, r3
30002cc0:	e24bd004 	sub	sp, fp, #4
30002cc4:	e8bd4800 	pop	{fp, lr}
30002cc8:	e12fff1e 	bx	lr
30002ccc:	3000b398 	.word	0x3000b398
30002cd0:	30007e94 	.word	0x30007e94
30002cd4:	3000b3a4 	.word	0x3000b3a4
30002cd8:	3000b3a0 	.word	0x3000b3a0
30002cdc:	3000aa71 	.word	0x3000aa71
30002ce0:	3000aa74 	.word	0x3000aa74

30002ce4 <OSFlagAccept>:
* :
* - OS_FLAGS  81632 Mini2440  32  (INT32U) 
*********************************************************************************************************
*/
OS_FLAGS  OSFlagAccept (OS_FLAG_GRP *pgrp, OS_FLAGS flags, INT8U wait_type, INT8U *err)
{
30002ce4:	e92d4800 	push	{fp, lr}
30002ce8:	e28db004 	add	fp, sp, #4
30002cec:	e24dd020 	sub	sp, sp, #32
30002cf0:	e50b0018 	str	r0, [fp, #-24]	@ 0xffffffe8
30002cf4:	e50b101c 	str	r1, [fp, #-28]	@ 0xffffffe4
30002cf8:	e50b3024 	str	r3, [fp, #-36]	@ 0xffffffdc
30002cfc:	e1a03002 	mov	r3, r2
30002d00:	e54b301d 	strb	r3, [fp, #-29]	@ 0xffffffe3
    OS_CPU_SR     cpu_sr;
    OS_FLAGS      flags_cur;
    OS_FLAGS      flags_rdy;
    BOOLEAN       consume;

    if (pgrp == (OS_FLAG_GRP *)0) {                        /* Validate 'pgrp'                          */
30002d04:	e51b3018 	ldr	r3, [fp, #-24]	@ 0xffffffe8
30002d08:	e3530000 	cmp	r3, #0
30002d0c:	1a000004 	bne	30002d24 <OSFlagAccept+0x40>
        *err = OS_FLAG_INVALID_PGRP;
30002d10:	e51b3024 	ldr	r3, [fp, #-36]	@ 0xffffffdc
30002d14:	e3e02069 	mvn	r2, #105	@ 0x69
30002d18:	e5c32000 	strb	r2, [r3]
        return ((OS_FLAGS)0);
30002d1c:	e3a03000 	mov	r3, #0
30002d20:	ea00009b 	b	30002f94 <OSFlagAccept+0x2b0>
    }
    if (pgrp->OSFlagType != OS_EVENT_TYPE_FLAG) {          /* Validate event block type                */
30002d24:	e51b3018 	ldr	r3, [fp, #-24]	@ 0xffffffe8
30002d28:	e5d33000 	ldrb	r3, [r3]
30002d2c:	e3530005 	cmp	r3, #5
30002d30:	0a000004 	beq	30002d48 <OSFlagAccept+0x64>
        *err = OS_ERR_EVENT_TYPE;
30002d34:	e51b3024 	ldr	r3, [fp, #-36]	@ 0xffffffdc
30002d38:	e3a02001 	mov	r2, #1
30002d3c:	e5c32000 	strb	r2, [r3]
        return ((OS_FLAGS)0);
30002d40:	e3a03000 	mov	r3, #0
30002d44:	ea000092 	b	30002f94 <OSFlagAccept+0x2b0>
    }
    if (wait_type & OS_FLAG_CONSUME) {                     /* See if we need to consume the flags      */
30002d48:	e15b31dd 	ldrsb	r3, [fp, #-29]	@ 0xffffffe3
30002d4c:	e3530000 	cmp	r3, #0
30002d50:	aa000005 	bge	30002d6c <OSFlagAccept+0x88>
        wait_type &= ~OS_FLAG_CONSUME;
30002d54:	e55b301d 	ldrb	r3, [fp, #-29]	@ 0xffffffe3
30002d58:	e203307f 	and	r3, r3, #127	@ 0x7f
30002d5c:	e54b301d 	strb	r3, [fp, #-29]	@ 0xffffffe3
        consume    = TRUE;
30002d60:	e3a03001 	mov	r3, #1
30002d64:	e54b3009 	strb	r3, [fp, #-9]
30002d68:	ea000001 	b	30002d74 <OSFlagAccept+0x90>
    } 
    else {
        consume    = FALSE;
30002d6c:	e3a03000 	mov	r3, #0
30002d70:	e54b3009 	strb	r3, [fp, #-9]
    }
    *err = OS_NO_ERR;                                      /* Assume NO error until proven otherwise.  */
30002d74:	e51b3024 	ldr	r3, [fp, #-36]	@ 0xffffffdc
30002d78:	e3a02000 	mov	r2, #0
30002d7c:	e5c32000 	strb	r2, [r3]
    OS_ENTER_CRITICAL();
30002d80:	ebfff563 	bl	30000314 <OS_CPU_SR_Save>
30002d84:	e50b0010 	str	r0, [fp, #-16]
    switch (wait_type) {
30002d88:	e55b301d 	ldrb	r3, [fp, #-29]	@ 0xffffffe3
30002d8c:	e3530003 	cmp	r3, #3
30002d90:	979ff103 	ldrls	pc, [pc, r3, lsl #2]
30002d94:	ea000075 	b	30002f70 <OSFlagAccept+0x28c>
30002d98:	30002e8c 	.word	0x30002e8c
30002d9c:	30002f00 	.word	0x30002f00
30002da0:	30002da8 	.word	0x30002da8
30002da4:	30002e1c 	.word	0x30002e1c
        case OS_FLAG_WAIT_SET_ALL:                         /* See if all required flags are set        */
             flags_rdy = pgrp->OSFlagFlags & flags;        /* Extract only the bits we want            */
30002da8:	e51b3018 	ldr	r3, [fp, #-24]	@ 0xffffffe8
30002dac:	e5933008 	ldr	r3, [r3, #8]
30002db0:	e51b201c 	ldr	r2, [fp, #-28]	@ 0xffffffe4
30002db4:	e0033002 	and	r3, r3, r2
30002db8:	e50b3014 	str	r3, [fp, #-20]	@ 0xffffffec
             if (flags_rdy == flags) {                     /* Must match ALL the bits that we want     */
30002dbc:	e51b2014 	ldr	r2, [fp, #-20]	@ 0xffffffec
30002dc0:	e51b301c 	ldr	r3, [fp, #-28]	@ 0xffffffe4
30002dc4:	e1520003 	cmp	r2, r3
30002dc8:	1a00000a 	bne	30002df8 <OSFlagAccept+0x114>
                 if (consume == TRUE) {                    /* See if we need to consume the flags      */
30002dcc:	e55b3009 	ldrb	r3, [fp, #-9]
30002dd0:	e3530001 	cmp	r3, #1
30002dd4:	1a00000a 	bne	30002e04 <OSFlagAccept+0x120>
                     pgrp->OSFlagFlags &= ~flags_rdy;      /* Clear ONLY the flags that we wanted      */
30002dd8:	e51b3018 	ldr	r3, [fp, #-24]	@ 0xffffffe8
30002ddc:	e5932008 	ldr	r2, [r3, #8]
30002de0:	e51b3014 	ldr	r3, [fp, #-20]	@ 0xffffffec
30002de4:	e1e03003 	mvn	r3, r3
30002de8:	e0022003 	and	r2, r2, r3
30002dec:	e51b3018 	ldr	r3, [fp, #-24]	@ 0xffffffe8
30002df0:	e5832008 	str	r2, [r3, #8]
30002df4:	ea000002 	b	30002e04 <OSFlagAccept+0x120>
                 }
             } else {
                 *err  = OS_FLAG_ERR_NOT_RDY;
30002df8:	e51b3024 	ldr	r3, [fp, #-36]	@ 0xffffffdc
30002dfc:	e3e02067 	mvn	r2, #103	@ 0x67
30002e00:	e5c32000 	strb	r2, [r3]
             }
             flags_cur = pgrp->OSFlagFlags;                /* Will return the state of the group       */
30002e04:	e51b3018 	ldr	r3, [fp, #-24]	@ 0xffffffe8
30002e08:	e5933008 	ldr	r3, [r3, #8]
30002e0c:	e50b3008 	str	r3, [fp, #-8]
             OS_EXIT_CRITICAL();
30002e10:	e51b0010 	ldr	r0, [fp, #-16]
30002e14:	ebfff542 	bl	30000324 <OS_CPU_SR_Restore>
             break;
30002e18:	ea00005c 	b	30002f90 <OSFlagAccept+0x2ac>

        case OS_FLAG_WAIT_SET_ANY:
             flags_rdy = pgrp->OSFlagFlags & flags;        /* Extract only the bits we want            */
30002e1c:	e51b3018 	ldr	r3, [fp, #-24]	@ 0xffffffe8
30002e20:	e5933008 	ldr	r3, [r3, #8]
30002e24:	e51b201c 	ldr	r2, [fp, #-28]	@ 0xffffffe4
30002e28:	e0033002 	and	r3, r3, r2
30002e2c:	e50b3014 	str	r3, [fp, #-20]	@ 0xffffffec
             if (flags_rdy != (OS_FLAGS)0) {               /* See if any flag set                      */
30002e30:	e51b3014 	ldr	r3, [fp, #-20]	@ 0xffffffec
30002e34:	e3530000 	cmp	r3, #0
30002e38:	0a00000a 	beq	30002e68 <OSFlagAccept+0x184>
                 if (consume == TRUE) {                    /* See if we need to consume the flags      */
30002e3c:	e55b3009 	ldrb	r3, [fp, #-9]
30002e40:	e3530001 	cmp	r3, #1
30002e44:	1a00000a 	bne	30002e74 <OSFlagAccept+0x190>
                     pgrp->OSFlagFlags &= ~flags_rdy;      /* Clear ONLY the flags that we got         */
30002e48:	e51b3018 	ldr	r3, [fp, #-24]	@ 0xffffffe8
30002e4c:	e5932008 	ldr	r2, [r3, #8]
30002e50:	e51b3014 	ldr	r3, [fp, #-20]	@ 0xffffffec
30002e54:	e1e03003 	mvn	r3, r3
30002e58:	e0022003 	and	r2, r2, r3
30002e5c:	e51b3018 	ldr	r3, [fp, #-24]	@ 0xffffffe8
30002e60:	e5832008 	str	r2, [r3, #8]
30002e64:	ea000002 	b	30002e74 <OSFlagAccept+0x190>
                 }
             } else {
                 *err  = OS_FLAG_ERR_NOT_RDY;
30002e68:	e51b3024 	ldr	r3, [fp, #-36]	@ 0xffffffdc
30002e6c:	e3e02067 	mvn	r2, #103	@ 0x67
30002e70:	e5c32000 	strb	r2, [r3]
             }
             flags_cur = pgrp->OSFlagFlags;                /* Will return the state of the group       */
30002e74:	e51b3018 	ldr	r3, [fp, #-24]	@ 0xffffffe8
30002e78:	e5933008 	ldr	r3, [r3, #8]
30002e7c:	e50b3008 	str	r3, [fp, #-8]
             OS_EXIT_CRITICAL();
30002e80:	e51b0010 	ldr	r0, [fp, #-16]
30002e84:	ebfff526 	bl	30000324 <OS_CPU_SR_Restore>
             break;
30002e88:	ea000040 	b	30002f90 <OSFlagAccept+0x2ac>

        case OS_FLAG_WAIT_CLR_ALL:                         /* See if all required flags are cleared    */
             flags_rdy = ~pgrp->OSFlagFlags & flags;       /* Extract only the bits we want            */
30002e8c:	e51b3018 	ldr	r3, [fp, #-24]	@ 0xffffffe8
30002e90:	e5933008 	ldr	r3, [r3, #8]
30002e94:	e1e03003 	mvn	r3, r3
30002e98:	e51b201c 	ldr	r2, [fp, #-28]	@ 0xffffffe4
30002e9c:	e0033002 	and	r3, r3, r2
30002ea0:	e50b3014 	str	r3, [fp, #-20]	@ 0xffffffec
             if (flags_rdy == flags) {                     /* Must match ALL the bits that we want     */
30002ea4:	e51b2014 	ldr	r2, [fp, #-20]	@ 0xffffffec
30002ea8:	e51b301c 	ldr	r3, [fp, #-28]	@ 0xffffffe4
30002eac:	e1520003 	cmp	r2, r3
30002eb0:	1a000009 	bne	30002edc <OSFlagAccept+0x1f8>
                 if (consume == TRUE) {                    /* See if we need to consume the flags      */
30002eb4:	e55b3009 	ldrb	r3, [fp, #-9]
30002eb8:	e3530001 	cmp	r3, #1
30002ebc:	1a000009 	bne	30002ee8 <OSFlagAccept+0x204>
                     pgrp->OSFlagFlags |= flags_rdy;       /* Set ONLY the flags that we wanted        */
30002ec0:	e51b3018 	ldr	r3, [fp, #-24]	@ 0xffffffe8
30002ec4:	e5932008 	ldr	r2, [r3, #8]
30002ec8:	e51b3014 	ldr	r3, [fp, #-20]	@ 0xffffffec
30002ecc:	e1822003 	orr	r2, r2, r3
30002ed0:	e51b3018 	ldr	r3, [fp, #-24]	@ 0xffffffe8
30002ed4:	e5832008 	str	r2, [r3, #8]
30002ed8:	ea000002 	b	30002ee8 <OSFlagAccept+0x204>
                 }
             } else {
                 *err  = OS_FLAG_ERR_NOT_RDY;
30002edc:	e51b3024 	ldr	r3, [fp, #-36]	@ 0xffffffdc
30002ee0:	e3e02067 	mvn	r2, #103	@ 0x67
30002ee4:	e5c32000 	strb	r2, [r3]
             }
             flags_cur = pgrp->OSFlagFlags;                /* Will return the state of the group       */
30002ee8:	e51b3018 	ldr	r3, [fp, #-24]	@ 0xffffffe8
30002eec:	e5933008 	ldr	r3, [r3, #8]
30002ef0:	e50b3008 	str	r3, [fp, #-8]
             OS_EXIT_CRITICAL();
30002ef4:	e51b0010 	ldr	r0, [fp, #-16]
30002ef8:	ebfff509 	bl	30000324 <OS_CPU_SR_Restore>
             break;
30002efc:	ea000023 	b	30002f90 <OSFlagAccept+0x2ac>

        case OS_FLAG_WAIT_CLR_ANY:
             flags_rdy = ~pgrp->OSFlagFlags & flags;       /* Extract only the bits we want            */
30002f00:	e51b3018 	ldr	r3, [fp, #-24]	@ 0xffffffe8
30002f04:	e5933008 	ldr	r3, [r3, #8]
30002f08:	e1e03003 	mvn	r3, r3
30002f0c:	e51b201c 	ldr	r2, [fp, #-28]	@ 0xffffffe4
30002f10:	e0033002 	and	r3, r3, r2
30002f14:	e50b3014 	str	r3, [fp, #-20]	@ 0xffffffec
             if (flags_rdy != (OS_FLAGS)0) {               /* See if any flag cleared                  */
30002f18:	e51b3014 	ldr	r3, [fp, #-20]	@ 0xffffffec
30002f1c:	e3530000 	cmp	r3, #0
30002f20:	0a000009 	beq	30002f4c <OSFlagAccept+0x268>
                 if (consume == TRUE) {                    /* See if we need to consume the flags      */
30002f24:	e55b3009 	ldrb	r3, [fp, #-9]
30002f28:	e3530001 	cmp	r3, #1
30002f2c:	1a000009 	bne	30002f58 <OSFlagAccept+0x274>
                     pgrp->OSFlagFlags |= flags_rdy;       /* Set ONLY the flags that we got           */
30002f30:	e51b3018 	ldr	r3, [fp, #-24]	@ 0xffffffe8
30002f34:	e5932008 	ldr	r2, [r3, #8]
30002f38:	e51b3014 	ldr	r3, [fp, #-20]	@ 0xffffffec
30002f3c:	e1822003 	orr	r2, r2, r3
30002f40:	e51b3018 	ldr	r3, [fp, #-24]	@ 0xffffffe8
30002f44:	e5832008 	str	r2, [r3, #8]
30002f48:	ea000002 	b	30002f58 <OSFlagAccept+0x274>
                 }
             } else {
                 *err  = OS_FLAG_ERR_NOT_RDY;
30002f4c:	e51b3024 	ldr	r3, [fp, #-36]	@ 0xffffffdc
30002f50:	e3e02067 	mvn	r2, #103	@ 0x67
30002f54:	e5c32000 	strb	r2, [r3]
             }
             flags_cur = pgrp->OSFlagFlags;                /* Will return the state of the group       */
30002f58:	e51b3018 	ldr	r3, [fp, #-24]	@ 0xffffffe8
30002f5c:	e5933008 	ldr	r3, [r3, #8]
30002f60:	e50b3008 	str	r3, [fp, #-8]
             OS_EXIT_CRITICAL();
30002f64:	e51b0010 	ldr	r0, [fp, #-16]
30002f68:	ebfff4ed 	bl	30000324 <OS_CPU_SR_Restore>
             break;
30002f6c:	ea000007 	b	30002f90 <OSFlagAccept+0x2ac>
        default:
             OS_EXIT_CRITICAL();
30002f70:	e51b0010 	ldr	r0, [fp, #-16]
30002f74:	ebfff4ea 	bl	30000324 <OS_CPU_SR_Restore>
             flags_cur = (OS_FLAGS)0;
30002f78:	e3a03000 	mov	r3, #0
30002f7c:	e50b3008 	str	r3, [fp, #-8]
             *err      = OS_FLAG_ERR_WAIT_TYPE;
30002f80:	e51b3024 	ldr	r3, [fp, #-36]	@ 0xffffffdc
30002f84:	e3e02068 	mvn	r2, #104	@ 0x68
30002f88:	e5c32000 	strb	r2, [r3]
             break;
30002f8c:	e1a00000 	nop			@ (mov r0, r0)
    }
    return (flags_cur);
30002f90:	e51b3008 	ldr	r3, [fp, #-8]
}
30002f94:	e1a00003 	mov	r0, r3
30002f98:	e24bd004 	sub	sp, fp, #4
30002f9c:	e8bd4800 	pop	{fp, lr}
30002fa0:	e12fff1e 	bx	lr

30002fa4 <OSFlagCreate>:
* :
* - 
*********************************************************************************************************
*/
OS_FLAG_GRP  *OSFlagCreate (OS_FLAGS flags, INT8U *err)
{
30002fa4:	e92d4800 	push	{fp, lr}
30002fa8:	e28db004 	add	fp, sp, #4
30002fac:	e24dd010 	sub	sp, sp, #16
30002fb0:	e50b0010 	str	r0, [fp, #-16]
30002fb4:	e50b1014 	str	r1, [fp, #-20]	@ 0xffffffec
    // 
    OS_CPU_SR    cpu_sr;
    OS_FLAG_GRP  *pflag;

    if(OSIntNesting > 0){
30002fb8:	e59f30b4 	ldr	r3, [pc, #180]	@ 30003074 <OSFlagCreate+0xd0>
30002fbc:	e5d33000 	ldrb	r3, [r3]
30002fc0:	e3530000 	cmp	r3, #0
30002fc4:	0a000004 	beq	30002fdc <OSFlagCreate+0x38>
        *err = OS_ERR_CREATE_ISR;
30002fc8:	e51b3014 	ldr	r3, [fp, #-20]	@ 0xffffffec
30002fcc:	e3e02072 	mvn	r2, #114	@ 0x72
30002fd0:	e5c32000 	strb	r2, [r3]
        return ((OS_FLAG_GRP *)0);
30002fd4:	e3a03000 	mov	r3, #0
30002fd8:	ea000021 	b	30003064 <OSFlagCreate+0xc0>
    }
    OS_ENTER_CRITICAL();
30002fdc:	ebfff4cc 	bl	30000314 <OS_CPU_SR_Save>
30002fe0:	e50b0008 	str	r0, [fp, #-8]
    pflag = OSFlagFreeList;
30002fe4:	e59f308c 	ldr	r3, [pc, #140]	@ 30003078 <OSFlagCreate+0xd4>
30002fe8:	e5933000 	ldr	r3, [r3]
30002fec:	e50b300c 	str	r3, [fp, #-12]
    if(pflag != (OS_FLAG_GRP *)0){
30002ff0:	e51b300c 	ldr	r3, [fp, #-12]
30002ff4:	e3530000 	cmp	r3, #0
30002ff8:	0a000013 	beq	3000304c <OSFlagCreate+0xa8>
        OSFlagFreeList = (OS_FLAG_GRP *)OSFlagFreeList->OSFlagWaitList;
30002ffc:	e59f3074 	ldr	r3, [pc, #116]	@ 30003078 <OSFlagCreate+0xd4>
30003000:	e5933000 	ldr	r3, [r3]
30003004:	e5933004 	ldr	r3, [r3, #4]
30003008:	e59f2068 	ldr	r2, [pc, #104]	@ 30003078 <OSFlagCreate+0xd4>
3000300c:	e5823000 	str	r3, [r2]
        OS_EXIT_CRITICAL();
30003010:	e51b0008 	ldr	r0, [fp, #-8]
30003014:	ebfff4c2 	bl	30000324 <OS_CPU_SR_Restore>
        pflag->OSFlagType = OS_EVENT_TYPE_FLAG;
30003018:	e51b300c 	ldr	r3, [fp, #-12]
3000301c:	e3a02005 	mov	r2, #5
30003020:	e5c32000 	strb	r2, [r3]
        pflag->OSFlagFlags = flags;
30003024:	e51b300c 	ldr	r3, [fp, #-12]
30003028:	e51b2010 	ldr	r2, [fp, #-16]
3000302c:	e5832008 	str	r2, [r3, #8]
        pflag->OSFlagWaitList = (void *)0;
30003030:	e51b300c 	ldr	r3, [fp, #-12]
30003034:	e3a02000 	mov	r2, #0
30003038:	e5832004 	str	r2, [r3, #4]
        *err = OS_NO_ERR;
3000303c:	e51b3014 	ldr	r3, [fp, #-20]	@ 0xffffffec
30003040:	e3a02000 	mov	r2, #0
30003044:	e5c32000 	strb	r2, [r3]
30003048:	ea000004 	b	30003060 <OSFlagCreate+0xbc>
    }
    else{
        OS_EXIT_CRITICAL();
3000304c:	e51b0008 	ldr	r0, [fp, #-8]
30003050:	ebfff4b3 	bl	30000324 <OS_CPU_SR_Restore>
        *err =OS_FLAG_GRP_DEPLETED;
30003054:	e51b3014 	ldr	r3, [fp, #-20]	@ 0xffffffec
30003058:	e3e02065 	mvn	r2, #101	@ 0x65
3000305c:	e5c32000 	strb	r2, [r3]
    }
    return(pflag);
30003060:	e51b300c 	ldr	r3, [fp, #-12]
}
30003064:	e1a00003 	mov	r0, r3
30003068:	e24bd004 	sub	sp, fp, #4
3000306c:	e8bd4800 	pop	{fp, lr}
30003070:	e12fff1e 	bx	lr
30003074:	3000aa6c 	.word	0x3000aa6c
30003078:	3000b5a8 	.word	0x3000b5a8

3000307c <OSFlagDel>:
* :
* - 
*********************************************************************************************************
*/
OS_FLAG_GRP  *OSFlagDel (OS_FLAG_GRP *pgrp, INT8U opt, INT8U *err)
{
3000307c:	e92d4800 	push	{fp, lr}
30003080:	e28db004 	add	fp, sp, #4
30003084:	e24dd020 	sub	sp, sp, #32
30003088:	e50b0018 	str	r0, [fp, #-24]	@ 0xffffffe8
3000308c:	e1a03001 	mov	r3, r1
30003090:	e50b2020 	str	r2, [fp, #-32]	@ 0xffffffe0
30003094:	e54b3019 	strb	r3, [fp, #-25]	@ 0xffffffe7
    OS_CPU_SR     cpu_sr;
    BOOLEAN       tasks_waiting;
    OS_FLAG_NODE *pnode;


    if (OSIntNesting > 0) {                                /* See if called from ISR ...               */
30003098:	e59f31c0 	ldr	r3, [pc, #448]	@ 30003260 <OSFlagDel+0x1e4>
3000309c:	e5d33000 	ldrb	r3, [r3]
300030a0:	e3530000 	cmp	r3, #0
300030a4:	0a000004 	beq	300030bc <OSFlagDel+0x40>
        *err = OS_ERR_DEL_ISR;                             /* ... can't DELETE from an ISR             */
300030a8:	e51b3020 	ldr	r3, [fp, #-32]	@ 0xffffffe0
300030ac:	e3e02073 	mvn	r2, #115	@ 0x73
300030b0:	e5c32000 	strb	r2, [r3]
        return (pgrp);
300030b4:	e51b3018 	ldr	r3, [fp, #-24]	@ 0xffffffe8
300030b8:	ea000064 	b	30003250 <OSFlagDel+0x1d4>
    }
    if (pgrp == (OS_FLAG_GRP *)0) {                        /* Validate 'pgrp'                          */
300030bc:	e51b3018 	ldr	r3, [fp, #-24]	@ 0xffffffe8
300030c0:	e3530000 	cmp	r3, #0
300030c4:	1a000004 	bne	300030dc <OSFlagDel+0x60>
        *err = OS_FLAG_INVALID_PGRP;
300030c8:	e51b3020 	ldr	r3, [fp, #-32]	@ 0xffffffe0
300030cc:	e3e02069 	mvn	r2, #105	@ 0x69
300030d0:	e5c32000 	strb	r2, [r3]
        return (pgrp);
300030d4:	e51b3018 	ldr	r3, [fp, #-24]	@ 0xffffffe8
300030d8:	ea00005c 	b	30003250 <OSFlagDel+0x1d4>
    }
    if (pgrp->OSFlagType != OS_EVENT_TYPE_FLAG) {          /* Validate event group type                */
300030dc:	e51b3018 	ldr	r3, [fp, #-24]	@ 0xffffffe8
300030e0:	e5d33000 	ldrb	r3, [r3]
300030e4:	e3530005 	cmp	r3, #5
300030e8:	0a000004 	beq	30003100 <OSFlagDel+0x84>
        *err = OS_ERR_EVENT_TYPE;
300030ec:	e51b3020 	ldr	r3, [fp, #-32]	@ 0xffffffe0
300030f0:	e3a02001 	mov	r2, #1
300030f4:	e5c32000 	strb	r2, [r3]
        return (pgrp);
300030f8:	e51b3018 	ldr	r3, [fp, #-24]	@ 0xffffffe8
300030fc:	ea000053 	b	30003250 <OSFlagDel+0x1d4>
    }
    OS_ENTER_CRITICAL();
30003100:	ebfff483 	bl	30000314 <OS_CPU_SR_Save>
30003104:	e50b0010 	str	r0, [fp, #-16]
    if (pgrp->OSFlagWaitList != (void *)0) {               /* See if any tasks waiting on event flags  */
30003108:	e51b3018 	ldr	r3, [fp, #-24]	@ 0xffffffe8
3000310c:	e5933004 	ldr	r3, [r3, #4]
30003110:	e3530000 	cmp	r3, #0
30003114:	0a000002 	beq	30003124 <OSFlagDel+0xa8>
        tasks_waiting = TRUE;                              /* Yes                                      */
30003118:	e3a03001 	mov	r3, #1
3000311c:	e54b3005 	strb	r3, [fp, #-5]
30003120:	ea000001 	b	3000312c <OSFlagDel+0xb0>
    } else {
        tasks_waiting = FALSE;                             /* No                                       */
30003124:	e3a03000 	mov	r3, #0
30003128:	e54b3005 	strb	r3, [fp, #-5]
    }
    switch (opt) {
3000312c:	e55b3019 	ldrb	r3, [fp, #-25]	@ 0xffffffe7
30003130:	e3530000 	cmp	r3, #0
30003134:	0a000002 	beq	30003144 <OSFlagDel+0xc8>
30003138:	e3530001 	cmp	r3, #1
3000313c:	0a00001b 	beq	300031b0 <OSFlagDel+0x134>
30003140:	ea00003c 	b	30003238 <OSFlagDel+0x1bc>
        case OS_DEL_NO_PEND:                               /* Delete group if no task waiting          */
             if (tasks_waiting == FALSE) {
30003144:	e55b3005 	ldrb	r3, [fp, #-5]
30003148:	e3530000 	cmp	r3, #0
3000314c:	1a000010 	bne	30003194 <OSFlagDel+0x118>
                 pgrp->OSFlagType     = OS_EVENT_TYPE_UNUSED;
30003150:	e51b3018 	ldr	r3, [fp, #-24]	@ 0xffffffe8
30003154:	e3a02000 	mov	r2, #0
30003158:	e5c32000 	strb	r2, [r3]
                 pgrp->OSFlagWaitList = (void *)OSFlagFreeList; /* Return group to free list           */
3000315c:	e59f3100 	ldr	r3, [pc, #256]	@ 30003264 <OSFlagDel+0x1e8>
30003160:	e5932000 	ldr	r2, [r3]
30003164:	e51b3018 	ldr	r3, [fp, #-24]	@ 0xffffffe8
30003168:	e5832004 	str	r2, [r3, #4]
                 OSFlagFreeList       = pgrp;
3000316c:	e59f20f0 	ldr	r2, [pc, #240]	@ 30003264 <OSFlagDel+0x1e8>
30003170:	e51b3018 	ldr	r3, [fp, #-24]	@ 0xffffffe8
30003174:	e5823000 	str	r3, [r2]
                 OS_EXIT_CRITICAL();
30003178:	e51b0010 	ldr	r0, [fp, #-16]
3000317c:	ebfff468 	bl	30000324 <OS_CPU_SR_Restore>
                 *err                 = OS_NO_ERR;
30003180:	e51b3020 	ldr	r3, [fp, #-32]	@ 0xffffffe0
30003184:	e3a02000 	mov	r2, #0
30003188:	e5c32000 	strb	r2, [r3]
                 return ((OS_FLAG_GRP *)0);                /* Event Flag Group has been deleted        */
3000318c:	e3a03000 	mov	r3, #0
30003190:	ea00002e 	b	30003250 <OSFlagDel+0x1d4>
             } else {
                 OS_EXIT_CRITICAL();
30003194:	e51b0010 	ldr	r0, [fp, #-16]
30003198:	ebfff461 	bl	30000324 <OS_CPU_SR_Restore>
                 *err                 = OS_ERR_TASK_WAITING;
3000319c:	e51b3020 	ldr	r3, [fp, #-32]	@ 0xffffffe0
300031a0:	e3a02008 	mov	r2, #8
300031a4:	e5c32000 	strb	r2, [r3]
                 return (pgrp);
300031a8:	e51b3018 	ldr	r3, [fp, #-24]	@ 0xffffffe8
300031ac:	ea000027 	b	30003250 <OSFlagDel+0x1d4>
             }

        case OS_DEL_ALWAYS:                                /* Always delete the event flag group       */
             pnode = (OS_FLAG_NODE *)pgrp->OSFlagWaitList;
300031b0:	e51b3018 	ldr	r3, [fp, #-24]	@ 0xffffffe8
300031b4:	e5933004 	ldr	r3, [r3, #4]
300031b8:	e50b300c 	str	r3, [fp, #-12]
             while (pnode != (OS_FLAG_NODE *)0) {          /* Ready ALL tasks waiting for flags        */
300031bc:	ea000005 	b	300031d8 <OSFlagDel+0x15c>
                 OS_FlagTaskRdy(pnode, (OS_FLAGS)0);
300031c0:	e3a01000 	mov	r1, #0
300031c4:	e51b000c 	ldr	r0, [fp, #-12]
300031c8:	eb000239 	bl	30003ab4 <OS_FlagTaskRdy>
                 pnode = (OS_FLAG_NODE *)pnode->OSFlagNodeNext;
300031cc:	e51b300c 	ldr	r3, [fp, #-12]
300031d0:	e5933000 	ldr	r3, [r3]
300031d4:	e50b300c 	str	r3, [fp, #-12]
             while (pnode != (OS_FLAG_NODE *)0) {          /* Ready ALL tasks waiting for flags        */
300031d8:	e51b300c 	ldr	r3, [fp, #-12]
300031dc:	e3530000 	cmp	r3, #0
300031e0:	1afffff6 	bne	300031c0 <OSFlagDel+0x144>
             }
             pgrp->OSFlagType     = OS_EVENT_TYPE_UNUSED;
300031e4:	e51b3018 	ldr	r3, [fp, #-24]	@ 0xffffffe8
300031e8:	e3a02000 	mov	r2, #0
300031ec:	e5c32000 	strb	r2, [r3]
             pgrp->OSFlagWaitList = (void *)OSFlagFreeList;/* Return group to free list                */
300031f0:	e59f306c 	ldr	r3, [pc, #108]	@ 30003264 <OSFlagDel+0x1e8>
300031f4:	e5932000 	ldr	r2, [r3]
300031f8:	e51b3018 	ldr	r3, [fp, #-24]	@ 0xffffffe8
300031fc:	e5832004 	str	r2, [r3, #4]
             OSFlagFreeList       = pgrp;
30003200:	e59f205c 	ldr	r2, [pc, #92]	@ 30003264 <OSFlagDel+0x1e8>
30003204:	e51b3018 	ldr	r3, [fp, #-24]	@ 0xffffffe8
30003208:	e5823000 	str	r3, [r2]
             OS_EXIT_CRITICAL();
3000320c:	e51b0010 	ldr	r0, [fp, #-16]
30003210:	ebfff443 	bl	30000324 <OS_CPU_SR_Restore>
             if (tasks_waiting == TRUE) {                  /* Reschedule only if task(s) were waiting  */
30003214:	e55b3005 	ldrb	r3, [fp, #-5]
30003218:	e3530001 	cmp	r3, #1
3000321c:	1a000000 	bne	30003224 <OSFlagDel+0x1a8>
                 OS_Sched();                               /* Find highest priority task ready to run  */
30003220:	ebfffd89 	bl	3000284c <OS_Sched>
             }
             *err = OS_NO_ERR;
30003224:	e51b3020 	ldr	r3, [fp, #-32]	@ 0xffffffe0
30003228:	e3a02000 	mov	r2, #0
3000322c:	e5c32000 	strb	r2, [r3]
             return ((OS_FLAG_GRP *)0);                    /* Event Flag Group has been deleted        */
30003230:	e3a03000 	mov	r3, #0
30003234:	ea000005 	b	30003250 <OSFlagDel+0x1d4>

        default:
             OS_EXIT_CRITICAL();
30003238:	e51b0010 	ldr	r0, [fp, #-16]
3000323c:	ebfff438 	bl	30000324 <OS_CPU_SR_Restore>
             *err = OS_ERR_INVALID_OPT;
30003240:	e51b3020 	ldr	r3, [fp, #-32]	@ 0xffffffe0
30003244:	e3a02007 	mov	r2, #7
30003248:	e5c32000 	strb	r2, [r3]
             return (pgrp);
3000324c:	e51b3018 	ldr	r3, [fp, #-24]	@ 0xffffffe8
    }
}
30003250:	e1a00003 	mov	r0, r3
30003254:	e24bd004 	sub	sp, fp, #4
30003258:	e8bd4800 	pop	{fp, lr}
3000325c:	e12fff1e 	bx	lr
30003260:	3000aa6c 	.word	0x3000aa6c
30003264:	3000b5a8 	.word	0x3000b5a8

30003268 <OSFlagPend>:
* - OS_FLAG_NODE  uC/OS-II 
*  `OS_FLAG_NODE` 
*********************************************************************************************************
*/
OS_FLAGS  OSFlagPend (OS_FLAG_GRP *pgrp, OS_FLAGS flags, INT8U wait_type, INT16U timeout, INT8U *err)
{
30003268:	e92d4800 	push	{fp, lr}
3000326c:	e28db004 	add	fp, sp, #4
30003270:	e24dd040 	sub	sp, sp, #64	@ 0x40
30003274:	e50b0030 	str	r0, [fp, #-48]	@ 0xffffffd0
30003278:	e50b1034 	str	r1, [fp, #-52]	@ 0xffffffcc
3000327c:	e1a01002 	mov	r1, r2
30003280:	e1a02003 	mov	r2, r3
30003284:	e1a03001 	mov	r3, r1
30003288:	e54b3035 	strb	r3, [fp, #-53]	@ 0xffffffcb
3000328c:	e1a03002 	mov	r3, r2
30003290:	e14b33b8 	strh	r3, [fp, #-56]	@ 0xffffffc8
    OS_FLAG_NODE  node;
    OS_FLAGS      flags_cur;
    OS_FLAGS      flags_rdy;
    BOOLEAN       consume;

    if (OSIntNesting > 0) {                                /* See if called from ISR ...               */
30003294:	e59f3460 	ldr	r3, [pc, #1120]	@ 300036fc <OSFlagPend+0x494>
30003298:	e5d33000 	ldrb	r3, [r3]
3000329c:	e3530000 	cmp	r3, #0
300032a0:	0a000004 	beq	300032b8 <OSFlagPend+0x50>
        *err = OS_ERR_PEND_ISR;                            /* ... can't PEND from an ISR               */
300032a4:	e59b3004 	ldr	r3, [fp, #4]
300032a8:	e3a02002 	mov	r2, #2
300032ac:	e5c32000 	strb	r2, [r3]
        return ((OS_FLAGS)0);
300032b0:	e3a03000 	mov	r3, #0
300032b4:	ea00010c 	b	300036ec <OSFlagPend+0x484>
    }

    if (pgrp == (OS_FLAG_GRP *)0) {                        /* Validate 'pgrp'                          */
300032b8:	e51b3030 	ldr	r3, [fp, #-48]	@ 0xffffffd0
300032bc:	e3530000 	cmp	r3, #0
300032c0:	1a000004 	bne	300032d8 <OSFlagPend+0x70>
        *err = OS_FLAG_INVALID_PGRP;
300032c4:	e59b3004 	ldr	r3, [fp, #4]
300032c8:	e3e02069 	mvn	r2, #105	@ 0x69
300032cc:	e5c32000 	strb	r2, [r3]
        return ((OS_FLAGS)0);
300032d0:	e3a03000 	mov	r3, #0
300032d4:	ea000104 	b	300036ec <OSFlagPend+0x484>
    }
    if (pgrp->OSFlagType != OS_EVENT_TYPE_FLAG) {          /* Validate event block type                */
300032d8:	e51b3030 	ldr	r3, [fp, #-48]	@ 0xffffffd0
300032dc:	e5d33000 	ldrb	r3, [r3]
300032e0:	e3530005 	cmp	r3, #5
300032e4:	0a000004 	beq	300032fc <OSFlagPend+0x94>
        *err = OS_ERR_EVENT_TYPE;
300032e8:	e59b3004 	ldr	r3, [fp, #4]
300032ec:	e3a02001 	mov	r2, #1
300032f0:	e5c32000 	strb	r2, [r3]
        return ((OS_FLAGS)0);
300032f4:	e3a03000 	mov	r3, #0
300032f8:	ea0000fb 	b	300036ec <OSFlagPend+0x484>
    }
    if (wait_type & OS_FLAG_CONSUME) {                     /* See if we need to consume the flags      */
300032fc:	e15b33d5 	ldrsb	r3, [fp, #-53]	@ 0xffffffcb
30003300:	e3530000 	cmp	r3, #0
30003304:	aa000005 	bge	30003320 <OSFlagPend+0xb8>
        wait_type &= ~OS_FLAG_CONSUME;
30003308:	e55b3035 	ldrb	r3, [fp, #-53]	@ 0xffffffcb
3000330c:	e203307f 	and	r3, r3, #127	@ 0x7f
30003310:	e54b3035 	strb	r3, [fp, #-53]	@ 0xffffffcb
        consume    = TRUE;
30003314:	e3a03001 	mov	r3, #1
30003318:	e54b3009 	strb	r3, [fp, #-9]
3000331c:	ea000001 	b	30003328 <OSFlagPend+0xc0>
    } else {
        consume    = FALSE;
30003320:	e3a03000 	mov	r3, #0
30003324:	e54b3009 	strb	r3, [fp, #-9]
    }
    OS_ENTER_CRITICAL();
30003328:	ebfff3f9 	bl	30000314 <OS_CPU_SR_Save>
3000332c:	e50b0010 	str	r0, [fp, #-16]
    switch (wait_type) {
30003330:	e55b3035 	ldrb	r3, [fp, #-53]	@ 0xffffffcb
30003334:	e3530003 	cmp	r3, #3
30003338:	979ff103 	ldrls	pc, [pc, r3, lsl #2]
3000333c:	ea0000a1 	b	300035c8 <OSFlagPend+0x360>
30003340:	3000348c 	.word	0x3000348c
30003344:	3000352c 	.word	0x3000352c
30003348:	30003350 	.word	0x30003350
3000334c:	300033f0 	.word	0x300033f0
        case OS_FLAG_WAIT_SET_ALL:                         /* See if all required flags are set        */
             flags_rdy = pgrp->OSFlagFlags & flags;        /* Extract only the bits we want            */
30003350:	e51b3030 	ldr	r3, [fp, #-48]	@ 0xffffffd0
30003354:	e5933008 	ldr	r3, [r3, #8]
30003358:	e51b2034 	ldr	r2, [fp, #-52]	@ 0xffffffcc
3000335c:	e0033002 	and	r3, r3, r2
30003360:	e50b3014 	str	r3, [fp, #-20]	@ 0xffffffec
             if (flags_rdy == flags) {                     /* Must match ALL the bits that we want     */
30003364:	e51b2014 	ldr	r2, [fp, #-20]	@ 0xffffffec
30003368:	e51b3034 	ldr	r3, [fp, #-52]	@ 0xffffffcc
3000336c:	e1520003 	cmp	r2, r3
30003370:	1a000013 	bne	300033c4 <OSFlagPend+0x15c>
                 if (consume == TRUE) {                    /* See if we need to consume the flags      */
30003374:	e55b3009 	ldrb	r3, [fp, #-9]
30003378:	e3530001 	cmp	r3, #1
3000337c:	1a000006 	bne	3000339c <OSFlagPend+0x134>
                     pgrp->OSFlagFlags &= ~flags_rdy;      /* Clear ONLY the flags that we wanted      */
30003380:	e51b3030 	ldr	r3, [fp, #-48]	@ 0xffffffd0
30003384:	e5932008 	ldr	r2, [r3, #8]
30003388:	e51b3014 	ldr	r3, [fp, #-20]	@ 0xffffffec
3000338c:	e1e03003 	mvn	r3, r3
30003390:	e0022003 	and	r2, r2, r3
30003394:	e51b3030 	ldr	r3, [fp, #-48]	@ 0xffffffd0
30003398:	e5832008 	str	r2, [r3, #8]
                 }
                 flags_cur = pgrp->OSFlagFlags;            /* Will return the state of the group       */
3000339c:	e51b3030 	ldr	r3, [fp, #-48]	@ 0xffffffd0
300033a0:	e5933008 	ldr	r3, [r3, #8]
300033a4:	e50b3008 	str	r3, [fp, #-8]
                 OS_EXIT_CRITICAL();                       /* Yes, condition met, return to caller     */
300033a8:	e51b0010 	ldr	r0, [fp, #-16]
300033ac:	ebfff3dc 	bl	30000324 <OS_CPU_SR_Restore>
                 *err      = OS_NO_ERR;
300033b0:	e59b3004 	ldr	r3, [fp, #4]
300033b4:	e3a02000 	mov	r2, #0
300033b8:	e5c32000 	strb	r2, [r3]
                 return (flags_cur);
300033bc:	e51b3008 	ldr	r3, [fp, #-8]
300033c0:	ea0000c9 	b	300036ec <OSFlagPend+0x484>
             } else {                                      /* Block task until events occur or timeout */
                 OS_FlagBlock(pgrp, &node, flags, wait_type, timeout);
300033c4:	e55b2035 	ldrb	r2, [fp, #-53]	@ 0xffffffcb
300033c8:	e24b102c 	sub	r1, fp, #44	@ 0x2c
300033cc:	e15b33b8 	ldrh	r3, [fp, #-56]	@ 0xffffffc8
300033d0:	e58d3000 	str	r3, [sp]
300033d4:	e1a03002 	mov	r3, r2
300033d8:	e51b2034 	ldr	r2, [fp, #-52]	@ 0xffffffcc
300033dc:	e51b0030 	ldr	r0, [fp, #-48]	@ 0xffffffd0
300033e0:	eb0001ee 	bl	30003ba0 <OS_FlagBlock>
                 OS_EXIT_CRITICAL();
300033e4:	e51b0010 	ldr	r0, [fp, #-16]
300033e8:	ebfff3cd 	bl	30000324 <OS_CPU_SR_Restore>
             }
             break;
300033ec:	ea00007e 	b	300035ec <OSFlagPend+0x384>

        case OS_FLAG_WAIT_SET_ANY:
             flags_rdy = pgrp->OSFlagFlags & flags;        /* Extract only the bits we want            */
300033f0:	e51b3030 	ldr	r3, [fp, #-48]	@ 0xffffffd0
300033f4:	e5933008 	ldr	r3, [r3, #8]
300033f8:	e51b2034 	ldr	r2, [fp, #-52]	@ 0xffffffcc
300033fc:	e0033002 	and	r3, r3, r2
30003400:	e50b3014 	str	r3, [fp, #-20]	@ 0xffffffec
             if (flags_rdy != (OS_FLAGS)0) {               /* See if any flag set                      */
30003404:	e51b3014 	ldr	r3, [fp, #-20]	@ 0xffffffec
30003408:	e3530000 	cmp	r3, #0
3000340c:	0a000013 	beq	30003460 <OSFlagPend+0x1f8>
                 if (consume == TRUE) {                    /* See if we need to consume the flags      */
30003410:	e55b3009 	ldrb	r3, [fp, #-9]
30003414:	e3530001 	cmp	r3, #1
30003418:	1a000006 	bne	30003438 <OSFlagPend+0x1d0>
                     pgrp->OSFlagFlags &= ~flags_rdy;      /* Clear ONLY the flags that we got         */
3000341c:	e51b3030 	ldr	r3, [fp, #-48]	@ 0xffffffd0
30003420:	e5932008 	ldr	r2, [r3, #8]
30003424:	e51b3014 	ldr	r3, [fp, #-20]	@ 0xffffffec
30003428:	e1e03003 	mvn	r3, r3
3000342c:	e0022003 	and	r2, r2, r3
30003430:	e51b3030 	ldr	r3, [fp, #-48]	@ 0xffffffd0
30003434:	e5832008 	str	r2, [r3, #8]
                 }
                 flags_cur = pgrp->OSFlagFlags;            /* Will return the state of the group       */
30003438:	e51b3030 	ldr	r3, [fp, #-48]	@ 0xffffffd0
3000343c:	e5933008 	ldr	r3, [r3, #8]
30003440:	e50b3008 	str	r3, [fp, #-8]
                 OS_EXIT_CRITICAL();                       /* Yes, condition met, return to caller     */
30003444:	e51b0010 	ldr	r0, [fp, #-16]
30003448:	ebfff3b5 	bl	30000324 <OS_CPU_SR_Restore>
                 *err      = OS_NO_ERR;
3000344c:	e59b3004 	ldr	r3, [fp, #4]
30003450:	e3a02000 	mov	r2, #0
30003454:	e5c32000 	strb	r2, [r3]
                 return (flags_cur);
30003458:	e51b3008 	ldr	r3, [fp, #-8]
3000345c:	ea0000a2 	b	300036ec <OSFlagPend+0x484>
             } else {                                      /* Block task until events occur or timeout */
                 OS_FlagBlock(pgrp, &node, flags, wait_type, timeout);
30003460:	e55b2035 	ldrb	r2, [fp, #-53]	@ 0xffffffcb
30003464:	e24b102c 	sub	r1, fp, #44	@ 0x2c
30003468:	e15b33b8 	ldrh	r3, [fp, #-56]	@ 0xffffffc8
3000346c:	e58d3000 	str	r3, [sp]
30003470:	e1a03002 	mov	r3, r2
30003474:	e51b2034 	ldr	r2, [fp, #-52]	@ 0xffffffcc
30003478:	e51b0030 	ldr	r0, [fp, #-48]	@ 0xffffffd0
3000347c:	eb0001c7 	bl	30003ba0 <OS_FlagBlock>
                 OS_EXIT_CRITICAL();
30003480:	e51b0010 	ldr	r0, [fp, #-16]
30003484:	ebfff3a6 	bl	30000324 <OS_CPU_SR_Restore>
             }
             break;
30003488:	ea000057 	b	300035ec <OSFlagPend+0x384>

        case OS_FLAG_WAIT_CLR_ALL:                         /* See if all required flags are cleared    */
             flags_rdy = ~pgrp->OSFlagFlags & flags;       /* Extract only the bits we want            */
3000348c:	e51b3030 	ldr	r3, [fp, #-48]	@ 0xffffffd0
30003490:	e5933008 	ldr	r3, [r3, #8]
30003494:	e1e03003 	mvn	r3, r3
30003498:	e51b2034 	ldr	r2, [fp, #-52]	@ 0xffffffcc
3000349c:	e0033002 	and	r3, r3, r2
300034a0:	e50b3014 	str	r3, [fp, #-20]	@ 0xffffffec
             if (flags_rdy == flags) {                     /* Must match ALL the bits that we want     */
300034a4:	e51b2014 	ldr	r2, [fp, #-20]	@ 0xffffffec
300034a8:	e51b3034 	ldr	r3, [fp, #-52]	@ 0xffffffcc
300034ac:	e1520003 	cmp	r2, r3
300034b0:	1a000012 	bne	30003500 <OSFlagPend+0x298>
                 if (consume == TRUE) {                    /* See if we need to consume the flags      */
300034b4:	e55b3009 	ldrb	r3, [fp, #-9]
300034b8:	e3530001 	cmp	r3, #1
300034bc:	1a000005 	bne	300034d8 <OSFlagPend+0x270>
                     pgrp->OSFlagFlags |= flags_rdy;       /* Set ONLY the flags that we wanted        */
300034c0:	e51b3030 	ldr	r3, [fp, #-48]	@ 0xffffffd0
300034c4:	e5932008 	ldr	r2, [r3, #8]
300034c8:	e51b3014 	ldr	r3, [fp, #-20]	@ 0xffffffec
300034cc:	e1822003 	orr	r2, r2, r3
300034d0:	e51b3030 	ldr	r3, [fp, #-48]	@ 0xffffffd0
300034d4:	e5832008 	str	r2, [r3, #8]
                 }
                 flags_cur = pgrp->OSFlagFlags;            /* Will return the state of the group       */
300034d8:	e51b3030 	ldr	r3, [fp, #-48]	@ 0xffffffd0
300034dc:	e5933008 	ldr	r3, [r3, #8]
300034e0:	e50b3008 	str	r3, [fp, #-8]
                 OS_EXIT_CRITICAL();                       /* Yes, condition met, return to caller     */
300034e4:	e51b0010 	ldr	r0, [fp, #-16]
300034e8:	ebfff38d 	bl	30000324 <OS_CPU_SR_Restore>
                 *err      = OS_NO_ERR;
300034ec:	e59b3004 	ldr	r3, [fp, #4]
300034f0:	e3a02000 	mov	r2, #0
300034f4:	e5c32000 	strb	r2, [r3]
                 return (flags_cur);
300034f8:	e51b3008 	ldr	r3, [fp, #-8]
300034fc:	ea00007a 	b	300036ec <OSFlagPend+0x484>
             } else {                                      /* Block task until events occur or timeout */
                 OS_FlagBlock(pgrp, &node, flags, wait_type, timeout);
30003500:	e55b2035 	ldrb	r2, [fp, #-53]	@ 0xffffffcb
30003504:	e24b102c 	sub	r1, fp, #44	@ 0x2c
30003508:	e15b33b8 	ldrh	r3, [fp, #-56]	@ 0xffffffc8
3000350c:	e58d3000 	str	r3, [sp]
30003510:	e1a03002 	mov	r3, r2
30003514:	e51b2034 	ldr	r2, [fp, #-52]	@ 0xffffffcc
30003518:	e51b0030 	ldr	r0, [fp, #-48]	@ 0xffffffd0
3000351c:	eb00019f 	bl	30003ba0 <OS_FlagBlock>
                 OS_EXIT_CRITICAL();
30003520:	e51b0010 	ldr	r0, [fp, #-16]
30003524:	ebfff37e 	bl	30000324 <OS_CPU_SR_Restore>
             }
             break;
30003528:	ea00002f 	b	300035ec <OSFlagPend+0x384>

        case OS_FLAG_WAIT_CLR_ANY:
             flags_rdy = ~pgrp->OSFlagFlags & flags;       /* Extract only the bits we want            */
3000352c:	e51b3030 	ldr	r3, [fp, #-48]	@ 0xffffffd0
30003530:	e5933008 	ldr	r3, [r3, #8]
30003534:	e1e03003 	mvn	r3, r3
30003538:	e51b2034 	ldr	r2, [fp, #-52]	@ 0xffffffcc
3000353c:	e0033002 	and	r3, r3, r2
30003540:	e50b3014 	str	r3, [fp, #-20]	@ 0xffffffec
             if (flags_rdy != (OS_FLAGS)0) {               /* See if any flag cleared                  */
30003544:	e51b3014 	ldr	r3, [fp, #-20]	@ 0xffffffec
30003548:	e3530000 	cmp	r3, #0
3000354c:	0a000012 	beq	3000359c <OSFlagPend+0x334>
                 if (consume == TRUE) {                    /* See if we need to consume the flags      */
30003550:	e55b3009 	ldrb	r3, [fp, #-9]
30003554:	e3530001 	cmp	r3, #1
30003558:	1a000005 	bne	30003574 <OSFlagPend+0x30c>
                     pgrp->OSFlagFlags |= flags_rdy;       /* Set ONLY the flags that we got           */
3000355c:	e51b3030 	ldr	r3, [fp, #-48]	@ 0xffffffd0
30003560:	e5932008 	ldr	r2, [r3, #8]
30003564:	e51b3014 	ldr	r3, [fp, #-20]	@ 0xffffffec
30003568:	e1822003 	orr	r2, r2, r3
3000356c:	e51b3030 	ldr	r3, [fp, #-48]	@ 0xffffffd0
30003570:	e5832008 	str	r2, [r3, #8]
                 }
                 flags_cur = pgrp->OSFlagFlags;            /* Will return the state of the group       */
30003574:	e51b3030 	ldr	r3, [fp, #-48]	@ 0xffffffd0
30003578:	e5933008 	ldr	r3, [r3, #8]
3000357c:	e50b3008 	str	r3, [fp, #-8]
                 OS_EXIT_CRITICAL();                       /* Yes, condition met, return to caller     */
30003580:	e51b0010 	ldr	r0, [fp, #-16]
30003584:	ebfff366 	bl	30000324 <OS_CPU_SR_Restore>
                 *err      = OS_NO_ERR;
30003588:	e59b3004 	ldr	r3, [fp, #4]
3000358c:	e3a02000 	mov	r2, #0
30003590:	e5c32000 	strb	r2, [r3]
                 return (flags_cur);
30003594:	e51b3008 	ldr	r3, [fp, #-8]
30003598:	ea000053 	b	300036ec <OSFlagPend+0x484>
             } else {                                      /* Block task until events occur or timeout */
                 OS_FlagBlock(pgrp, &node, flags, wait_type, timeout);
3000359c:	e55b2035 	ldrb	r2, [fp, #-53]	@ 0xffffffcb
300035a0:	e24b102c 	sub	r1, fp, #44	@ 0x2c
300035a4:	e15b33b8 	ldrh	r3, [fp, #-56]	@ 0xffffffc8
300035a8:	e58d3000 	str	r3, [sp]
300035ac:	e1a03002 	mov	r3, r2
300035b0:	e51b2034 	ldr	r2, [fp, #-52]	@ 0xffffffcc
300035b4:	e51b0030 	ldr	r0, [fp, #-48]	@ 0xffffffd0
300035b8:	eb000178 	bl	30003ba0 <OS_FlagBlock>
                 OS_EXIT_CRITICAL();
300035bc:	e51b0010 	ldr	r0, [fp, #-16]
300035c0:	ebfff357 	bl	30000324 <OS_CPU_SR_Restore>
             }
             break;
300035c4:	ea000008 	b	300035ec <OSFlagPend+0x384>

        default:
             OS_EXIT_CRITICAL();
300035c8:	e51b0010 	ldr	r0, [fp, #-16]
300035cc:	ebfff354 	bl	30000324 <OS_CPU_SR_Restore>
             flags_cur = (OS_FLAGS)0;
300035d0:	e3a03000 	mov	r3, #0
300035d4:	e50b3008 	str	r3, [fp, #-8]
             *err      = OS_FLAG_ERR_WAIT_TYPE;
300035d8:	e59b3004 	ldr	r3, [fp, #4]
300035dc:	e3e02068 	mvn	r2, #104	@ 0x68
300035e0:	e5c32000 	strb	r2, [r3]
             return (flags_cur);
300035e4:	e51b3008 	ldr	r3, [fp, #-8]
300035e8:	ea00003f 	b	300036ec <OSFlagPend+0x484>
    }
    OS_Sched();                                            /* Find next HPT ready to run               */
300035ec:	ebfffc96 	bl	3000284c <OS_Sched>
    OS_ENTER_CRITICAL();
300035f0:	ebfff347 	bl	30000314 <OS_CPU_SR_Save>
300035f4:	e50b0010 	str	r0, [fp, #-16]
    if (OSTCBCur->OSTCBStat & OS_STAT_FLAG) {              /* Have we timed-out?                       */
300035f8:	e59f3100 	ldr	r3, [pc, #256]	@ 30003700 <OSFlagPend+0x498>
300035fc:	e5933000 	ldr	r3, [r3]
30003600:	e5d3301f 	ldrb	r3, [r3, #31]
30003604:	e2033020 	and	r3, r3, #32
30003608:	e3530000 	cmp	r3, #0
3000360c:	0a00000e 	beq	3000364c <OSFlagPend+0x3e4>
        OS_FlagUnlink(&node);
30003610:	e24b302c 	sub	r3, fp, #44	@ 0x2c
30003614:	e1a00003 	mov	r0, r3
30003618:	eb0001cd 	bl	30003d54 <OS_FlagUnlink>
        OSTCBCur->OSTCBStat = OS_STAT_RDY;                 /* Yes, make task ready-to-run              */
3000361c:	e59f30dc 	ldr	r3, [pc, #220]	@ 30003700 <OSFlagPend+0x498>
30003620:	e5933000 	ldr	r3, [r3]
30003624:	e3a02000 	mov	r2, #0
30003628:	e5c3201f 	strb	r2, [r3, #31]
        OS_EXIT_CRITICAL();
3000362c:	e51b0010 	ldr	r0, [fp, #-16]
30003630:	ebfff33b 	bl	30000324 <OS_CPU_SR_Restore>
        flags_cur           = (OS_FLAGS)0;
30003634:	e3a03000 	mov	r3, #0
30003638:	e50b3008 	str	r3, [fp, #-8]
        *err                = OS_TIMEOUT;                  /* Indicate that we timed-out waiting       */
3000363c:	e59b3004 	ldr	r3, [fp, #4]
30003640:	e3a0200a 	mov	r2, #10
30003644:	e5c32000 	strb	r2, [r3]
30003648:	ea000026 	b	300036e8 <OSFlagPend+0x480>
    } 
    else {
        if (consume == TRUE) {                             /* See if we need to consume the flags      */
3000364c:	e55b3009 	ldrb	r3, [fp, #-9]
30003650:	e3530001 	cmp	r3, #1
30003654:	1a00001b 	bne	300036c8 <OSFlagPend+0x460>
            switch (wait_type) {
30003658:	e55b3035 	ldrb	r3, [fp, #-53]	@ 0xffffffcb
3000365c:	e3530001 	cmp	r3, #1
30003660:	ca000002 	bgt	30003670 <OSFlagPend+0x408>
30003664:	e3530000 	cmp	r3, #0
30003668:	aa00000d 	bge	300036a4 <OSFlagPend+0x43c>
3000366c:	ea000015 	b	300036c8 <OSFlagPend+0x460>
30003670:	e2433002 	sub	r3, r3, #2
30003674:	e3530001 	cmp	r3, #1
30003678:	8a000012 	bhi	300036c8 <OSFlagPend+0x460>
                case OS_FLAG_WAIT_SET_ALL:
                case OS_FLAG_WAIT_SET_ANY:                 /* Clear ONLY the flags we got              */
                     pgrp->OSFlagFlags &= ~OSTCBCur->OSTCBFlagsRdy;
3000367c:	e51b3030 	ldr	r3, [fp, #-48]	@ 0xffffffd0
30003680:	e5932008 	ldr	r2, [r3, #8]
30003684:	e59f3074 	ldr	r3, [pc, #116]	@ 30003700 <OSFlagPend+0x498>
30003688:	e5933000 	ldr	r3, [r3]
3000368c:	e5933018 	ldr	r3, [r3, #24]
30003690:	e1e03003 	mvn	r3, r3
30003694:	e0022003 	and	r2, r2, r3
30003698:	e51b3030 	ldr	r3, [fp, #-48]	@ 0xffffffd0
3000369c:	e5832008 	str	r2, [r3, #8]
                     break;
300036a0:	ea000008 	b	300036c8 <OSFlagPend+0x460>

                case OS_FLAG_WAIT_CLR_ALL:
                case OS_FLAG_WAIT_CLR_ANY:                 /* Set   ONLY the flags we got              */
                     pgrp->OSFlagFlags |= OSTCBCur->OSTCBFlagsRdy;
300036a4:	e51b3030 	ldr	r3, [fp, #-48]	@ 0xffffffd0
300036a8:	e5932008 	ldr	r2, [r3, #8]
300036ac:	e59f304c 	ldr	r3, [pc, #76]	@ 30003700 <OSFlagPend+0x498>
300036b0:	e5933000 	ldr	r3, [r3]
300036b4:	e5933018 	ldr	r3, [r3, #24]
300036b8:	e1822003 	orr	r2, r2, r3
300036bc:	e51b3030 	ldr	r3, [fp, #-48]	@ 0xffffffd0
300036c0:	e5832008 	str	r2, [r3, #8]
                     break;
300036c4:	e1a00000 	nop			@ (mov r0, r0)
            }
        }
        flags_cur = pgrp->OSFlagFlags;
300036c8:	e51b3030 	ldr	r3, [fp, #-48]	@ 0xffffffd0
300036cc:	e5933008 	ldr	r3, [r3, #8]
300036d0:	e50b3008 	str	r3, [fp, #-8]
        OS_EXIT_CRITICAL();
300036d4:	e51b0010 	ldr	r0, [fp, #-16]
300036d8:	ebfff311 	bl	30000324 <OS_CPU_SR_Restore>
        *err      = OS_NO_ERR;                             /* Event(s) must have occurred              */
300036dc:	e59b3004 	ldr	r3, [fp, #4]
300036e0:	e3a02000 	mov	r2, #0
300036e4:	e5c32000 	strb	r2, [r3]
    }
    return (flags_cur);
300036e8:	e51b3008 	ldr	r3, [fp, #-8]
}
300036ec:	e1a00003 	mov	r0, r3
300036f0:	e24bd004 	sub	sp, fp, #4
300036f4:	e8bd4800 	pop	{fp, lr}
300036f8:	e12fff1e 	bx	lr
300036fc:	3000aa6c 	.word	0x3000aa6c
30003700:	3000b394 	.word	0x3000b394

30003704 <OSFlagPost>:
* :
* -  ARM9 
*********************************************************************************************************
*/
OS_FLAGS  OSFlagPost (OS_FLAG_GRP *pgrp, OS_FLAGS flags, INT8U opt, INT8U *err)
{
30003704:	e92d4800 	push	{fp, lr}
30003708:	e28db004 	add	fp, sp, #4
3000370c:	e24dd028 	sub	sp, sp, #40	@ 0x28
30003710:	e50b0020 	str	r0, [fp, #-32]	@ 0xffffffe0
30003714:	e50b1024 	str	r1, [fp, #-36]	@ 0xffffffdc
30003718:	e50b302c 	str	r3, [fp, #-44]	@ 0xffffffd4
3000371c:	e1a03002 	mov	r3, r2
30003720:	e54b3025 	strb	r3, [fp, #-37]	@ 0xffffffdb
    OS_FLAG_NODE *pnode;
    BOOLEAN sched;
    OS_FLAGS flags_cur;
    OS_FLAGS flags_rdy;

    if (pgrp == (OS_FLAG_GRP *)0) {                        
30003724:	e51b3020 	ldr	r3, [fp, #-32]	@ 0xffffffe0
30003728:	e3530000 	cmp	r3, #0
3000372c:	1a000004 	bne	30003744 <OSFlagPost+0x40>
        *err = OS_FLAG_INVALID_PGRP;
30003730:	e51b302c 	ldr	r3, [fp, #-44]	@ 0xffffffd4
30003734:	e3e02069 	mvn	r2, #105	@ 0x69
30003738:	e5c32000 	strb	r2, [r3]
        return ((OS_FLAGS)0);
3000373c:	e3a03000 	mov	r3, #0
30003740:	ea00009f 	b	300039c4 <OSFlagPost+0x2c0>
    }
    if (pgrp->OSFlagType != OS_EVENT_TYPE_FLAG) {   
30003744:	e51b3020 	ldr	r3, [fp, #-32]	@ 0xffffffe0
30003748:	e5d33000 	ldrb	r3, [r3]
3000374c:	e3530005 	cmp	r3, #5
30003750:	0a000004 	beq	30003768 <OSFlagPost+0x64>
        *err = OS_ERR_EVENT_TYPE;
30003754:	e51b302c 	ldr	r3, [fp, #-44]	@ 0xffffffd4
30003758:	e3a02001 	mov	r2, #1
3000375c:	e5c32000 	strb	r2, [r3]
        return ((OS_FLAGS)0);
30003760:	e3a03000 	mov	r3, #0
30003764:	ea000096 	b	300039c4 <OSFlagPost+0x2c0>
    }
    switch (opt) {
30003768:	e55b3025 	ldrb	r3, [fp, #-37]	@ 0xffffffdb
3000376c:	e3530000 	cmp	r3, #0
30003770:	0a000002 	beq	30003780 <OSFlagPost+0x7c>
30003774:	e3530001 	cmp	r3, #1
30003778:	0a000008 	beq	300037a0 <OSFlagPost+0x9c>
3000377c:	ea00000e 	b	300037bc <OSFlagPost+0xb8>
        case OS_FLAG_CLR:
            pgrp->OSFlagFlags &= ~flags;            /* Clear the flags specified in the group         */
30003780:	e51b3020 	ldr	r3, [fp, #-32]	@ 0xffffffe0
30003784:	e5932008 	ldr	r2, [r3, #8]
30003788:	e51b3024 	ldr	r3, [fp, #-36]	@ 0xffffffdc
3000378c:	e1e03003 	mvn	r3, r3
30003790:	e0022003 	and	r2, r2, r3
30003794:	e51b3020 	ldr	r3, [fp, #-32]	@ 0xffffffe0
30003798:	e5832008 	str	r2, [r3, #8]
            break;
3000379c:	ea00000b 	b	300037d0 <OSFlagPost+0xcc>

        case OS_FLAG_SET:
            pgrp->OSFlagFlags |=  flags;            /* Set   the flags specified in the group         */
300037a0:	e51b3020 	ldr	r3, [fp, #-32]	@ 0xffffffe0
300037a4:	e5932008 	ldr	r2, [r3, #8]
300037a8:	e51b3024 	ldr	r3, [fp, #-36]	@ 0xffffffdc
300037ac:	e1822003 	orr	r2, r2, r3
300037b0:	e51b3020 	ldr	r3, [fp, #-32]	@ 0xffffffe0
300037b4:	e5832008 	str	r2, [r3, #8]
            break;
300037b8:	ea000004 	b	300037d0 <OSFlagPost+0xcc>

        default:                                    /* INVALID option                                 */
            *err = OS_FLAG_INVALID_OPT;
300037bc:	e51b302c 	ldr	r3, [fp, #-44]	@ 0xffffffd4
300037c0:	e3e02066 	mvn	r2, #102	@ 0x66
300037c4:	e5c32000 	strb	r2, [r3]
            return ((OS_FLAGS)0);
300037c8:	e3a03000 	mov	r3, #0
300037cc:	ea00007c 	b	300039c4 <OSFlagPost+0x2c0>
    }
    OS_ENTER_CRITICAL();
300037d0:	ebfff2cf 	bl	30000314 <OS_CPU_SR_Save>
300037d4:	e50b0010 	str	r0, [fp, #-16]
    sched = FALSE;                                   /* Indicate that we don't need rescheduling       */
300037d8:	e3a03000 	mov	r3, #0
300037dc:	e54b3009 	strb	r3, [fp, #-9]
    pnode = (OS_FLAG_NODE *)pgrp->OSFlagWaitList;
300037e0:	e51b3020 	ldr	r3, [fp, #-32]	@ 0xffffffe0
300037e4:	e5933004 	ldr	r3, [r3, #4]
300037e8:	e50b3008 	str	r3, [fp, #-8]
    while (pnode != (OS_FLAG_NODE *)0) {             /* Go through all tasks waiting on event flag(s)  */
300037ec:	ea000060 	b	30003974 <OSFlagPost+0x270>
        switch (pnode->OSFlagNodeWaitType) {
300037f0:	e51b3008 	ldr	r3, [fp, #-8]
300037f4:	e5d33014 	ldrb	r3, [r3, #20]
300037f8:	e3530003 	cmp	r3, #3
300037fc:	979ff103 	ldrls	pc, [pc, r3, lsl #2]
30003800:	ea000058 	b	30003968 <OSFlagPost+0x264>
30003804:	300038ac 	.word	0x300038ac
30003808:	30003900 	.word	0x30003900
3000380c:	30003814 	.word	0x30003814
30003810:	30003864 	.word	0x30003864
            case OS_FLAG_WAIT_SET_ALL:               /* See if all req. flags are set for current node */
                flags_rdy = pgrp->OSFlagFlags & pnode->OSFlagNodeFlags;
30003814:	e51b3020 	ldr	r3, [fp, #-32]	@ 0xffffffe0
30003818:	e5932008 	ldr	r2, [r3, #8]
3000381c:	e51b3008 	ldr	r3, [fp, #-8]
30003820:	e5933010 	ldr	r3, [r3, #16]
30003824:	e0033002 	and	r3, r3, r2
30003828:	e50b3018 	str	r3, [fp, #-24]	@ 0xffffffe8
                if (flags_rdy == pnode->OSFlagNodeFlags) {
3000382c:	e51b3008 	ldr	r3, [fp, #-8]
30003830:	e5933010 	ldr	r3, [r3, #16]
30003834:	e51b2018 	ldr	r2, [fp, #-24]	@ 0xffffffe8
30003838:	e1520003 	cmp	r2, r3
3000383c:	1a000042 	bne	3000394c <OSFlagPost+0x248>
                    if (OS_FlagTaskRdy(pnode, flags_rdy) == TRUE) { /* Make task RTR, event(s) Rx'd   */
30003840:	e51b1018 	ldr	r1, [fp, #-24]	@ 0xffffffe8
30003844:	e51b0008 	ldr	r0, [fp, #-8]
30003848:	eb000099 	bl	30003ab4 <OS_FlagTaskRdy>
3000384c:	e1a03000 	mov	r3, r0
30003850:	e3530001 	cmp	r3, #1
30003854:	1a00003c 	bne	3000394c <OSFlagPost+0x248>
                        sched = TRUE;                               /* When done we will reschedule   */
30003858:	e3a03001 	mov	r3, #1
3000385c:	e54b3009 	strb	r3, [fp, #-9]
                    }
                }
                break;
30003860:	ea000039 	b	3000394c <OSFlagPost+0x248>

            case OS_FLAG_WAIT_SET_ANY:               /* See if any flag set                            */
                flags_rdy = pgrp->OSFlagFlags & pnode->OSFlagNodeFlags;
30003864:	e51b3020 	ldr	r3, [fp, #-32]	@ 0xffffffe0
30003868:	e5932008 	ldr	r2, [r3, #8]
3000386c:	e51b3008 	ldr	r3, [fp, #-8]
30003870:	e5933010 	ldr	r3, [r3, #16]
30003874:	e0033002 	and	r3, r3, r2
30003878:	e50b3018 	str	r3, [fp, #-24]	@ 0xffffffe8
                if (flags_rdy != (OS_FLAGS)0) {
3000387c:	e51b3018 	ldr	r3, [fp, #-24]	@ 0xffffffe8
30003880:	e3530000 	cmp	r3, #0
30003884:	0a000032 	beq	30003954 <OSFlagPost+0x250>
                    if (OS_FlagTaskRdy(pnode, flags_rdy) == TRUE) { /* Make task RTR, event(s) Rx'd   */
30003888:	e51b1018 	ldr	r1, [fp, #-24]	@ 0xffffffe8
3000388c:	e51b0008 	ldr	r0, [fp, #-8]
30003890:	eb000087 	bl	30003ab4 <OS_FlagTaskRdy>
30003894:	e1a03000 	mov	r3, r0
30003898:	e3530001 	cmp	r3, #1
3000389c:	1a00002c 	bne	30003954 <OSFlagPost+0x250>
                        sched = TRUE;                               /* When done we will reschedule   */
300038a0:	e3a03001 	mov	r3, #1
300038a4:	e54b3009 	strb	r3, [fp, #-9]
                    }
                }
                break;
300038a8:	ea000029 	b	30003954 <OSFlagPost+0x250>

            case OS_FLAG_WAIT_CLR_ALL:               /* See if all req. flags are set for current node */
                flags_rdy = ~pgrp->OSFlagFlags & pnode->OSFlagNodeFlags;
300038ac:	e51b3020 	ldr	r3, [fp, #-32]	@ 0xffffffe0
300038b0:	e5933008 	ldr	r3, [r3, #8]
300038b4:	e1e02003 	mvn	r2, r3
300038b8:	e51b3008 	ldr	r3, [fp, #-8]
300038bc:	e5933010 	ldr	r3, [r3, #16]
300038c0:	e0033002 	and	r3, r3, r2
300038c4:	e50b3018 	str	r3, [fp, #-24]	@ 0xffffffe8
                if (flags_rdy == pnode->OSFlagNodeFlags) {
300038c8:	e51b3008 	ldr	r3, [fp, #-8]
300038cc:	e5933010 	ldr	r3, [r3, #16]
300038d0:	e51b2018 	ldr	r2, [fp, #-24]	@ 0xffffffe8
300038d4:	e1520003 	cmp	r2, r3
300038d8:	1a00001f 	bne	3000395c <OSFlagPost+0x258>
                    if (OS_FlagTaskRdy(pnode, flags_rdy) == TRUE) { /* Make task RTR, event(s) Rx'd   */
300038dc:	e51b1018 	ldr	r1, [fp, #-24]	@ 0xffffffe8
300038e0:	e51b0008 	ldr	r0, [fp, #-8]
300038e4:	eb000072 	bl	30003ab4 <OS_FlagTaskRdy>
300038e8:	e1a03000 	mov	r3, r0
300038ec:	e3530001 	cmp	r3, #1
300038f0:	1a000019 	bne	3000395c <OSFlagPost+0x258>
                        sched = TRUE;                               /* When done we will reschedule   */
300038f4:	e3a03001 	mov	r3, #1
300038f8:	e54b3009 	strb	r3, [fp, #-9]
                    }
                }
                break;
300038fc:	ea000016 	b	3000395c <OSFlagPost+0x258>

            case OS_FLAG_WAIT_CLR_ANY:               /* See if any flag set                            */
                flags_rdy = ~pgrp->OSFlagFlags & pnode->OSFlagNodeFlags;
30003900:	e51b3020 	ldr	r3, [fp, #-32]	@ 0xffffffe0
30003904:	e5933008 	ldr	r3, [r3, #8]
30003908:	e1e02003 	mvn	r2, r3
3000390c:	e51b3008 	ldr	r3, [fp, #-8]
30003910:	e5933010 	ldr	r3, [r3, #16]
30003914:	e0033002 	and	r3, r3, r2
30003918:	e50b3018 	str	r3, [fp, #-24]	@ 0xffffffe8
                if (flags_rdy != (OS_FLAGS)0) {
3000391c:	e51b3018 	ldr	r3, [fp, #-24]	@ 0xffffffe8
30003920:	e3530000 	cmp	r3, #0
30003924:	0a00000e 	beq	30003964 <OSFlagPost+0x260>
                    if (OS_FlagTaskRdy(pnode, flags_rdy) == TRUE) { /* Make task RTR, event(s) Rx'd   */
30003928:	e51b1018 	ldr	r1, [fp, #-24]	@ 0xffffffe8
3000392c:	e51b0008 	ldr	r0, [fp, #-8]
30003930:	eb00005f 	bl	30003ab4 <OS_FlagTaskRdy>
30003934:	e1a03000 	mov	r3, r0
30003938:	e3530001 	cmp	r3, #1
3000393c:	1a000008 	bne	30003964 <OSFlagPost+0x260>
                        sched = TRUE;                               /* When done we will reschedule   */
30003940:	e3a03001 	mov	r3, #1
30003944:	e54b3009 	strb	r3, [fp, #-9]
                    }
                }
                break;
30003948:	ea000005 	b	30003964 <OSFlagPost+0x260>
                break;
3000394c:	e1a00000 	nop			@ (mov r0, r0)
30003950:	ea000004 	b	30003968 <OSFlagPost+0x264>
                break;
30003954:	e1a00000 	nop			@ (mov r0, r0)
30003958:	ea000002 	b	30003968 <OSFlagPost+0x264>
                break;
3000395c:	e1a00000 	nop			@ (mov r0, r0)
30003960:	ea000000 	b	30003968 <OSFlagPost+0x264>
                break;
30003964:	e1a00000 	nop			@ (mov r0, r0)
        }
        pnode = (OS_FLAG_NODE *)pnode->OSFlagNodeNext; /* Point to next task waiting for event flag(s) */
30003968:	e51b3008 	ldr	r3, [fp, #-8]
3000396c:	e5933000 	ldr	r3, [r3]
30003970:	e50b3008 	str	r3, [fp, #-8]
    while (pnode != (OS_FLAG_NODE *)0) {             /* Go through all tasks waiting on event flag(s)  */
30003974:	e51b3008 	ldr	r3, [fp, #-8]
30003978:	e3530000 	cmp	r3, #0
3000397c:	1affff9b 	bne	300037f0 <OSFlagPost+0xec>
    }
    OS_EXIT_CRITICAL();
30003980:	e51b0010 	ldr	r0, [fp, #-16]
30003984:	ebfff266 	bl	30000324 <OS_CPU_SR_Restore>
    if (sched == TRUE) {
30003988:	e55b3009 	ldrb	r3, [fp, #-9]
3000398c:	e3530001 	cmp	r3, #1
30003990:	1a000000 	bne	30003998 <OSFlagPost+0x294>
        OS_Sched();
30003994:	ebfffbac 	bl	3000284c <OS_Sched>
    }
    OS_ENTER_CRITICAL();
30003998:	ebfff25d 	bl	30000314 <OS_CPU_SR_Save>
3000399c:	e50b0010 	str	r0, [fp, #-16]
    flags_cur = pgrp->OSFlagFlags;
300039a0:	e51b3020 	ldr	r3, [fp, #-32]	@ 0xffffffe0
300039a4:	e5933008 	ldr	r3, [r3, #8]
300039a8:	e50b3014 	str	r3, [fp, #-20]	@ 0xffffffec
    OS_EXIT_CRITICAL();
300039ac:	e51b0010 	ldr	r0, [fp, #-16]
300039b0:	ebfff25b 	bl	30000324 <OS_CPU_SR_Restore>
    *err      = OS_NO_ERR;
300039b4:	e51b302c 	ldr	r3, [fp, #-44]	@ 0xffffffd4
300039b8:	e3a02000 	mov	r2, #0
300039bc:	e5c32000 	strb	r2, [r3]
    return (flags_cur);
300039c0:	e51b3014 	ldr	r3, [fp, #-20]	@ 0xffffffec
}        
300039c4:	e1a00003 	mov	r0, r3
300039c8:	e24bd004 	sub	sp, fp, #4
300039cc:	e8bd4800 	pop	{fp, lr}
300039d0:	e12fff1e 	bx	lr

300039d4 <OSFlagQuery>:
* :
* - 
*********************************************************************************************************
*/
OS_FLAGS  OSFlagQuery (OS_FLAG_GRP *pgrp, INT8U *err)
{
300039d4:	e92d4800 	push	{fp, lr}
300039d8:	e28db004 	add	fp, sp, #4
300039dc:	e24dd010 	sub	sp, sp, #16
300039e0:	e50b0010 	str	r0, [fp, #-16]
300039e4:	e50b1014 	str	r1, [fp, #-20]	@ 0xffffffec
    OS_CPU_SR cpu_sr;
    OS_FLAGS flags;

    if(pgrp == (OS_FLAG_GRP *)0){
300039e8:	e51b3010 	ldr	r3, [fp, #-16]
300039ec:	e3530000 	cmp	r3, #0
300039f0:	1a000004 	bne	30003a08 <OSFlagQuery+0x34>
        *err = OS_FLAG_INVALID_PGRP;
300039f4:	e51b3014 	ldr	r3, [fp, #-20]	@ 0xffffffec
300039f8:	e3e02069 	mvn	r2, #105	@ 0x69
300039fc:	e5c32000 	strb	r2, [r3]
        return ((OS_FLAGS)0);
30003a00:	e3a03000 	mov	r3, #0
30003a04:	ea000013 	b	30003a58 <OSFlagQuery+0x84>
    }
    if(pgrp->OSFlagType != OS_EVENT_TYPE_FLAG){
30003a08:	e51b3010 	ldr	r3, [fp, #-16]
30003a0c:	e5d33000 	ldrb	r3, [r3]
30003a10:	e3530005 	cmp	r3, #5
30003a14:	0a000004 	beq	30003a2c <OSFlagQuery+0x58>
        *err = OS_ERR_EVENT_TYPE;
30003a18:	e51b3014 	ldr	r3, [fp, #-20]	@ 0xffffffec
30003a1c:	e3a02001 	mov	r2, #1
30003a20:	e5c32000 	strb	r2, [r3]
        return ((OS_FLAGS)0);
30003a24:	e3a03000 	mov	r3, #0
30003a28:	ea00000a 	b	30003a58 <OSFlagQuery+0x84>
    }
    OS_ENTER_CRITICAL();
30003a2c:	ebfff238 	bl	30000314 <OS_CPU_SR_Save>
30003a30:	e50b0008 	str	r0, [fp, #-8]
    flags = pgrp->OSFlagFlags;
30003a34:	e51b3010 	ldr	r3, [fp, #-16]
30003a38:	e5933008 	ldr	r3, [r3, #8]
30003a3c:	e50b300c 	str	r3, [fp, #-12]
    OS_EXIT_CRITICAL();
30003a40:	e51b0008 	ldr	r0, [fp, #-8]
30003a44:	ebfff236 	bl	30000324 <OS_CPU_SR_Restore>
    *err = OS_NO_ERR;
30003a48:	e51b3014 	ldr	r3, [fp, #-20]	@ 0xffffffec
30003a4c:	e3a02000 	mov	r2, #0
30003a50:	e5c32000 	strb	r2, [r3]
    return (flags);
30003a54:	e51b300c 	ldr	r3, [fp, #-12]
}
30003a58:	e1a00003 	mov	r0, r3
30003a5c:	e24bd004 	sub	sp, fp, #4
30003a60:	e8bd4800 	pop	{fp, lr}
30003a64:	e12fff1e 	bx	lr

30003a68 <OS_FlagInit>:
* :
* - 
*********************************************************************************************************
*/
void  OS_FlagInit (void)
{
30003a68:	e52db004 	push	{fp}		@ (str fp, [sp, #-4]!)
30003a6c:	e28db000 	add	fp, sp, #0
#if OS_MAX_FLAGS ==1
    OSFlagFreeList = (OS_FLAG_GRP *)&OSFlagTbl[0];
30003a70:	e59f3034 	ldr	r3, [pc, #52]	@ 30003aac <OS_FlagInit+0x44>
30003a74:	e59f2034 	ldr	r2, [pc, #52]	@ 30003ab0 <OS_FlagInit+0x48>
30003a78:	e5832000 	str	r2, [r3]
    OSFlagFreeList->OSFlagType = OS_EVENT_TYPE_UNUSED;
30003a7c:	e59f3028 	ldr	r3, [pc, #40]	@ 30003aac <OS_FlagInit+0x44>
30003a80:	e5933000 	ldr	r3, [r3]
30003a84:	e3a02000 	mov	r2, #0
30003a88:	e5c32000 	strb	r2, [r3]
    OSFlagFreeList->OSFlagWaitList = (void *)0;
30003a8c:	e59f3018 	ldr	r3, [pc, #24]	@ 30003aac <OS_FlagInit+0x44>
30003a90:	e5933000 	ldr	r3, [r3]
30003a94:	e3a02000 	mov	r2, #0
30003a98:	e5832004 	str	r2, [r3, #4]
        pgrp2++;
    }
    pgrp1->OSFlagWaitList = (void *)0;
    OSFlagFreeList = (OS_FLAG_GRP *)&OSFlagTbl[0];
#endif
}
30003a9c:	e1a00000 	nop			@ (mov r0, r0)
30003aa0:	e28bd000 	add	sp, fp, #0
30003aa4:	e49db004 	pop	{fp}		@ (ldr fp, [sp], #4)
30003aa8:	e12fff1e 	bx	lr
30003aac:	3000b5a8 	.word	0x3000b5a8
30003ab0:	3000b5ac 	.word	0x3000b5ac

30003ab4 <OS_FlagTaskRdy>:
* :
* - 
*********************************************************************************************************
*/
static  BOOLEAN  OS_FlagTaskRdy (OS_FLAG_NODE *pnode, OS_FLAGS flags_rdy)
{
30003ab4:	e92d4800 	push	{fp, lr}
30003ab8:	e28db004 	add	fp, sp, #4
30003abc:	e24dd010 	sub	sp, sp, #16
30003ac0:	e50b0010 	str	r0, [fp, #-16]
30003ac4:	e50b1014 	str	r1, [fp, #-20]	@ 0xffffffec
    OS_TCB   *ptcb;
    BOOLEAN   sched;

    ptcb                = (OS_TCB *)pnode->OSFlagNodeTCB;  /* Point to TCB of waiting task             */
30003ac8:	e51b3010 	ldr	r3, [fp, #-16]
30003acc:	e5933008 	ldr	r3, [r3, #8]
30003ad0:	e50b300c 	str	r3, [fp, #-12]
    ptcb->OSTCBDly      = 0;
30003ad4:	e51b300c 	ldr	r3, [fp, #-12]
30003ad8:	e3a02000 	mov	r2, #0
30003adc:	e1c321bc 	strh	r2, [r3, #28]
    ptcb->OSTCBFlagsRdy = flags_rdy;
30003ae0:	e51b300c 	ldr	r3, [fp, #-12]
30003ae4:	e51b2014 	ldr	r2, [fp, #-20]	@ 0xffffffec
30003ae8:	e5832018 	str	r2, [r3, #24]
    ptcb->OSTCBStat    &= ~OS_STAT_FLAG;
30003aec:	e51b300c 	ldr	r3, [fp, #-12]
30003af0:	e5d3301f 	ldrb	r3, [r3, #31]
30003af4:	e3c33020 	bic	r3, r3, #32
30003af8:	e20320ff 	and	r2, r3, #255	@ 0xff
30003afc:	e51b300c 	ldr	r3, [fp, #-12]
30003b00:	e5c3201f 	strb	r2, [r3, #31]
    if (ptcb->OSTCBStat == OS_STAT_RDY) {                  /* Put task into ready list                 */
30003b04:	e51b300c 	ldr	r3, [fp, #-12]
30003b08:	e5d3301f 	ldrb	r3, [r3, #31]
30003b0c:	e3530000 	cmp	r3, #0
30003b10:	1a000017 	bne	30003b74 <OS_FlagTaskRdy+0xc0>
        OSRdyGrp               |= ptcb->OSTCBBitY;
30003b14:	e51b300c 	ldr	r3, [fp, #-12]
30003b18:	e5d32023 	ldrb	r2, [r3, #35]	@ 0x23
30003b1c:	e59f3074 	ldr	r3, [pc, #116]	@ 30003b98 <OS_FlagTaskRdy+0xe4>
30003b20:	e5d33000 	ldrb	r3, [r3]
30003b24:	e1823003 	orr	r3, r2, r3
30003b28:	e20320ff 	and	r2, r3, #255	@ 0xff
30003b2c:	e59f3064 	ldr	r3, [pc, #100]	@ 30003b98 <OS_FlagTaskRdy+0xe4>
30003b30:	e5c32000 	strb	r2, [r3]
        OSRdyTbl[ptcb->OSTCBY] |= ptcb->OSTCBBitX;
30003b34:	e51b300c 	ldr	r3, [fp, #-12]
30003b38:	e5d33021 	ldrb	r3, [r3, #33]	@ 0x21
30003b3c:	e1a02003 	mov	r2, r3
30003b40:	e59f3054 	ldr	r3, [pc, #84]	@ 30003b9c <OS_FlagTaskRdy+0xe8>
30003b44:	e7d32002 	ldrb	r2, [r3, r2]
30003b48:	e51b300c 	ldr	r3, [fp, #-12]
30003b4c:	e5d33022 	ldrb	r3, [r3, #34]	@ 0x22
30003b50:	e51b100c 	ldr	r1, [fp, #-12]
30003b54:	e5d11021 	ldrb	r1, [r1, #33]	@ 0x21
30003b58:	e1823003 	orr	r3, r2, r3
30003b5c:	e20320ff 	and	r2, r3, #255	@ 0xff
30003b60:	e59f3034 	ldr	r3, [pc, #52]	@ 30003b9c <OS_FlagTaskRdy+0xe8>
30003b64:	e7c32001 	strb	r2, [r3, r1]
        sched                   = TRUE;
30003b68:	e3a03001 	mov	r3, #1
30003b6c:	e54b3005 	strb	r3, [fp, #-5]
30003b70:	ea000001 	b	30003b7c <OS_FlagTaskRdy+0xc8>
    } else {
        sched                   = FALSE;
30003b74:	e3a03000 	mov	r3, #0
30003b78:	e54b3005 	strb	r3, [fp, #-5]
    }
    OS_FlagUnlink(pnode);
30003b7c:	e51b0010 	ldr	r0, [fp, #-16]
30003b80:	eb000073 	bl	30003d54 <OS_FlagUnlink>
    return (sched);
30003b84:	e55b3005 	ldrb	r3, [fp, #-5]
}
30003b88:	e1a00003 	mov	r0, r3
30003b8c:	e24bd004 	sub	sp, fp, #4
30003b90:	e8bd4800 	pop	{fp, lr}
30003b94:	e12fff1e 	bx	lr
30003b98:	3000aa71 	.word	0x3000aa71
30003b9c:	3000aa74 	.word	0x3000aa74

30003ba0 <OS_FlagBlock>:
* :
* - 
*********************************************************************************************************
*/
static  void  OS_FlagBlock (OS_FLAG_GRP *pgrp, OS_FLAG_NODE *pnode, OS_FLAGS flags, INT8U wait_type, INT16U timeout)
{
30003ba0:	e52db004 	push	{fp}		@ (str fp, [sp, #-4]!)
30003ba4:	e28db000 	add	fp, sp, #0
30003ba8:	e24dd01c 	sub	sp, sp, #28
30003bac:	e50b0010 	str	r0, [fp, #-16]
30003bb0:	e50b1014 	str	r1, [fp, #-20]	@ 0xffffffec
30003bb4:	e50b2018 	str	r2, [fp, #-24]	@ 0xffffffe8
30003bb8:	e54b3019 	strb	r3, [fp, #-25]	@ 0xffffffe7
    OS_FLAG_NODE  *pnode_next;

    OSTCBCur->OSTCBStat      |= OS_STAT_FLAG;
30003bbc:	e59f3184 	ldr	r3, [pc, #388]	@ 30003d48 <OS_FlagBlock+0x1a8>
30003bc0:	e5933000 	ldr	r3, [r3]
30003bc4:	e5d3201f 	ldrb	r2, [r3, #31]
30003bc8:	e59f3178 	ldr	r3, [pc, #376]	@ 30003d48 <OS_FlagBlock+0x1a8>
30003bcc:	e5933000 	ldr	r3, [r3]
30003bd0:	e3822020 	orr	r2, r2, #32
30003bd4:	e20220ff 	and	r2, r2, #255	@ 0xff
30003bd8:	e5c3201f 	strb	r2, [r3, #31]
    OSTCBCur->OSTCBDly        = timeout;              /* Store timeout in task's TCB                   */
30003bdc:	e59f3164 	ldr	r3, [pc, #356]	@ 30003d48 <OS_FlagBlock+0x1a8>
30003be0:	e5933000 	ldr	r3, [r3]
30003be4:	e1db20b4 	ldrh	r2, [fp, #4]
30003be8:	e1c321bc 	strh	r2, [r3, #28]
    OSTCBCur->OSTCBFlagNode   = pnode;                /* TCB to link to node                           */
30003bec:	e59f3154 	ldr	r3, [pc, #340]	@ 30003d48 <OS_FlagBlock+0x1a8>
30003bf0:	e5933000 	ldr	r3, [r3]
30003bf4:	e51b2014 	ldr	r2, [fp, #-20]	@ 0xffffffec
30003bf8:	e5832014 	str	r2, [r3, #20]
    pnode->OSFlagNodeFlags    = flags;                /* Save the flags that we need to wait for       */
30003bfc:	e51b3014 	ldr	r3, [fp, #-20]	@ 0xffffffec
30003c00:	e51b2018 	ldr	r2, [fp, #-24]	@ 0xffffffe8
30003c04:	e5832010 	str	r2, [r3, #16]
    pnode->OSFlagNodeWaitType = wait_type;            /* Save the type of wait we are doing            */
30003c08:	e51b3014 	ldr	r3, [fp, #-20]	@ 0xffffffec
30003c0c:	e55b2019 	ldrb	r2, [fp, #-25]	@ 0xffffffe7
30003c10:	e5c32014 	strb	r2, [r3, #20]
    pnode->OSFlagNodeTCB      = (void *)OSTCBCur;     /* Link to task's TCB                            */
30003c14:	e59f312c 	ldr	r3, [pc, #300]	@ 30003d48 <OS_FlagBlock+0x1a8>
30003c18:	e5932000 	ldr	r2, [r3]
30003c1c:	e51b3014 	ldr	r3, [fp, #-20]	@ 0xffffffec
30003c20:	e5832008 	str	r2, [r3, #8]
    pnode->OSFlagNodeNext     = pgrp->OSFlagWaitList; /* Add node at beginning of event flag wait list */
30003c24:	e51b3010 	ldr	r3, [fp, #-16]
30003c28:	e5932004 	ldr	r2, [r3, #4]
30003c2c:	e51b3014 	ldr	r3, [fp, #-20]	@ 0xffffffec
30003c30:	e5832000 	str	r2, [r3]
    pnode->OSFlagNodePrev     = (void *)0;
30003c34:	e51b3014 	ldr	r3, [fp, #-20]	@ 0xffffffec
30003c38:	e3a02000 	mov	r2, #0
30003c3c:	e5832004 	str	r2, [r3, #4]
    pnode->OSFlagNodeFlagGrp  = (void *)pgrp;         /* Link to Event Flag Group                      */
30003c40:	e51b3014 	ldr	r3, [fp, #-20]	@ 0xffffffec
30003c44:	e51b2010 	ldr	r2, [fp, #-16]
30003c48:	e583200c 	str	r2, [r3, #12]
    pnode_next                = (OS_FLAG_NODE *)pgrp->OSFlagWaitList;
30003c4c:	e51b3010 	ldr	r3, [fp, #-16]
30003c50:	e5933004 	ldr	r3, [r3, #4]
30003c54:	e50b3008 	str	r3, [fp, #-8]
    if (pnode_next != (void *)0) {                    /* Is this the first NODE to insert?             */
30003c58:	e51b3008 	ldr	r3, [fp, #-8]
30003c5c:	e3530000 	cmp	r3, #0
30003c60:	0a000002 	beq	30003c70 <OS_FlagBlock+0xd0>
        pnode_next->OSFlagNodePrev = pnode;           /* No, link in doubly linked list                */
30003c64:	e51b3008 	ldr	r3, [fp, #-8]
30003c68:	e51b2014 	ldr	r2, [fp, #-20]	@ 0xffffffec
30003c6c:	e5832004 	str	r2, [r3, #4]
    }
    pgrp->OSFlagWaitList = (void *)pnode;
30003c70:	e51b3010 	ldr	r3, [fp, #-16]
30003c74:	e51b2014 	ldr	r2, [fp, #-20]	@ 0xffffffec
30003c78:	e5832004 	str	r2, [r3, #4]
                                                      /* Suspend current task until flag(s) received   */
    if ((OSRdyTbl[OSTCBCur->OSTCBY] &= ~OSTCBCur->OSTCBBitX) == 0) {
30003c7c:	e59f30c4 	ldr	r3, [pc, #196]	@ 30003d48 <OS_FlagBlock+0x1a8>
30003c80:	e5933000 	ldr	r3, [r3]
30003c84:	e5d33021 	ldrb	r3, [r3, #33]	@ 0x21
30003c88:	e1a02003 	mov	r2, r3
30003c8c:	e59f30b8 	ldr	r3, [pc, #184]	@ 30003d4c <OS_FlagBlock+0x1ac>
30003c90:	e7d33002 	ldrb	r3, [r3, r2]
30003c94:	e1a03c03 	lsl	r3, r3, #24
30003c98:	e1a02c43 	asr	r2, r3, #24
30003c9c:	e59f30a4 	ldr	r3, [pc, #164]	@ 30003d48 <OS_FlagBlock+0x1a8>
30003ca0:	e5933000 	ldr	r3, [r3]
30003ca4:	e5d33022 	ldrb	r3, [r3, #34]	@ 0x22
30003ca8:	e1a03c03 	lsl	r3, r3, #24
30003cac:	e1a03c43 	asr	r3, r3, #24
30003cb0:	e1e03003 	mvn	r3, r3
30003cb4:	e1a03c03 	lsl	r3, r3, #24
30003cb8:	e1a03c43 	asr	r3, r3, #24
30003cbc:	e0033002 	and	r3, r3, r2
30003cc0:	e1a03c03 	lsl	r3, r3, #24
30003cc4:	e1a02c43 	asr	r2, r3, #24
30003cc8:	e59f3078 	ldr	r3, [pc, #120]	@ 30003d48 <OS_FlagBlock+0x1a8>
30003ccc:	e5933000 	ldr	r3, [r3]
30003cd0:	e5d33021 	ldrb	r3, [r3, #33]	@ 0x21
30003cd4:	e20210ff 	and	r1, r2, #255	@ 0xff
30003cd8:	e59f206c 	ldr	r2, [pc, #108]	@ 30003d4c <OS_FlagBlock+0x1ac>
30003cdc:	e7c21003 	strb	r1, [r2, r3]
30003ce0:	e59f2064 	ldr	r2, [pc, #100]	@ 30003d4c <OS_FlagBlock+0x1ac>
30003ce4:	e7d23003 	ldrb	r3, [r2, r3]
30003ce8:	e3530000 	cmp	r3, #0
30003cec:	1a000011 	bne	30003d38 <OS_FlagBlock+0x198>
        OSRdyGrp &= ~OSTCBCur->OSTCBBitY;
30003cf0:	e59f3050 	ldr	r3, [pc, #80]	@ 30003d48 <OS_FlagBlock+0x1a8>
30003cf4:	e5933000 	ldr	r3, [r3]
30003cf8:	e5d33023 	ldrb	r3, [r3, #35]	@ 0x23
30003cfc:	e1a03c03 	lsl	r3, r3, #24
30003d00:	e1a03c43 	asr	r3, r3, #24
30003d04:	e1e03003 	mvn	r3, r3
30003d08:	e1a03c03 	lsl	r3, r3, #24
30003d0c:	e1a02c43 	asr	r2, r3, #24
30003d10:	e59f3038 	ldr	r3, [pc, #56]	@ 30003d50 <OS_FlagBlock+0x1b0>
30003d14:	e5d33000 	ldrb	r3, [r3]
30003d18:	e1a03c03 	lsl	r3, r3, #24
30003d1c:	e1a03c43 	asr	r3, r3, #24
30003d20:	e0033002 	and	r3, r3, r2
30003d24:	e1a03c03 	lsl	r3, r3, #24
30003d28:	e1a03c43 	asr	r3, r3, #24
30003d2c:	e20320ff 	and	r2, r3, #255	@ 0xff
30003d30:	e59f3018 	ldr	r3, [pc, #24]	@ 30003d50 <OS_FlagBlock+0x1b0>
30003d34:	e5c32000 	strb	r2, [r3]
    }
}
30003d38:	e1a00000 	nop			@ (mov r0, r0)
30003d3c:	e28bd000 	add	sp, fp, #0
30003d40:	e49db004 	pop	{fp}		@ (ldr fp, [sp], #4)
30003d44:	e12fff1e 	bx	lr
30003d48:	3000b394 	.word	0x3000b394
30003d4c:	3000aa74 	.word	0x3000aa74
30003d50:	3000aa71 	.word	0x3000aa71

30003d54 <OS_FlagUnlink>:
* :
* - 
*********************************************************************************************************
*/
void  OS_FlagUnlink (OS_FLAG_NODE *pnode)
{
30003d54:	e52db004 	push	{fp}		@ (str fp, [sp, #-4]!)
30003d58:	e28db000 	add	fp, sp, #0
30003d5c:	e24dd01c 	sub	sp, sp, #28
30003d60:	e50b0018 	str	r0, [fp, #-24]	@ 0xffffffe8
    OS_TCB *ptcb;
    OS_FLAG_GRP *pflag;
    OS_FLAG_NODE *pnode_prev;
    OS_FLAG_NODE *pnode_next;

    pnode_prev = (OS_FLAG_NODE *)pnode->OSFlagNodePrev;
30003d64:	e51b3018 	ldr	r3, [fp, #-24]	@ 0xffffffe8
30003d68:	e5933004 	ldr	r3, [r3, #4]
30003d6c:	e50b3008 	str	r3, [fp, #-8]
    pnode_next = (OS_FLAG_NODE *)pnode->OSFlagNodeNext;
30003d70:	e51b3018 	ldr	r3, [fp, #-24]	@ 0xffffffe8
30003d74:	e5933000 	ldr	r3, [r3]
30003d78:	e50b300c 	str	r3, [fp, #-12]
    if(pnode_prev == (OS_FLAG_NODE *)0){
30003d7c:	e51b3008 	ldr	r3, [fp, #-8]
30003d80:	e3530000 	cmp	r3, #0
30003d84:	1a00000c 	bne	30003dbc <OS_FlagUnlink+0x68>
        pflag = (OS_FLAG_GRP *)pnode->OSFlagNodeFlagGrp;
30003d88:	e51b3018 	ldr	r3, [fp, #-24]	@ 0xffffffe8
30003d8c:	e593300c 	ldr	r3, [r3, #12]
30003d90:	e50b3010 	str	r3, [fp, #-16]
        pflag->OSFlagWaitList = (void *)pnode_next;
30003d94:	e51b3010 	ldr	r3, [fp, #-16]
30003d98:	e51b200c 	ldr	r2, [fp, #-12]
30003d9c:	e5832004 	str	r2, [r3, #4]
        if(pnode_next != (OS_FLAG_NODE *)0){
30003da0:	e51b300c 	ldr	r3, [fp, #-12]
30003da4:	e3530000 	cmp	r3, #0
30003da8:	0a00000c 	beq	30003de0 <OS_FlagUnlink+0x8c>
            pnode_next->OSFlagNodePrev = (OS_FLAG_NODE *)0;
30003dac:	e51b300c 	ldr	r3, [fp, #-12]
30003db0:	e3a02000 	mov	r2, #0
30003db4:	e5832004 	str	r2, [r3, #4]
30003db8:	ea000008 	b	30003de0 <OS_FlagUnlink+0x8c>
        }
    }
    else{
        pnode_next->OSFlagNodeNext = pnode_next;
30003dbc:	e51b300c 	ldr	r3, [fp, #-12]
30003dc0:	e51b200c 	ldr	r2, [fp, #-12]
30003dc4:	e5832000 	str	r2, [r3]
        if(pnode_next != (OS_FLAG_NODE *)0){
30003dc8:	e51b300c 	ldr	r3, [fp, #-12]
30003dcc:	e3530000 	cmp	r3, #0
30003dd0:	0a000002 	beq	30003de0 <OS_FlagUnlink+0x8c>
            pnode_next->OSFlagNodePrev = pnode_prev;
30003dd4:	e51b300c 	ldr	r3, [fp, #-12]
30003dd8:	e51b2008 	ldr	r2, [fp, #-8]
30003ddc:	e5832004 	str	r2, [r3, #4]
        }
    }
    ptcb = (OS_TCB *)pnode->OSFlagNodeTCB;
30003de0:	e51b3018 	ldr	r3, [fp, #-24]	@ 0xffffffe8
30003de4:	e5933008 	ldr	r3, [r3, #8]
30003de8:	e50b3014 	str	r3, [fp, #-20]	@ 0xffffffec
    ptcb->OSTCBFlagNode = (OS_FLAG_NODE *)0;
30003dec:	e51b3014 	ldr	r3, [fp, #-20]	@ 0xffffffec
30003df0:	e3a02000 	mov	r2, #0
30003df4:	e5832014 	str	r2, [r3, #20]
}
30003df8:	e1a00000 	nop			@ (mov r0, r0)
30003dfc:	e28bd000 	add	sp, fp, #0
30003e00:	e49db004 	pop	{fp}		@ (ldr fp, [sp], #4)
30003e04:	e12fff1e 	bx	lr

30003e08 <OSMboxAccept>:
* :
* -  Mini2440 (32 ARM) 
*********************************************************************************************************
*/
void  *OSMboxAccept (OS_EVENT *pevent)
{
30003e08:	e92d4800 	push	{fp, lr}
30003e0c:	e28db004 	add	fp, sp, #4
30003e10:	e24dd010 	sub	sp, sp, #16
30003e14:	e50b0010 	str	r0, [fp, #-16]
    OS_CPU_SR cpu_sr;
    void *msg;

    if(pevent == (OS_EVENT *)0){
30003e18:	e51b3010 	ldr	r3, [fp, #-16]
30003e1c:	e3530000 	cmp	r3, #0
30003e20:	1a000001 	bne	30003e2c <OSMboxAccept+0x24>
        return ((void *)0);
30003e24:	e3a03000 	mov	r3, #0
30003e28:	ea000010 	b	30003e70 <OSMboxAccept+0x68>
    }
    if(pevent->OSEventType != OS_EVENT_TYPE_MBOX){
30003e2c:	e51b3010 	ldr	r3, [fp, #-16]
30003e30:	e5d33000 	ldrb	r3, [r3]
30003e34:	e3530001 	cmp	r3, #1
30003e38:	0a000001 	beq	30003e44 <OSMboxAccept+0x3c>
        return ((void *)0);
30003e3c:	e3a03000 	mov	r3, #0
30003e40:	ea00000a 	b	30003e70 <OSMboxAccept+0x68>
    }
    OS_ENTER_CRITICAL();
30003e44:	ebfff132 	bl	30000314 <OS_CPU_SR_Save>
30003e48:	e50b0008 	str	r0, [fp, #-8]
    msg = pevent->OSEventPtr;
30003e4c:	e51b3010 	ldr	r3, [fp, #-16]
30003e50:	e5933004 	ldr	r3, [r3, #4]
30003e54:	e50b300c 	str	r3, [fp, #-12]
    pevent->OSEventPtr = (void *)0;
30003e58:	e51b3010 	ldr	r3, [fp, #-16]
30003e5c:	e3a02000 	mov	r2, #0
30003e60:	e5832004 	str	r2, [r3, #4]
    OS_EXIT_CRITICAL();
30003e64:	e51b0008 	ldr	r0, [fp, #-8]
30003e68:	ebfff12d 	bl	30000324 <OS_CPU_SR_Restore>
    return msg;
30003e6c:	e51b300c 	ldr	r3, [fp, #-12]
}
30003e70:	e1a00003 	mov	r0, r3
30003e74:	e24bd004 	sub	sp, fp, #4
30003e78:	e8bd4800 	pop	{fp, lr}
30003e7c:	e12fff1e 	bx	lr

30003e80 <OSMboxCreate>:
* :
* - 
*********************************************************************************************************
*/
OS_EVENT  *OSMboxCreate (void *msg)
{
30003e80:	e92d4800 	push	{fp, lr}
30003e84:	e28db004 	add	fp, sp, #4
30003e88:	e24dd010 	sub	sp, sp, #16
30003e8c:	e50b0010 	str	r0, [fp, #-16]
    OS_CPU_SR cpu_sr;
    OS_EVENT *pevent;

    if(OSIntNesting > 0){
30003e90:	e59f309c 	ldr	r3, [pc, #156]	@ 30003f34 <OSMboxCreate+0xb4>
30003e94:	e5d33000 	ldrb	r3, [r3]
30003e98:	e3530000 	cmp	r3, #0
30003e9c:	0a000001 	beq	30003ea8 <OSMboxCreate+0x28>
        return((OS_EVENT *)0);
30003ea0:	e3a03000 	mov	r3, #0
30003ea4:	ea00001e 	b	30003f24 <OSMboxCreate+0xa4>
    }
    OS_ENTER_CRITICAL();
30003ea8:	ebfff119 	bl	30000314 <OS_CPU_SR_Save>
30003eac:	e50b0008 	str	r0, [fp, #-8]
    pevent = OSEventFreeList;
30003eb0:	e59f3080 	ldr	r3, [pc, #128]	@ 30003f38 <OSMboxCreate+0xb8>
30003eb4:	e5933000 	ldr	r3, [r3]
30003eb8:	e50b300c 	str	r3, [fp, #-12]
    if(OSEventFreeList != (OS_EVENT *)0){
30003ebc:	e59f3074 	ldr	r3, [pc, #116]	@ 30003f38 <OSMboxCreate+0xb8>
30003ec0:	e5933000 	ldr	r3, [r3]
30003ec4:	e3530000 	cmp	r3, #0
30003ec8:	0a000004 	beq	30003ee0 <OSMboxCreate+0x60>
        OSEventFreeList = (OS_EVENT *)OSEventFreeList->OSEventPtr;
30003ecc:	e59f3064 	ldr	r3, [pc, #100]	@ 30003f38 <OSMboxCreate+0xb8>
30003ed0:	e5933000 	ldr	r3, [r3]
30003ed4:	e5933004 	ldr	r3, [r3, #4]
30003ed8:	e59f2058 	ldr	r2, [pc, #88]	@ 30003f38 <OSMboxCreate+0xb8>
30003edc:	e5823000 	str	r3, [r2]
    }
    OS_EXIT_CRITICAL();
30003ee0:	e51b0008 	ldr	r0, [fp, #-8]
30003ee4:	ebfff10e 	bl	30000324 <OS_CPU_SR_Restore>
    if(pevent != (OS_EVENT *)0){
30003ee8:	e51b300c 	ldr	r3, [fp, #-12]
30003eec:	e3530000 	cmp	r3, #0
30003ef0:	0a00000a 	beq	30003f20 <OSMboxCreate+0xa0>
        pevent->OSEventType = OS_EVENT_TYPE_MBOX;
30003ef4:	e51b300c 	ldr	r3, [fp, #-12]
30003ef8:	e3a02001 	mov	r2, #1
30003efc:	e5c32000 	strb	r2, [r3]
        pevent->OSEventCnt = 0;    // 
30003f00:	e51b300c 	ldr	r3, [fp, #-12]
30003f04:	e3a02000 	mov	r2, #0
30003f08:	e5832008 	str	r2, [r3, #8]
        pevent->OSEventPtr = msg;  // 
30003f0c:	e51b300c 	ldr	r3, [fp, #-12]
30003f10:	e51b2010 	ldr	r2, [fp, #-16]
30003f14:	e5832004 	str	r2, [r3, #4]
        OS_EventWaitListInit(pevent);
30003f18:	e51b000c 	ldr	r0, [fp, #-12]
30003f1c:	ebfff9f4 	bl	300026f4 <OS_EventWaitListInit>
    }
    return(pevent);
30003f20:	e51b300c 	ldr	r3, [fp, #-12]
}
30003f24:	e1a00003 	mov	r0, r3
30003f28:	e24bd004 	sub	sp, fp, #4
30003f2c:	e8bd4800 	pop	{fp, lr}
30003f30:	e12fff1e 	bx	lr
30003f34:	3000aa6c 	.word	0x3000aa6c
30003f38:	3000b590 	.word	0x3000b590

30003f3c <OSMboxDel>:
* :
* - 
*********************************************************************************************************
*/
OS_EVENT  *OSMboxDel (OS_EVENT *pevent, INT8U opt, INT8U *err)
{
30003f3c:	e92d4800 	push	{fp, lr}
30003f40:	e28db004 	add	fp, sp, #4
30003f44:	e24dd018 	sub	sp, sp, #24
30003f48:	e50b0010 	str	r0, [fp, #-16]
30003f4c:	e1a03001 	mov	r3, r1
30003f50:	e50b2018 	str	r2, [fp, #-24]	@ 0xffffffe8
30003f54:	e54b3011 	strb	r3, [fp, #-17]	@ 0xffffffef
    OS_CPU_SR  cpu_sr; 
    BOOLEAN    tasks_waiting;

    if (OSIntNesting > 0) {                                /* See if called from ISR ...               */
30003f58:	e59f31ac 	ldr	r3, [pc, #428]	@ 3000410c <OSMboxDel+0x1d0>
30003f5c:	e5d33000 	ldrb	r3, [r3]
30003f60:	e3530000 	cmp	r3, #0
30003f64:	0a000004 	beq	30003f7c <OSMboxDel+0x40>
        *err = OS_ERR_DEL_ISR;                             /* ... can't DELETE from an ISR             */
30003f68:	e51b3018 	ldr	r3, [fp, #-24]	@ 0xffffffe8
30003f6c:	e3e02073 	mvn	r2, #115	@ 0x73
30003f70:	e5c32000 	strb	r2, [r3]
        return (pevent);
30003f74:	e51b3010 	ldr	r3, [fp, #-16]
30003f78:	ea00005f 	b	300040fc <OSMboxDel+0x1c0>
    }
    if (pevent == (OS_EVENT *)0) {                         /* Validate 'pevent'                        */
30003f7c:	e51b3010 	ldr	r3, [fp, #-16]
30003f80:	e3530000 	cmp	r3, #0
30003f84:	1a000004 	bne	30003f9c <OSMboxDel+0x60>
        *err = OS_ERR_PEVENT_NULL;
30003f88:	e51b3018 	ldr	r3, [fp, #-24]	@ 0xffffffe8
30003f8c:	e3a02004 	mov	r2, #4
30003f90:	e5c32000 	strb	r2, [r3]
        return (pevent);
30003f94:	e51b3010 	ldr	r3, [fp, #-16]
30003f98:	ea000057 	b	300040fc <OSMboxDel+0x1c0>
    }
    if (pevent->OSEventType != OS_EVENT_TYPE_MBOX) {       /* Validate event block type                */
30003f9c:	e51b3010 	ldr	r3, [fp, #-16]
30003fa0:	e5d33000 	ldrb	r3, [r3]
30003fa4:	e3530001 	cmp	r3, #1
30003fa8:	0a000004 	beq	30003fc0 <OSMboxDel+0x84>
        *err = OS_ERR_EVENT_TYPE;
30003fac:	e51b3018 	ldr	r3, [fp, #-24]	@ 0xffffffe8
30003fb0:	e3a02001 	mov	r2, #1
30003fb4:	e5c32000 	strb	r2, [r3]
        return (pevent);
30003fb8:	e51b3010 	ldr	r3, [fp, #-16]
30003fbc:	ea00004e 	b	300040fc <OSMboxDel+0x1c0>
    }
    OS_ENTER_CRITICAL();
30003fc0:	ebfff0d3 	bl	30000314 <OS_CPU_SR_Save>
30003fc4:	e50b000c 	str	r0, [fp, #-12]
    if (pevent->OSEventGrp != 0x00) {                      /* See if any tasks waiting on mailbox      */
30003fc8:	e51b3010 	ldr	r3, [fp, #-16]
30003fcc:	e5d33001 	ldrb	r3, [r3, #1]
30003fd0:	e3530000 	cmp	r3, #0
30003fd4:	0a000002 	beq	30003fe4 <OSMboxDel+0xa8>
        tasks_waiting = TRUE;                              /* Yes                                      */
30003fd8:	e3a03001 	mov	r3, #1
30003fdc:	e54b3005 	strb	r3, [fp, #-5]
30003fe0:	ea000001 	b	30003fec <OSMboxDel+0xb0>
    } else {
        tasks_waiting = FALSE;                             /* No                                       */
30003fe4:	e3a03000 	mov	r3, #0
30003fe8:	e54b3005 	strb	r3, [fp, #-5]
    }
    switch (opt) {
30003fec:	e55b3011 	ldrb	r3, [fp, #-17]	@ 0xffffffef
30003ff0:	e3530000 	cmp	r3, #0
30003ff4:	0a000002 	beq	30004004 <OSMboxDel+0xc8>
30003ff8:	e3530001 	cmp	r3, #1
30003ffc:	0a00001f 	beq	30004080 <OSMboxDel+0x144>
30004000:	ea000037 	b	300040e4 <OSMboxDel+0x1a8>
        case OS_DEL_NO_PEND:                               /* Delete mailbox only if no task waiting   */
             if (tasks_waiting == FALSE) {
30004004:	e55b3005 	ldrb	r3, [fp, #-5]
30004008:	e3530000 	cmp	r3, #0
3000400c:	1a000010 	bne	30004054 <OSMboxDel+0x118>
                 pevent->OSEventType = OS_EVENT_TYPE_UNUSED;
30004010:	e51b3010 	ldr	r3, [fp, #-16]
30004014:	e3a02000 	mov	r2, #0
30004018:	e5c32000 	strb	r2, [r3]
                 pevent->OSEventPtr  = OSEventFreeList;    /* Return Event Control Block to free list  */
3000401c:	e59f30ec 	ldr	r3, [pc, #236]	@ 30004110 <OSMboxDel+0x1d4>
30004020:	e5932000 	ldr	r2, [r3]
30004024:	e51b3010 	ldr	r3, [fp, #-16]
30004028:	e5832004 	str	r2, [r3, #4]
                 OSEventFreeList     = pevent;             /* Get next free event control block        */
3000402c:	e59f20dc 	ldr	r2, [pc, #220]	@ 30004110 <OSMboxDel+0x1d4>
30004030:	e51b3010 	ldr	r3, [fp, #-16]
30004034:	e5823000 	str	r3, [r2]
                 OS_EXIT_CRITICAL();
30004038:	e51b000c 	ldr	r0, [fp, #-12]
3000403c:	ebfff0b8 	bl	30000324 <OS_CPU_SR_Restore>
                 *err = OS_NO_ERR;
30004040:	e51b3018 	ldr	r3, [fp, #-24]	@ 0xffffffe8
30004044:	e3a02000 	mov	r2, #0
30004048:	e5c32000 	strb	r2, [r3]
                 return ((OS_EVENT *)0);                   /* Mailbox has been deleted                 */
3000404c:	e3a03000 	mov	r3, #0
30004050:	ea000029 	b	300040fc <OSMboxDel+0x1c0>
             } else {
                 OS_EXIT_CRITICAL();
30004054:	e51b000c 	ldr	r0, [fp, #-12]
30004058:	ebfff0b1 	bl	30000324 <OS_CPU_SR_Restore>
                 *err = OS_ERR_TASK_WAITING;
3000405c:	e51b3018 	ldr	r3, [fp, #-24]	@ 0xffffffe8
30004060:	e3a02008 	mov	r2, #8
30004064:	e5c32000 	strb	r2, [r3]
                 return (pevent);
30004068:	e51b3010 	ldr	r3, [fp, #-16]
3000406c:	ea000022 	b	300040fc <OSMboxDel+0x1c0>
             }

        case OS_DEL_ALWAYS:                                /* Always delete the mailbox                */
             while (pevent->OSEventGrp != 0x00) {          /* Ready ALL tasks waiting for mailbox      */
                 OS_EventTaskRdy(pevent, (void *)0, OS_STAT_MBOX);
30004070:	e3a02002 	mov	r2, #2
30004074:	e3a01000 	mov	r1, #0
30004078:	e51b0010 	ldr	r0, [fp, #-16]
3000407c:	ebfff88c 	bl	300022b4 <OS_EventTaskRdy>
             while (pevent->OSEventGrp != 0x00) {          /* Ready ALL tasks waiting for mailbox      */
30004080:	e51b3010 	ldr	r3, [fp, #-16]
30004084:	e5d33001 	ldrb	r3, [r3, #1]
30004088:	e3530000 	cmp	r3, #0
3000408c:	1afffff7 	bne	30004070 <OSMboxDel+0x134>
             }
             pevent->OSEventType = OS_EVENT_TYPE_UNUSED;
30004090:	e51b3010 	ldr	r3, [fp, #-16]
30004094:	e3a02000 	mov	r2, #0
30004098:	e5c32000 	strb	r2, [r3]
             pevent->OSEventPtr  = OSEventFreeList;        /* Return Event Control Block to free list  */
3000409c:	e59f306c 	ldr	r3, [pc, #108]	@ 30004110 <OSMboxDel+0x1d4>
300040a0:	e5932000 	ldr	r2, [r3]
300040a4:	e51b3010 	ldr	r3, [fp, #-16]
300040a8:	e5832004 	str	r2, [r3, #4]
             OSEventFreeList     = pevent;                 /* Get next free event control block        */
300040ac:	e59f205c 	ldr	r2, [pc, #92]	@ 30004110 <OSMboxDel+0x1d4>
300040b0:	e51b3010 	ldr	r3, [fp, #-16]
300040b4:	e5823000 	str	r3, [r2]
             OS_EXIT_CRITICAL();
300040b8:	e51b000c 	ldr	r0, [fp, #-12]
300040bc:	ebfff098 	bl	30000324 <OS_CPU_SR_Restore>
             if (tasks_waiting == TRUE) {                  /* Reschedule only if task(s) were waiting  */
300040c0:	e55b3005 	ldrb	r3, [fp, #-5]
300040c4:	e3530001 	cmp	r3, #1
300040c8:	1a000000 	bne	300040d0 <OSMboxDel+0x194>
                 OS_Sched();                               /* Find highest priority task ready to run  */
300040cc:	ebfff9de 	bl	3000284c <OS_Sched>
             }
             *err = OS_NO_ERR;
300040d0:	e51b3018 	ldr	r3, [fp, #-24]	@ 0xffffffe8
300040d4:	e3a02000 	mov	r2, #0
300040d8:	e5c32000 	strb	r2, [r3]
             return ((OS_EVENT *)0);                       /* Mailbox has been deleted                 */
300040dc:	e3a03000 	mov	r3, #0
300040e0:	ea000005 	b	300040fc <OSMboxDel+0x1c0>

        default:
             OS_EXIT_CRITICAL();
300040e4:	e51b000c 	ldr	r0, [fp, #-12]
300040e8:	ebfff08d 	bl	30000324 <OS_CPU_SR_Restore>
             *err = OS_ERR_INVALID_OPT;
300040ec:	e51b3018 	ldr	r3, [fp, #-24]	@ 0xffffffe8
300040f0:	e3a02007 	mov	r2, #7
300040f4:	e5c32000 	strb	r2, [r3]
             return (pevent);
300040f8:	e51b3010 	ldr	r3, [fp, #-16]
    }
}
300040fc:	e1a00003 	mov	r0, r3
30004100:	e24bd004 	sub	sp, fp, #4
30004104:	e8bd4800 	pop	{fp, lr}
30004108:	e12fff1e 	bx	lr
3000410c:	3000aa6c 	.word	0x3000aa6c
30004110:	3000b590 	.word	0x3000b590

30004114 <OSMboxPend>:
* :
* - 
*********************************************************************************************************
*/
void  *OSMboxPend (OS_EVENT *pevent, INT16U timeout, INT8U *err)
{
30004114:	e92d4800 	push	{fp, lr}
30004118:	e28db004 	add	fp, sp, #4
3000411c:	e24dd018 	sub	sp, sp, #24
30004120:	e50b0010 	str	r0, [fp, #-16]
30004124:	e1a03001 	mov	r3, r1
30004128:	e50b2018 	str	r2, [fp, #-24]	@ 0xffffffe8
3000412c:	e14b31b2 	strh	r3, [fp, #-18]	@ 0xffffffee
    OS_CPU_SR  cpu_sr;
    void      *msg;

    if (OSIntNesting > 0) {                           /* See if called from ISR ...                    */
30004130:	e59f318c 	ldr	r3, [pc, #396]	@ 300042c4 <OSMboxPend+0x1b0>
30004134:	e5d33000 	ldrb	r3, [r3]
30004138:	e3530000 	cmp	r3, #0
3000413c:	0a000004 	beq	30004154 <OSMboxPend+0x40>
        *err = OS_ERR_PEND_ISR;                       /* ... can't PEND from an ISR                    */
30004140:	e51b3018 	ldr	r3, [fp, #-24]	@ 0xffffffe8
30004144:	e3a02002 	mov	r2, #2
30004148:	e5c32000 	strb	r2, [r3]
        return ((void *)0);
3000414c:	e3a03000 	mov	r3, #0
30004150:	ea000057 	b	300042b4 <OSMboxPend+0x1a0>
    }
    if (pevent == (OS_EVENT *)0) {                    /* Validate 'pevent'                             */
30004154:	e51b3010 	ldr	r3, [fp, #-16]
30004158:	e3530000 	cmp	r3, #0
3000415c:	1a000004 	bne	30004174 <OSMboxPend+0x60>
        *err = OS_ERR_PEVENT_NULL;
30004160:	e51b3018 	ldr	r3, [fp, #-24]	@ 0xffffffe8
30004164:	e3a02004 	mov	r2, #4
30004168:	e5c32000 	strb	r2, [r3]
        return ((void *)0);
3000416c:	e3a03000 	mov	r3, #0
30004170:	ea00004f 	b	300042b4 <OSMboxPend+0x1a0>
    }
    if (pevent->OSEventType != OS_EVENT_TYPE_MBOX) {  /* Validate event block type                     */
30004174:	e51b3010 	ldr	r3, [fp, #-16]
30004178:	e5d33000 	ldrb	r3, [r3]
3000417c:	e3530001 	cmp	r3, #1
30004180:	0a000004 	beq	30004198 <OSMboxPend+0x84>
        *err = OS_ERR_EVENT_TYPE;
30004184:	e51b3018 	ldr	r3, [fp, #-24]	@ 0xffffffe8
30004188:	e3a02001 	mov	r2, #1
3000418c:	e5c32000 	strb	r2, [r3]
        return ((void *)0);
30004190:	e3a03000 	mov	r3, #0
30004194:	ea000046 	b	300042b4 <OSMboxPend+0x1a0>
    }
    OS_ENTER_CRITICAL();
30004198:	ebfff05d 	bl	30000314 <OS_CPU_SR_Save>
3000419c:	e50b0008 	str	r0, [fp, #-8]
    msg = pevent->OSEventPtr;
300041a0:	e51b3010 	ldr	r3, [fp, #-16]
300041a4:	e5933004 	ldr	r3, [r3, #4]
300041a8:	e50b300c 	str	r3, [fp, #-12]
    if (msg != (void *)0) {                           /* See if there is already a message             */
300041ac:	e51b300c 	ldr	r3, [fp, #-12]
300041b0:	e3530000 	cmp	r3, #0
300041b4:	0a000009 	beq	300041e0 <OSMboxPend+0xcc>
        pevent->OSEventPtr = (void *)0;               /* Clear the mailbox                             */
300041b8:	e51b3010 	ldr	r3, [fp, #-16]
300041bc:	e3a02000 	mov	r2, #0
300041c0:	e5832004 	str	r2, [r3, #4]
        OS_EXIT_CRITICAL();
300041c4:	e51b0008 	ldr	r0, [fp, #-8]
300041c8:	ebfff055 	bl	30000324 <OS_CPU_SR_Restore>
        *err = OS_NO_ERR;
300041cc:	e51b3018 	ldr	r3, [fp, #-24]	@ 0xffffffe8
300041d0:	e3a02000 	mov	r2, #0
300041d4:	e5c32000 	strb	r2, [r3]
        return (msg);                                 /* Return the message received (or NULL)         */
300041d8:	e51b300c 	ldr	r3, [fp, #-12]
300041dc:	ea000034 	b	300042b4 <OSMboxPend+0x1a0>
    }
    OSTCBCur->OSTCBStat |= OS_STAT_MBOX;              /* Message not available, task will pend         */
300041e0:	e59f30e0 	ldr	r3, [pc, #224]	@ 300042c8 <OSMboxPend+0x1b4>
300041e4:	e5933000 	ldr	r3, [r3]
300041e8:	e5d3201f 	ldrb	r2, [r3, #31]
300041ec:	e59f30d4 	ldr	r3, [pc, #212]	@ 300042c8 <OSMboxPend+0x1b4>
300041f0:	e5933000 	ldr	r3, [r3]
300041f4:	e3822002 	orr	r2, r2, #2
300041f8:	e20220ff 	and	r2, r2, #255	@ 0xff
300041fc:	e5c3201f 	strb	r2, [r3, #31]
    OSTCBCur->OSTCBDly   = timeout;                   /* Load timeout in TCB                           */
30004200:	e59f30c0 	ldr	r3, [pc, #192]	@ 300042c8 <OSMboxPend+0x1b4>
30004204:	e5933000 	ldr	r3, [r3]
30004208:	e15b21b2 	ldrh	r2, [fp, #-18]	@ 0xffffffee
3000420c:	e1c321bc 	strh	r2, [r3, #28]
    OS_EventTaskWait(pevent);                         /* Suspend task until event or timeout occurs    */
30004210:	e51b0010 	ldr	r0, [fp, #-16]
30004214:	ebfff89a 	bl	30002484 <OS_EventTaskWait>
    OS_EXIT_CRITICAL();
30004218:	e51b0008 	ldr	r0, [fp, #-8]
3000421c:	ebfff040 	bl	30000324 <OS_CPU_SR_Restore>
    OS_Sched();                                       /* Find next highest priority task ready to run  */
30004220:	ebfff989 	bl	3000284c <OS_Sched>
    OS_ENTER_CRITICAL();
30004224:	ebfff03a 	bl	30000314 <OS_CPU_SR_Save>
30004228:	e50b0008 	str	r0, [fp, #-8]
    msg = OSTCBCur->OSTCBMsg;
3000422c:	e59f3094 	ldr	r3, [pc, #148]	@ 300042c8 <OSMboxPend+0x1b4>
30004230:	e5933000 	ldr	r3, [r3]
30004234:	e5933010 	ldr	r3, [r3, #16]
30004238:	e50b300c 	str	r3, [fp, #-12]
    if (msg != (void *)0) {                           /* See if we were given the message              */
3000423c:	e51b300c 	ldr	r3, [fp, #-12]
30004240:	e3530000 	cmp	r3, #0
30004244:	0a000012 	beq	30004294 <OSMboxPend+0x180>
        OSTCBCur->OSTCBMsg      = (void *)0;          /* Yes, clear message received                   */
30004248:	e59f3078 	ldr	r3, [pc, #120]	@ 300042c8 <OSMboxPend+0x1b4>
3000424c:	e5933000 	ldr	r3, [r3]
30004250:	e3a02000 	mov	r2, #0
30004254:	e5832010 	str	r2, [r3, #16]
        OSTCBCur->OSTCBStat     = OS_STAT_RDY;
30004258:	e59f3068 	ldr	r3, [pc, #104]	@ 300042c8 <OSMboxPend+0x1b4>
3000425c:	e5933000 	ldr	r3, [r3]
30004260:	e3a02000 	mov	r2, #0
30004264:	e5c3201f 	strb	r2, [r3, #31]
        OSTCBCur->OSTCBEventPtr = (OS_EVENT *)0;      /* No longer waiting for event                   */
30004268:	e59f3058 	ldr	r3, [pc, #88]	@ 300042c8 <OSMboxPend+0x1b4>
3000426c:	e5933000 	ldr	r3, [r3]
30004270:	e3a02000 	mov	r2, #0
30004274:	e583200c 	str	r2, [r3, #12]
        OS_EXIT_CRITICAL();
30004278:	e51b0008 	ldr	r0, [fp, #-8]
3000427c:	ebfff028 	bl	30000324 <OS_CPU_SR_Restore>
        *err                    = OS_NO_ERR;
30004280:	e51b3018 	ldr	r3, [fp, #-24]	@ 0xffffffe8
30004284:	e3a02000 	mov	r2, #0
30004288:	e5c32000 	strb	r2, [r3]
        return (msg);                                 /* Return the message received                   */
3000428c:	e51b300c 	ldr	r3, [fp, #-12]
30004290:	ea000007 	b	300042b4 <OSMboxPend+0x1a0>
    }
    OS_EventTO(pevent);                               /* Timed out, Make task ready                    */
30004294:	e51b0010 	ldr	r0, [fp, #-16]
30004298:	ebfff8d2 	bl	300025e8 <OS_EventTO>
    OS_EXIT_CRITICAL();
3000429c:	e51b0008 	ldr	r0, [fp, #-8]
300042a0:	ebfff01f 	bl	30000324 <OS_CPU_SR_Restore>
    *err = OS_TIMEOUT;                                /* Indicate that a timeout occured               */
300042a4:	e51b3018 	ldr	r3, [fp, #-24]	@ 0xffffffe8
300042a8:	e3a0200a 	mov	r2, #10
300042ac:	e5c32000 	strb	r2, [r3]
    return ((void *)0);                               /* Return a NULL message                         */
300042b0:	e3a03000 	mov	r3, #0
}
300042b4:	e1a00003 	mov	r0, r3
300042b8:	e24bd004 	sub	sp, fp, #4
300042bc:	e8bd4800 	pop	{fp, lr}
300042c0:	e12fff1e 	bx	lr
300042c4:	3000aa6c 	.word	0x3000aa6c
300042c8:	3000b394 	.word	0x3000b394

300042cc <OSMboxPost>:
* :
* -  Mini2440  32 
*********************************************************************************************************
*/
INT8U  OSMboxPost (OS_EVENT *pevent, void *msg)
{
300042cc:	e92d4800 	push	{fp, lr}
300042d0:	e28db004 	add	fp, sp, #4
300042d4:	e24dd010 	sub	sp, sp, #16
300042d8:	e50b0010 	str	r0, [fp, #-16]
300042dc:	e50b1014 	str	r1, [fp, #-20]	@ 0xffffffec
    // 
    OS_CPU_SR cpu_sr;
    if(pevent == (OS_EVENT *)0){
300042e0:	e51b3010 	ldr	r3, [fp, #-16]
300042e4:	e3530000 	cmp	r3, #0
300042e8:	1a000001 	bne	300042f4 <OSMboxPost+0x28>
        return (OS_ERR_PEVENT_NULL);
300042ec:	e3a03004 	mov	r3, #4
300042f0:	ea000027 	b	30004394 <OSMboxPost+0xc8>
    }
    if(msg == (void *)0){
300042f4:	e51b3014 	ldr	r3, [fp, #-20]	@ 0xffffffec
300042f8:	e3530000 	cmp	r3, #0
300042fc:	1a000001 	bne	30004308 <OSMboxPost+0x3c>
        return (OS_ERR_POST_NULL_PTR);
30004300:	e3a03003 	mov	r3, #3
30004304:	ea000022 	b	30004394 <OSMboxPost+0xc8>
    }
    if(pevent->OSEventType != OS_EVENT_TYPE_MBOX){
30004308:	e51b3010 	ldr	r3, [fp, #-16]
3000430c:	e5d33000 	ldrb	r3, [r3]
30004310:	e3530001 	cmp	r3, #1
30004314:	0a000001 	beq	30004320 <OSMboxPost+0x54>
        return (OS_ERR_EVENT_TYPE);
30004318:	e3a03001 	mov	r3, #1
3000431c:	ea00001c 	b	30004394 <OSMboxPost+0xc8>
    }

    OS_ENTER_CRITICAL();
30004320:	ebffeffb 	bl	30000314 <OS_CPU_SR_Save>
30004324:	e50b0008 	str	r0, [fp, #-8]
    if(pevent->OSEventGrp != 0x00){
30004328:	e51b3010 	ldr	r3, [fp, #-16]
3000432c:	e5d33001 	ldrb	r3, [r3, #1]
30004330:	e3530000 	cmp	r3, #0
30004334:	0a000008 	beq	3000435c <OSMboxPost+0x90>
        OS_EventTaskRdy(pevent, msg, OS_STAT_MBOX);
30004338:	e3a02002 	mov	r2, #2
3000433c:	e51b1014 	ldr	r1, [fp, #-20]	@ 0xffffffec
30004340:	e51b0010 	ldr	r0, [fp, #-16]
30004344:	ebfff7da 	bl	300022b4 <OS_EventTaskRdy>
        OS_EXIT_CRITICAL();
30004348:	e51b0008 	ldr	r0, [fp, #-8]
3000434c:	ebffeff4 	bl	30000324 <OS_CPU_SR_Restore>
        OS_Sched();
30004350:	ebfff93d 	bl	3000284c <OS_Sched>
        return (OS_NO_ERR);
30004354:	e3a03000 	mov	r3, #0
30004358:	ea00000d 	b	30004394 <OSMboxPost+0xc8>
    }
    if(pevent->OSEventPtr != (void *)0){
3000435c:	e51b3010 	ldr	r3, [fp, #-16]
30004360:	e5933004 	ldr	r3, [r3, #4]
30004364:	e3530000 	cmp	r3, #0
30004368:	0a000003 	beq	3000437c <OSMboxPost+0xb0>
        OS_EXIT_CRITICAL();
3000436c:	e51b0008 	ldr	r0, [fp, #-8]
30004370:	ebffefeb 	bl	30000324 <OS_CPU_SR_Restore>
        return (OS_MBOX_FULL);
30004374:	e3a03014 	mov	r3, #20
30004378:	ea000005 	b	30004394 <OSMboxPost+0xc8>
    }
    pevent->OSEventPtr = msg;
3000437c:	e51b3010 	ldr	r3, [fp, #-16]
30004380:	e51b2014 	ldr	r2, [fp, #-20]	@ 0xffffffec
30004384:	e5832004 	str	r2, [r3, #4]
    OS_EXIT_CRITICAL();
30004388:	e51b0008 	ldr	r0, [fp, #-8]
3000438c:	ebffefe4 	bl	30000324 <OS_CPU_SR_Restore>
    return (OS_NO_ERR);
30004390:	e3a03000 	mov	r3, #0
}
30004394:	e1a00003 	mov	r0, r3
30004398:	e24bd004 	sub	sp, fp, #4
3000439c:	e8bd4800 	pop	{fp, lr}
300043a0:	e12fff1e 	bx	lr

300043a4 <OSMboxPostOpt>:
* :
* -  () ARM9 
*********************************************************************************************************
*/
INT8U  OSMboxPostOpt (OS_EVENT *pevent, void *msg, INT8U opt)
{
300043a4:	e52db004 	push	{fp}		@ (str fp, [sp, #-4]!)
300043a8:	e28db000 	add	fp, sp, #0
300043ac:	e24dd014 	sub	sp, sp, #20
300043b0:	e50b0008 	str	r0, [fp, #-8]
300043b4:	e50b100c 	str	r1, [fp, #-12]
300043b8:	e1a03002 	mov	r3, r2
300043bc:	e54b300d 	strb	r3, [fp, #-13]
    //
    return (OS_NO_ERR);
300043c0:	e3a03000 	mov	r3, #0
}
300043c4:	e1a00003 	mov	r0, r3
300043c8:	e28bd000 	add	sp, fp, #0
300043cc:	e49db004 	pop	{fp}		@ (ldr fp, [sp], #4)
300043d0:	e12fff1e 	bx	lr

300043d4 <OSMboxQuery>:
* :
* - 
*********************************************************************************************************
*/
INT8U  OSMboxQuery (OS_EVENT *pevent, OS_MBOX_DATA *pdata)
{
300043d4:	e92d4800 	push	{fp, lr}
300043d8:	e28db004 	add	fp, sp, #4
300043dc:	e24dd010 	sub	sp, sp, #16
300043e0:	e50b0010 	str	r0, [fp, #-16]
300043e4:	e50b1014 	str	r1, [fp, #-20]	@ 0xffffffec
    OS_CPU_SR  cpu_sr;  

    if (pevent == (OS_EVENT *)0) {                         /* Validate 'pevent'                        */
300043e8:	e51b3010 	ldr	r3, [fp, #-16]
300043ec:	e3530000 	cmp	r3, #0
300043f0:	1a000001 	bne	300043fc <OSMboxQuery+0x28>
        return (OS_ERR_PEVENT_NULL);
300043f4:	e3a03004 	mov	r3, #4
300043f8:	ea000019 	b	30004464 <OSMboxQuery+0x90>
    }
    if (pevent->OSEventType != OS_EVENT_TYPE_MBOX) {       /* Validate event block type                */
300043fc:	e51b3010 	ldr	r3, [fp, #-16]
30004400:	e5d33000 	ldrb	r3, [r3]
30004404:	e3530001 	cmp	r3, #1
30004408:	0a000001 	beq	30004414 <OSMboxQuery+0x40>
        return (OS_ERR_EVENT_TYPE);
3000440c:	e3a03001 	mov	r3, #1
30004410:	ea000013 	b	30004464 <OSMboxQuery+0x90>
    }
    OS_ENTER_CRITICAL();
30004414:	ebffefbe 	bl	30000314 <OS_CPU_SR_Save>
30004418:	e50b0008 	str	r0, [fp, #-8]
    pdata->OSEventGrp = pevent->OSEventGrp;                /* Copy message mailbox wait list           */
3000441c:	e51b3010 	ldr	r3, [fp, #-16]
30004420:	e5d32001 	ldrb	r2, [r3, #1]
30004424:	e51b3014 	ldr	r3, [fp, #-20]	@ 0xffffffec
30004428:	e5c3200c 	strb	r2, [r3, #12]
    memcpy(&pdata->OSEventTbl[0], &pevent->OSEventTbl[0], sizeof(pdata->OSEventTbl));
3000442c:	e51b3014 	ldr	r3, [fp, #-20]	@ 0xffffffec
30004430:	e2830004 	add	r0, r3, #4
30004434:	e51b3010 	ldr	r3, [fp, #-16]
30004438:	e283300c 	add	r3, r3, #12
3000443c:	e3a02008 	mov	r2, #8
30004440:	e1a01003 	mov	r1, r3
30004444:	eb000d54 	bl	3000799c <memcpy>
    pdata->OSMsg = pevent->OSEventPtr;                     /* Get message from mailbox                 */
30004448:	e51b3010 	ldr	r3, [fp, #-16]
3000444c:	e5932004 	ldr	r2, [r3, #4]
30004450:	e51b3014 	ldr	r3, [fp, #-20]	@ 0xffffffec
30004454:	e5832000 	str	r2, [r3]
    OS_EXIT_CRITICAL();
30004458:	e51b0008 	ldr	r0, [fp, #-8]
3000445c:	ebffefb0 	bl	30000324 <OS_CPU_SR_Restore>
    return (OS_NO_ERR);
30004460:	e3a03000 	mov	r3, #0
}
30004464:	e1a00003 	mov	r0, r3
30004468:	e24bd004 	sub	sp, fp, #4
3000446c:	e8bd4800 	pop	{fp, lr}
30004470:	e12fff1e 	bx	lr

30004474 <OSMemCreate>:
* - `blksize`  (4) 4  Data Abort 
* -  `addr`  `blksize` 
*********************************************************************************************************
*/
OS_MEM  *OSMemCreate (void *addr, INT32U nblks, INT32U blksize, INT8U *err)
{
30004474:	e92d4800 	push	{fp, lr}
30004478:	e28db004 	add	fp, sp, #4
3000447c:	e24dd028 	sub	sp, sp, #40	@ 0x28
30004480:	e50b0020 	str	r0, [fp, #-32]	@ 0xffffffe0
30004484:	e50b1024 	str	r1, [fp, #-36]	@ 0xffffffdc
30004488:	e50b2028 	str	r2, [fp, #-40]	@ 0xffffffd8
3000448c:	e50b302c 	str	r3, [fp, #-44]	@ 0xffffffd4
    OS_CPU_SR cpu_sr;
    OS_MEM  *pmem;
    INT8U   *pblk;
    void    **plink;

    if(addr == (void *)0){
30004490:	e51b3020 	ldr	r3, [fp, #-32]	@ 0xffffffe0
30004494:	e3530000 	cmp	r3, #0
30004498:	1a000004 	bne	300044b0 <OSMemCreate+0x3c>
        *err = OS_MEM_INVALID_ADDR;
3000449c:	e51b302c 	ldr	r3, [fp, #-44]	@ 0xffffffd4
300044a0:	e3a02076 	mov	r2, #118	@ 0x76
300044a4:	e5c32000 	strb	r2, [r3]
        return ((OS_MEM *)0);
300044a8:	e3a03000 	mov	r3, #0
300044ac:	ea000054 	b	30004604 <OSMemCreate+0x190>
    }
    if(nblks < 2){
300044b0:	e51b3024 	ldr	r3, [fp, #-36]	@ 0xffffffdc
300044b4:	e3530001 	cmp	r3, #1
300044b8:	8a000004 	bhi	300044d0 <OSMemCreate+0x5c>
        *err = OS_MEM_NO_FREE_BLKS;
300044bc:	e51b302c 	ldr	r3, [fp, #-44]	@ 0xffffffd4
300044c0:	e3a02071 	mov	r2, #113	@ 0x71
300044c4:	e5c32000 	strb	r2, [r3]
        return ((OS_MEM *)0);
300044c8:	e3a03000 	mov	r3, #0
300044cc:	ea00004c 	b	30004604 <OSMemCreate+0x190>
    }
    if(blksize < sizeof(void *)){
300044d0:	e51b3028 	ldr	r3, [fp, #-40]	@ 0xffffffd8
300044d4:	e3530003 	cmp	r3, #3
300044d8:	8a000004 	bhi	300044f0 <OSMemCreate+0x7c>
        *err = OS_MEM_INVALID_SIZE;
300044dc:	e51b302c 	ldr	r3, [fp, #-44]	@ 0xffffffd4
300044e0:	e3a02070 	mov	r2, #112	@ 0x70
300044e4:	e5c32000 	strb	r2, [r3]
        return ((OS_MEM *)0);
300044e8:	e3a03000 	mov	r3, #0
300044ec:	ea000044 	b	30004604 <OSMemCreate+0x190>
    }
    OS_ENTER_CRITICAL();
300044f0:	ebffef87 	bl	30000314 <OS_CPU_SR_Save>
300044f4:	e50b0014 	str	r0, [fp, #-20]	@ 0xffffffec
    pmem = OSMemFreeList;
300044f8:	e59f3114 	ldr	r3, [pc, #276]	@ 30004614 <OSMemCreate+0x1a0>
300044fc:	e5933000 	ldr	r3, [r3]
30004500:	e50b3018 	str	r3, [fp, #-24]	@ 0xffffffe8
    if(OSMemFreeList != (OS_MEM *)0){
30004504:	e59f3108 	ldr	r3, [pc, #264]	@ 30004614 <OSMemCreate+0x1a0>
30004508:	e5933000 	ldr	r3, [r3]
3000450c:	e3530000 	cmp	r3, #0
30004510:	0a000004 	beq	30004528 <OSMemCreate+0xb4>
        OSMemFreeList = (OS_MEM *)OSMemFreeList->OSMemFreeList;
30004514:	e59f30f8 	ldr	r3, [pc, #248]	@ 30004614 <OSMemCreate+0x1a0>
30004518:	e5933000 	ldr	r3, [r3]
3000451c:	e5933004 	ldr	r3, [r3, #4]
30004520:	e59f20ec 	ldr	r2, [pc, #236]	@ 30004614 <OSMemCreate+0x1a0>
30004524:	e5823000 	str	r3, [r2]
    }
    OS_EXIT_CRITICAL();
30004528:	e51b0014 	ldr	r0, [fp, #-20]	@ 0xffffffec
3000452c:	ebffef7c 	bl	30000324 <OS_CPU_SR_Restore>
    if(pmem == (OS_MEM *)0){
30004530:	e51b3018 	ldr	r3, [fp, #-24]	@ 0xffffffe8
30004534:	e3530000 	cmp	r3, #0
30004538:	1a000004 	bne	30004550 <OSMemCreate+0xdc>
        *err = OS_MEM_INVALID_PART;
3000453c:	e51b302c 	ldr	r3, [fp, #-44]	@ 0xffffffd4
30004540:	e3a0206e 	mov	r2, #110	@ 0x6e
30004544:	e5c32000 	strb	r2, [r3]
        return ((OS_MEM *)0);
30004548:	e3a03000 	mov	r3, #0
3000454c:	ea00002c 	b	30004604 <OSMemCreate+0x190>
    }
    plink = (void **)addr;
30004550:	e51b3020 	ldr	r3, [fp, #-32]	@ 0xffffffe0
30004554:	e50b300c 	str	r3, [fp, #-12]
    pblk = (INT8U *)addr + blksize;
30004558:	e51b2020 	ldr	r2, [fp, #-32]	@ 0xffffffe0
3000455c:	e51b3028 	ldr	r3, [fp, #-40]	@ 0xffffffd8
30004560:	e0823003 	add	r3, r2, r3
30004564:	e50b3008 	str	r3, [fp, #-8]
    for(INT32U i = 0; i < (nblks - 1); i++){
30004568:	e3a03000 	mov	r3, #0
3000456c:	e50b3010 	str	r3, [fp, #-16]
30004570:	ea00000b 	b	300045a4 <OSMemCreate+0x130>
        *plink = (void *)pblk;
30004574:	e51b300c 	ldr	r3, [fp, #-12]
30004578:	e51b2008 	ldr	r2, [fp, #-8]
3000457c:	e5832000 	str	r2, [r3]
        plink = (void **)pblk;
30004580:	e51b3008 	ldr	r3, [fp, #-8]
30004584:	e50b300c 	str	r3, [fp, #-12]
        pblk = pblk +blksize;
30004588:	e51b2008 	ldr	r2, [fp, #-8]
3000458c:	e51b3028 	ldr	r3, [fp, #-40]	@ 0xffffffd8
30004590:	e0823003 	add	r3, r2, r3
30004594:	e50b3008 	str	r3, [fp, #-8]
    for(INT32U i = 0; i < (nblks - 1); i++){
30004598:	e51b3010 	ldr	r3, [fp, #-16]
3000459c:	e2833001 	add	r3, r3, #1
300045a0:	e50b3010 	str	r3, [fp, #-16]
300045a4:	e51b3024 	ldr	r3, [fp, #-36]	@ 0xffffffdc
300045a8:	e2433001 	sub	r3, r3, #1
300045ac:	e51b2010 	ldr	r2, [fp, #-16]
300045b0:	e1520003 	cmp	r2, r3
300045b4:	3affffee 	bcc	30004574 <OSMemCreate+0x100>
    }
    *plink = (void *)0;
300045b8:	e51b300c 	ldr	r3, [fp, #-12]
300045bc:	e3a02000 	mov	r2, #0
300045c0:	e5832000 	str	r2, [r3]
    pmem->OSMemAddr = addr;
300045c4:	e51b3018 	ldr	r3, [fp, #-24]	@ 0xffffffe8
300045c8:	e51b2020 	ldr	r2, [fp, #-32]	@ 0xffffffe0
300045cc:	e5832000 	str	r2, [r3]
    pmem->OSMemFreeList = addr;
300045d0:	e51b3018 	ldr	r3, [fp, #-24]	@ 0xffffffe8
300045d4:	e51b2020 	ldr	r2, [fp, #-32]	@ 0xffffffe0
300045d8:	e5832004 	str	r2, [r3, #4]
    pmem->OSMemNFree = nblks;
300045dc:	e51b3018 	ldr	r3, [fp, #-24]	@ 0xffffffe8
300045e0:	e51b2024 	ldr	r2, [fp, #-36]	@ 0xffffffdc
300045e4:	e5832010 	str	r2, [r3, #16]
    pmem->OSMemBlkSize = blksize;
300045e8:	e51b3018 	ldr	r3, [fp, #-24]	@ 0xffffffe8
300045ec:	e51b2028 	ldr	r2, [fp, #-40]	@ 0xffffffd8
300045f0:	e5832008 	str	r2, [r3, #8]
    *err = OS_NO_ERR;
300045f4:	e51b302c 	ldr	r3, [fp, #-44]	@ 0xffffffd4
300045f8:	e3a02000 	mov	r2, #0
300045fc:	e5c32000 	strb	r2, [r3]
    return(pmem);
30004600:	e51b3018 	ldr	r3, [fp, #-24]	@ 0xffffffe8
}
30004604:	e1a00003 	mov	r0, r3
30004608:	e24bd004 	sub	sp, fp, #4
3000460c:	e8bd4800 	pop	{fp, lr}
30004610:	e12fff1e 	bx	lr
30004614:	3000b5b8 	.word	0x3000b5b8

30004618 <OSMemGet>:
* :
* - 
*********************************************************************************************************
*/
void  *OSMemGet (OS_MEM *pmem, INT8U *err)
{
30004618:	e92d4800 	push	{fp, lr}
3000461c:	e28db004 	add	fp, sp, #4
30004620:	e24dd010 	sub	sp, sp, #16
30004624:	e50b0010 	str	r0, [fp, #-16]
30004628:	e50b1014 	str	r1, [fp, #-20]	@ 0xffffffec
    OS_CPU_SR cpu_sr;
    void *pblk;
    if(pmem == (OS_MEM *)0){
3000462c:	e51b3010 	ldr	r3, [fp, #-16]
30004630:	e3530000 	cmp	r3, #0
30004634:	1a000004 	bne	3000464c <OSMemGet+0x34>
        *err = OS_MEM_INVALID_PMEM;
30004638:	e51b3014 	ldr	r3, [fp, #-20]	@ 0xffffffec
3000463c:	e3a02074 	mov	r2, #116	@ 0x74
30004640:	e5c32000 	strb	r2, [r3]
        return ((OS_MEM *)0);
30004644:	e3a03000 	mov	r3, #0
30004648:	ea00001e 	b	300046c8 <OSMemGet+0xb0>
    }
    OS_ENTER_CRITICAL();
3000464c:	ebffef30 	bl	30000314 <OS_CPU_SR_Save>
30004650:	e50b0008 	str	r0, [fp, #-8]
    if(pmem->OSMemNFree > 0){
30004654:	e51b3010 	ldr	r3, [fp, #-16]
30004658:	e5933010 	ldr	r3, [r3, #16]
3000465c:	e3530000 	cmp	r3, #0
30004660:	0a000012 	beq	300046b0 <OSMemGet+0x98>
        pblk = pmem->OSMemFreeList;
30004664:	e51b3010 	ldr	r3, [fp, #-16]
30004668:	e5933004 	ldr	r3, [r3, #4]
3000466c:	e50b300c 	str	r3, [fp, #-12]
        pmem->OSMemFreeList = *(void **)pblk;
30004670:	e51b300c 	ldr	r3, [fp, #-12]
30004674:	e5932000 	ldr	r2, [r3]
30004678:	e51b3010 	ldr	r3, [fp, #-16]
3000467c:	e5832004 	str	r2, [r3, #4]
        pmem->OSMemNFree--;
30004680:	e51b3010 	ldr	r3, [fp, #-16]
30004684:	e5933010 	ldr	r3, [r3, #16]
30004688:	e2432001 	sub	r2, r3, #1
3000468c:	e51b3010 	ldr	r3, [fp, #-16]
30004690:	e5832010 	str	r2, [r3, #16]
        OS_EXIT_CRITICAL();
30004694:	e51b0008 	ldr	r0, [fp, #-8]
30004698:	ebffef21 	bl	30000324 <OS_CPU_SR_Restore>
        *err = OS_NO_ERR;
3000469c:	e51b3014 	ldr	r3, [fp, #-20]	@ 0xffffffec
300046a0:	e3a02000 	mov	r2, #0
300046a4:	e5c32000 	strb	r2, [r3]
        return(pblk);
300046a8:	e51b300c 	ldr	r3, [fp, #-12]
300046ac:	ea000005 	b	300046c8 <OSMemGet+0xb0>
    }
    OS_EXIT_CRITICAL();
300046b0:	e51b0008 	ldr	r0, [fp, #-8]
300046b4:	ebffef1a 	bl	30000324 <OS_CPU_SR_Restore>
    *err = OS_MEM_NO_FREE_BLKS;
300046b8:	e51b3014 	ldr	r3, [fp, #-20]	@ 0xffffffec
300046bc:	e3a02071 	mov	r2, #113	@ 0x71
300046c0:	e5c32000 	strb	r2, [r3]
    return ((void *)0);
300046c4:	e3a03000 	mov	r3, #0
}
300046c8:	e1a00003 	mov	r0, r3
300046cc:	e24bd004 	sub	sp, fp, #4
300046d0:	e8bd4800 	pop	{fp, lr}
300046d4:	e12fff1e 	bx	lr

300046d8 <OSMemPut>:
* :
* - 
*********************************************************************************************************
*/
INT8U  OSMemPut (OS_MEM  *pmem, void *pblk)
{
300046d8:	e92d4800 	push	{fp, lr}
300046dc:	e28db004 	add	fp, sp, #4
300046e0:	e24dd010 	sub	sp, sp, #16
300046e4:	e50b0010 	str	r0, [fp, #-16]
300046e8:	e50b1014 	str	r1, [fp, #-20]	@ 0xffffffec
    OS_CPU_SR cpu_sr;
    if(pmem == (OS_MEM *)0){
300046ec:	e51b3010 	ldr	r3, [fp, #-16]
300046f0:	e3530000 	cmp	r3, #0
300046f4:	1a000001 	bne	30004700 <OSMemPut+0x28>
        return (OS_MEM_INVALID_PMEM);
300046f8:	e3a03074 	mov	r3, #116	@ 0x74
300046fc:	ea00001f 	b	30004780 <OSMemPut+0xa8>
    }
    if(pblk == (void *)0){
30004700:	e51b3014 	ldr	r3, [fp, #-20]	@ 0xffffffec
30004704:	e3530000 	cmp	r3, #0
30004708:	1a000001 	bne	30004714 <OSMemPut+0x3c>
        return (OS_MEM_INVALID_PBLK);
3000470c:	e3a03073 	mov	r3, #115	@ 0x73
30004710:	ea00001a 	b	30004780 <OSMemPut+0xa8>
    }
    OS_ENTER_CRITICAL();
30004714:	ebffeefe 	bl	30000314 <OS_CPU_SR_Save>
30004718:	e50b0008 	str	r0, [fp, #-8]
    if(pmem->OSMemNFree >= pmem->OSMemNBlks){
3000471c:	e51b3010 	ldr	r3, [fp, #-16]
30004720:	e5932010 	ldr	r2, [r3, #16]
30004724:	e51b3010 	ldr	r3, [fp, #-16]
30004728:	e593300c 	ldr	r3, [r3, #12]
3000472c:	e1520003 	cmp	r2, r3
30004730:	3a000003 	bcc	30004744 <OSMemPut+0x6c>
        OS_EXIT_CRITICAL();
30004734:	e51b0008 	ldr	r0, [fp, #-8]
30004738:	ebffeef9 	bl	30000324 <OS_CPU_SR_Restore>
        return (OS_MEM_FULL);
3000473c:	e3a03072 	mov	r3, #114	@ 0x72
30004740:	ea00000e 	b	30004780 <OSMemPut+0xa8>
    }
    *(void **)pblk = pmem->OSMemFreeList;
30004744:	e51b3010 	ldr	r3, [fp, #-16]
30004748:	e5932004 	ldr	r2, [r3, #4]
3000474c:	e51b3014 	ldr	r3, [fp, #-20]	@ 0xffffffec
30004750:	e5832000 	str	r2, [r3]
    pmem->OSMemFreeList = pblk;
30004754:	e51b3010 	ldr	r3, [fp, #-16]
30004758:	e51b2014 	ldr	r2, [fp, #-20]	@ 0xffffffec
3000475c:	e5832004 	str	r2, [r3, #4]
    pmem->OSMemNFree++;
30004760:	e51b3010 	ldr	r3, [fp, #-16]
30004764:	e5933010 	ldr	r3, [r3, #16]
30004768:	e2832001 	add	r2, r3, #1
3000476c:	e51b3010 	ldr	r3, [fp, #-16]
30004770:	e5832010 	str	r2, [r3, #16]
    OS_EXIT_CRITICAL();
30004774:	e51b0008 	ldr	r0, [fp, #-8]
30004778:	ebffeee9 	bl	30000324 <OS_CPU_SR_Restore>
    return (OS_NO_ERR);
3000477c:	e3a03000 	mov	r3, #0
}
30004780:	e1a00003 	mov	r0, r3
30004784:	e24bd004 	sub	sp, fp, #4
30004788:	e8bd4800 	pop	{fp, lr}
3000478c:	e12fff1e 	bx	lr

30004790 <OSMemQuery>:
* :
* - 
*********************************************************************************************************
*/
INT8U  OSMemQuery (OS_MEM *pmem, OS_MEM_DATA *pdata)
{
30004790:	e92d4800 	push	{fp, lr}
30004794:	e28db004 	add	fp, sp, #4
30004798:	e24dd010 	sub	sp, sp, #16
3000479c:	e50b0010 	str	r0, [fp, #-16]
300047a0:	e50b1014 	str	r1, [fp, #-20]	@ 0xffffffec

    OS_CPU_SR  cpu_sr;
    
    if (pmem == (OS_MEM *)0) {                   /* Must point to a valid memory partition             */
300047a4:	e51b3010 	ldr	r3, [fp, #-16]
300047a8:	e3530000 	cmp	r3, #0
300047ac:	1a000001 	bne	300047b8 <OSMemQuery+0x28>
        return (OS_MEM_INVALID_PMEM);
300047b0:	e3a03074 	mov	r3, #116	@ 0x74
300047b4:	ea000024 	b	3000484c <OSMemQuery+0xbc>
    }
    if (pdata == (OS_MEM_DATA *)0) {             /* Must release a valid storage area for the data     */
300047b8:	e51b3014 	ldr	r3, [fp, #-20]	@ 0xffffffec
300047bc:	e3530000 	cmp	r3, #0
300047c0:	1a000001 	bne	300047cc <OSMemQuery+0x3c>
        return (OS_MEM_INVALID_PDATA);
300047c4:	e3a03075 	mov	r3, #117	@ 0x75
300047c8:	ea00001f 	b	3000484c <OSMemQuery+0xbc>
    }
    OS_ENTER_CRITICAL();
300047cc:	ebffeed0 	bl	30000314 <OS_CPU_SR_Save>
300047d0:	e50b0008 	str	r0, [fp, #-8]
    pdata->OSAddr     = pmem->OSMemAddr;
300047d4:	e51b3010 	ldr	r3, [fp, #-16]
300047d8:	e5932000 	ldr	r2, [r3]
300047dc:	e51b3014 	ldr	r3, [fp, #-20]	@ 0xffffffec
300047e0:	e5832000 	str	r2, [r3]
    pdata->OSFreeList = pmem->OSMemFreeList;
300047e4:	e51b3010 	ldr	r3, [fp, #-16]
300047e8:	e5932004 	ldr	r2, [r3, #4]
300047ec:	e51b3014 	ldr	r3, [fp, #-20]	@ 0xffffffec
300047f0:	e5832004 	str	r2, [r3, #4]
    pdata->OSBlkSize  = pmem->OSMemBlkSize;
300047f4:	e51b3010 	ldr	r3, [fp, #-16]
300047f8:	e5932008 	ldr	r2, [r3, #8]
300047fc:	e51b3014 	ldr	r3, [fp, #-20]	@ 0xffffffec
30004800:	e5832008 	str	r2, [r3, #8]
    pdata->OSNBlks    = pmem->OSMemNBlks;
30004804:	e51b3010 	ldr	r3, [fp, #-16]
30004808:	e593200c 	ldr	r2, [r3, #12]
3000480c:	e51b3014 	ldr	r3, [fp, #-20]	@ 0xffffffec
30004810:	e583200c 	str	r2, [r3, #12]
    pdata->OSNFree    = pmem->OSMemNFree;
30004814:	e51b3010 	ldr	r3, [fp, #-16]
30004818:	e5932010 	ldr	r2, [r3, #16]
3000481c:	e51b3014 	ldr	r3, [fp, #-20]	@ 0xffffffec
30004820:	e5832010 	str	r2, [r3, #16]
    OS_EXIT_CRITICAL();
30004824:	e51b0008 	ldr	r0, [fp, #-8]
30004828:	ebffeebd 	bl	30000324 <OS_CPU_SR_Restore>
    pdata->OSNUsed    = pdata->OSNBlks - pdata->OSNFree;
3000482c:	e51b3014 	ldr	r3, [fp, #-20]	@ 0xffffffec
30004830:	e593200c 	ldr	r2, [r3, #12]
30004834:	e51b3014 	ldr	r3, [fp, #-20]	@ 0xffffffec
30004838:	e5933010 	ldr	r3, [r3, #16]
3000483c:	e0422003 	sub	r2, r2, r3
30004840:	e51b3014 	ldr	r3, [fp, #-20]	@ 0xffffffec
30004844:	e5832014 	str	r2, [r3, #20]
    return (OS_NO_ERR);
30004848:	e3a03000 	mov	r3, #0

}
3000484c:	e1a00003 	mov	r0, r3
30004850:	e24bd004 	sub	sp, fp, #4
30004854:	e8bd4800 	pop	{fp, lr}
30004858:	e12fff1e 	bx	lr

3000485c <OS_MemInit>:
* :
* - 
*********************************************************************************************************
*/
void  OS_MemInit (void)
{
3000485c:	e52db004 	push	{fp}		@ (str fp, [sp, #-4]!)
30004860:	e28db000 	add	fp, sp, #0
    // 
#if OS_MAX_MEM_PART == 1
    OSMemFreeList = (OS_MEM *)&OSMemTbl[0];
30004864:	e59f3064 	ldr	r3, [pc, #100]	@ 300048d0 <OS_MemInit+0x74>
30004868:	e59f2064 	ldr	r2, [pc, #100]	@ 300048d4 <OS_MemInit+0x78>
3000486c:	e5832000 	str	r2, [r3]
    OSMemFreeList->OSMemAddr = (void *)0;
30004870:	e59f3058 	ldr	r3, [pc, #88]	@ 300048d0 <OS_MemInit+0x74>
30004874:	e5933000 	ldr	r3, [r3]
30004878:	e3a02000 	mov	r2, #0
3000487c:	e5832000 	str	r2, [r3]
    OSMemFreeList->OSMemFreeList = (void *)0;
30004880:	e59f3048 	ldr	r3, [pc, #72]	@ 300048d0 <OS_MemInit+0x74>
30004884:	e5933000 	ldr	r3, [r3]
30004888:	e3a02000 	mov	r2, #0
3000488c:	e5832004 	str	r2, [r3, #4]
    OSMemFreeList->OSMemBlkSize = 0;
30004890:	e59f3038 	ldr	r3, [pc, #56]	@ 300048d0 <OS_MemInit+0x74>
30004894:	e5933000 	ldr	r3, [r3]
30004898:	e3a02000 	mov	r2, #0
3000489c:	e5832008 	str	r2, [r3, #8]
    OSMemFreeList->OSMemNBlks = 0;
300048a0:	e59f3028 	ldr	r3, [pc, #40]	@ 300048d0 <OS_MemInit+0x74>
300048a4:	e5933000 	ldr	r3, [r3]
300048a8:	e3a02000 	mov	r2, #0
300048ac:	e583200c 	str	r2, [r3, #12]
    OSMemFreeList->OSMemNFree = 0;
300048b0:	e59f3018 	ldr	r3, [pc, #24]	@ 300048d0 <OS_MemInit+0x74>
300048b4:	e5933000 	ldr	r3, [r3]
300048b8:	e3a02000 	mov	r2, #0
300048bc:	e5832010 	str	r2, [r3, #16]
    pmem->OSMemNBlks = 0;
    pmem->OSMemNFree = 0;

    OSMemFreeList =(OS_MEM *)&OSMemTbl[0];
#endif
}
300048c0:	e1a00000 	nop			@ (mov r0, r0)
300048c4:	e28bd000 	add	sp, fp, #0
300048c8:	e49db004 	pop	{fp}		@ (ldr fp, [sp], #4)
300048cc:	e12fff1e 	bx	lr
300048d0:	3000b5b8 	.word	0x3000b5b8
300048d4:	3000b5bc 	.word	0x3000b5bc

300048d8 <OSMutexAccept>:
* -  OSEventCnt  8  PIP (Priority Inheritance Priority) 8 
* - Mini2440  (Little Endian) `>> 8`  `& 0xFF` 
*********************************************************************************************************
*/
INT8U  OSMutexAccept (OS_EVENT *pevent, INT8U *err)
{
300048d8:	e92d4800 	push	{fp, lr}
300048dc:	e28db004 	add	fp, sp, #4
300048e0:	e24dd010 	sub	sp, sp, #16
300048e4:	e50b0010 	str	r0, [fp, #-16]
300048e8:	e50b1014 	str	r1, [fp, #-20]	@ 0xffffffec
    OS_CPU_SR  cpu_sr;  
      
    if (OSIntNesting > 0) {                            /* Make sure it's not called from an ISR        */
300048ec:	e59f3104 	ldr	r3, [pc, #260]	@ 300049f8 <OSMutexAccept+0x120>
300048f0:	e5d33000 	ldrb	r3, [r3]
300048f4:	e3530000 	cmp	r3, #0
300048f8:	0a000004 	beq	30004910 <OSMutexAccept+0x38>
        *err = OS_ERR_PEND_ISR;
300048fc:	e51b3014 	ldr	r3, [fp, #-20]	@ 0xffffffec
30004900:	e3a02002 	mov	r2, #2
30004904:	e5c32000 	strb	r2, [r3]
        return (0);
30004908:	e3a03000 	mov	r3, #0
3000490c:	ea000035 	b	300049e8 <OSMutexAccept+0x110>
    }
    if (pevent == (OS_EVENT *)0) {                     /* Validate 'pevent'                            */
30004910:	e51b3010 	ldr	r3, [fp, #-16]
30004914:	e3530000 	cmp	r3, #0
30004918:	1a000004 	bne	30004930 <OSMutexAccept+0x58>
        *err = OS_ERR_PEVENT_NULL;
3000491c:	e51b3014 	ldr	r3, [fp, #-20]	@ 0xffffffec
30004920:	e3a02004 	mov	r2, #4
30004924:	e5c32000 	strb	r2, [r3]
        return (0);
30004928:	e3a03000 	mov	r3, #0
3000492c:	ea00002d 	b	300049e8 <OSMutexAccept+0x110>
    }
    if (pevent->OSEventType != OS_EVENT_TYPE_MUTEX) {  /* Validate event block type                    */
30004930:	e51b3010 	ldr	r3, [fp, #-16]
30004934:	e5d33000 	ldrb	r3, [r3]
30004938:	e3530004 	cmp	r3, #4
3000493c:	0a000004 	beq	30004954 <OSMutexAccept+0x7c>
        *err = OS_ERR_EVENT_TYPE;
30004940:	e51b3014 	ldr	r3, [fp, #-20]	@ 0xffffffec
30004944:	e3a02001 	mov	r2, #1
30004948:	e5c32000 	strb	r2, [r3]
        return (0);
3000494c:	e3a03000 	mov	r3, #0
30004950:	ea000024 	b	300049e8 <OSMutexAccept+0x110>
    }                                                    
    OS_ENTER_CRITICAL();							   /* Get value (0 or 1) of Mutex                  */
30004954:	ebffee6e 	bl	30000314 <OS_CPU_SR_Save>
30004958:	e50b0008 	str	r0, [fp, #-8]
    if ((pevent->OSEventCnt & OS_MUTEX_KEEP_LOWER_8) == OS_MUTEX_AVAILABLE) {     
3000495c:	e51b3010 	ldr	r3, [fp, #-16]
30004960:	e5933008 	ldr	r3, [r3, #8]
30004964:	e20330ff 	and	r3, r3, #255	@ 0xff
30004968:	e35300ff 	cmp	r3, #255	@ 0xff
3000496c:	1a000017 	bne	300049d0 <OSMutexAccept+0xf8>
        pevent->OSEventCnt &= OS_MUTEX_KEEP_UPPER_8;   /*      Mask off LSByte (Acquire Mutex)         */
30004970:	e51b3010 	ldr	r3, [fp, #-16]
30004974:	e5933008 	ldr	r3, [r3, #8]
30004978:	e2032cff 	and	r2, r3, #65280	@ 0xff00
3000497c:	e51b3010 	ldr	r3, [fp, #-16]
30004980:	e5832008 	str	r2, [r3, #8]
        pevent->OSEventCnt |= OSTCBCur->OSTCBPrio;     /*      Save current task priority in LSByte    */
30004984:	e51b3010 	ldr	r3, [fp, #-16]
30004988:	e5933008 	ldr	r3, [r3, #8]
3000498c:	e59f2068 	ldr	r2, [pc, #104]	@ 300049fc <OSMutexAccept+0x124>
30004990:	e5922000 	ldr	r2, [r2]
30004994:	e5d2201e 	ldrb	r2, [r2, #30]
30004998:	e1832002 	orr	r2, r3, r2
3000499c:	e51b3010 	ldr	r3, [fp, #-16]
300049a0:	e5832008 	str	r2, [r3, #8]
        pevent->OSEventPtr  = (void *)OSTCBCur;        /*      Link TCB of task owning Mutex           */
300049a4:	e59f3050 	ldr	r3, [pc, #80]	@ 300049fc <OSMutexAccept+0x124>
300049a8:	e5932000 	ldr	r2, [r3]
300049ac:	e51b3010 	ldr	r3, [fp, #-16]
300049b0:	e5832004 	str	r2, [r3, #4]
        OS_EXIT_CRITICAL();
300049b4:	e51b0008 	ldr	r0, [fp, #-8]
300049b8:	ebffee59 	bl	30000324 <OS_CPU_SR_Restore>
        *err = OS_NO_ERR;
300049bc:	e51b3014 	ldr	r3, [fp, #-20]	@ 0xffffffec
300049c0:	e3a02000 	mov	r2, #0
300049c4:	e5c32000 	strb	r2, [r3]
        return (1);
300049c8:	e3a03001 	mov	r3, #1
300049cc:	ea000005 	b	300049e8 <OSMutexAccept+0x110>
    }
    OS_EXIT_CRITICAL();
300049d0:	e51b0008 	ldr	r0, [fp, #-8]
300049d4:	ebffee52 	bl	30000324 <OS_CPU_SR_Restore>
    *err = OS_NO_ERR;
300049d8:	e51b3014 	ldr	r3, [fp, #-20]	@ 0xffffffec
300049dc:	e3a02000 	mov	r2, #0
300049e0:	e5c32000 	strb	r2, [r3]
    return (0);
300049e4:	e3a03000 	mov	r3, #0
}
300049e8:	e1a00003 	mov	r0, r3
300049ec:	e24bd004 	sub	sp, fp, #4
300049f0:	e8bd4800 	pop	{fp, lr}
300049f4:	e12fff1e 	bx	lr
300049f8:	3000aa6c 	.word	0x3000aa6c
300049fc:	3000b394 	.word	0x3000b394

30004a00 <OSMutexCreate>:
* :
* - PIP 
*********************************************************************************************************
*/
OS_EVENT  *OSMutexCreate (INT8U prio, INT8U *err)
{
30004a00:	e92d4800 	push	{fp, lr}
30004a04:	e28db004 	add	fp, sp, #4
30004a08:	e24dd010 	sub	sp, sp, #16
30004a0c:	e1a03000 	mov	r3, r0
30004a10:	e50b1014 	str	r1, [fp, #-20]	@ 0xffffffec
30004a14:	e54b300d 	strb	r3, [fp, #-13]
    OS_CPU_SR  cpu_sr;
    OS_EVENT  *pevent;

    // 1. 
    if (OSIntNesting > 0) {
30004a18:	e59f312c 	ldr	r3, [pc, #300]	@ 30004b4c <OSMutexCreate+0x14c>
30004a1c:	e5d33000 	ldrb	r3, [r3]
30004a20:	e3530000 	cmp	r3, #0
30004a24:	0a000004 	beq	30004a3c <OSMutexCreate+0x3c>
        *err = OS_ERR_CREATE_ISR;
30004a28:	e51b3014 	ldr	r3, [fp, #-20]	@ 0xffffffec
30004a2c:	e3e02072 	mvn	r2, #114	@ 0x72
30004a30:	e5c32000 	strb	r2, [r3]
        return ((OS_EVENT *)0);
30004a34:	e3a03000 	mov	r3, #0
30004a38:	ea00003f 	b	30004b3c <OSMutexCreate+0x13c>
    }
    if (prio >= OS_LOWEST_PRIO) { // Mutex
30004a3c:	e55b300d 	ldrb	r3, [fp, #-13]
30004a40:	e353003d 	cmp	r3, #61	@ 0x3d
30004a44:	9a000004 	bls	30004a5c <OSMutexCreate+0x5c>
        *err = OS_PRIO_INVALID;
30004a48:	e51b3014 	ldr	r3, [fp, #-20]	@ 0xffffffec
30004a4c:	e3a0202a 	mov	r2, #42	@ 0x2a
30004a50:	e5c32000 	strb	r2, [r3]
        return ((OS_EVENT *)0);
30004a54:	e3a03000 	mov	r3, #0
30004a58:	ea000037 	b	30004b3c <OSMutexCreate+0x13c>
    }
    OS_ENTER_CRITICAL();
30004a5c:	ebffee2c 	bl	30000314 <OS_CPU_SR_Save>
30004a60:	e50b0008 	str	r0, [fp, #-8]
    if (OSTCBPrioTbl[prio] != (OS_TCB *)0) { 
30004a64:	e55b300d 	ldrb	r3, [fp, #-13]
30004a68:	e59f20e0 	ldr	r2, [pc, #224]	@ 30004b50 <OSMutexCreate+0x150>
30004a6c:	e7923103 	ldr	r3, [r2, r3, lsl #2]
30004a70:	e3530000 	cmp	r3, #0
30004a74:	0a000006 	beq	30004a94 <OSMutexCreate+0x94>
        OS_EXIT_CRITICAL();
30004a78:	e51b0008 	ldr	r0, [fp, #-8]
30004a7c:	ebffee28 	bl	30000324 <OS_CPU_SR_Restore>
        *err = OS_PRIO_EXIST;  // 
30004a80:	e51b3014 	ldr	r3, [fp, #-20]	@ 0xffffffec
30004a84:	e3a02028 	mov	r2, #40	@ 0x28
30004a88:	e5c32000 	strb	r2, [r3]
        return ((OS_EVENT *)0);
30004a8c:	e3a03000 	mov	r3, #0
30004a90:	ea000029 	b	30004b3c <OSMutexCreate+0x13c>
    }
    pevent = OSEventFreeList;
30004a94:	e59f30b8 	ldr	r3, [pc, #184]	@ 30004b54 <OSMutexCreate+0x154>
30004a98:	e5933000 	ldr	r3, [r3]
30004a9c:	e50b300c 	str	r3, [fp, #-12]
    if (pevent == (OS_EVENT *)0) {
30004aa0:	e51b300c 	ldr	r3, [fp, #-12]
30004aa4:	e3530000 	cmp	r3, #0
30004aa8:	1a000006 	bne	30004ac8 <OSMutexCreate+0xc8>
        OS_EXIT_CRITICAL();
30004aac:	e51b0008 	ldr	r0, [fp, #-8]
30004ab0:	ebffee1b 	bl	30000324 <OS_CPU_SR_Restore>
        *err = OS_ERR_PEVENT_NULL; 
30004ab4:	e51b3014 	ldr	r3, [fp, #-20]	@ 0xffffffec
30004ab8:	e3a02004 	mov	r2, #4
30004abc:	e5c32000 	strb	r2, [r3]
        return ((OS_EVENT *)0);
30004ac0:	e3a03000 	mov	r3, #0
30004ac4:	ea00001c 	b	30004b3c <OSMutexCreate+0x13c>
    }
    OSEventFreeList = (OS_EVENT *)OSEventFreeList->OSEventPtr;
30004ac8:	e59f3084 	ldr	r3, [pc, #132]	@ 30004b54 <OSMutexCreate+0x154>
30004acc:	e5933000 	ldr	r3, [r3]
30004ad0:	e5933004 	ldr	r3, [r3, #4]
30004ad4:	e59f2078 	ldr	r2, [pc, #120]	@ 30004b54 <OSMutexCreate+0x154>
30004ad8:	e5823000 	str	r3, [r2]
    OSTCBPrioTbl[prio] = (OS_TCB *)1; 
30004adc:	e55b300d 	ldrb	r3, [fp, #-13]
30004ae0:	e59f2068 	ldr	r2, [pc, #104]	@ 30004b50 <OSMutexCreate+0x150>
30004ae4:	e3a01001 	mov	r1, #1
30004ae8:	e7821103 	str	r1, [r2, r3, lsl #2]
    OS_EXIT_CRITICAL();
30004aec:	e51b0008 	ldr	r0, [fp, #-8]
30004af0:	ebffee0b 	bl	30000324 <OS_CPU_SR_Restore>
    pevent->OSEventType = OS_EVENT_TYPE_MUTEX;
30004af4:	e51b300c 	ldr	r3, [fp, #-12]
30004af8:	e3a02004 	mov	r2, #4
30004afc:	e5c32000 	strb	r2, [r3]
    
    //  Cnt 
    // 8 = PIP ()
    // 8 = 0xFF (Available)
    pevent->OSEventCnt  = (prio << 8) | OS_MUTEX_AVAILABLE; 
30004b00:	e55b300d 	ldrb	r3, [fp, #-13]
30004b04:	e1a03403 	lsl	r3, r3, #8
30004b08:	e38330ff 	orr	r3, r3, #255	@ 0xff
30004b0c:	e1a02003 	mov	r2, r3
30004b10:	e51b300c 	ldr	r3, [fp, #-12]
30004b14:	e5832008 	str	r2, [r3, #8]
    pevent->OSEventPtr  = (void *)0; //  Ptr 
30004b18:	e51b300c 	ldr	r3, [fp, #-12]
30004b1c:	e3a02000 	mov	r2, #0
30004b20:	e5832004 	str	r2, [r3, #4]
    OS_EventWaitListInit(pevent);    // 
30004b24:	e51b000c 	ldr	r0, [fp, #-12]
30004b28:	ebfff6f1 	bl	300026f4 <OS_EventWaitListInit>

    *err = OS_NO_ERR;
30004b2c:	e51b3014 	ldr	r3, [fp, #-20]	@ 0xffffffec
30004b30:	e3a02000 	mov	r2, #0
30004b34:	e5c32000 	strb	r2, [r3]
    return (pevent);
30004b38:	e51b300c 	ldr	r3, [fp, #-12]
}
30004b3c:	e1a00003 	mov	r0, r3
30004b40:	e24bd004 	sub	sp, fp, #4
30004b44:	e8bd4800 	pop	{fp, lr}
30004b48:	e12fff1e 	bx	lr
30004b4c:	3000aa6c 	.word	0x3000aa6c
30004b50:	3000b3a4 	.word	0x3000b3a4
30004b54:	3000b590 	.word	0x3000b590

30004b58 <OSMutexDel>:
* :
* - 
*********************************************************************************************************
*/
OS_EVENT  *OSMutexDel (OS_EVENT *pevent, INT8U opt, INT8U *err)
{
30004b58:	e92d4800 	push	{fp, lr}
30004b5c:	e28db004 	add	fp, sp, #4
30004b60:	e24dd020 	sub	sp, sp, #32
30004b64:	e50b0018 	str	r0, [fp, #-24]	@ 0xffffffe8
30004b68:	e1a03001 	mov	r3, r1
30004b6c:	e50b2020 	str	r2, [fp, #-32]	@ 0xffffffe0
30004b70:	e54b3019 	strb	r3, [fp, #-25]	@ 0xffffffe7
    OS_CPU_SR  cpu_sr;   
    BOOLEAN    tasks_waiting;
    INT8U      pip;


    if (OSIntNesting > 0) {                                /* See if called from ISR ...               */
30004b74:	e59f31ec 	ldr	r3, [pc, #492]	@ 30004d68 <OSMutexDel+0x210>
30004b78:	e5d33000 	ldrb	r3, [r3]
30004b7c:	e3530000 	cmp	r3, #0
30004b80:	0a000004 	beq	30004b98 <OSMutexDel+0x40>
        *err = OS_ERR_DEL_ISR;                             /* ... can't DELETE from an ISR             */
30004b84:	e51b3020 	ldr	r3, [fp, #-32]	@ 0xffffffe0
30004b88:	e3e02073 	mvn	r2, #115	@ 0x73
30004b8c:	e5c32000 	strb	r2, [r3]
        return (pevent);
30004b90:	e51b3018 	ldr	r3, [fp, #-24]	@ 0xffffffe8
30004b94:	ea00006f 	b	30004d58 <OSMutexDel+0x200>
    }
    if (pevent == (OS_EVENT *)0) {                         /* Validate 'pevent'                        */
30004b98:	e51b3018 	ldr	r3, [fp, #-24]	@ 0xffffffe8
30004b9c:	e3530000 	cmp	r3, #0
30004ba0:	1a000004 	bne	30004bb8 <OSMutexDel+0x60>
        *err = OS_ERR_PEVENT_NULL;
30004ba4:	e51b3020 	ldr	r3, [fp, #-32]	@ 0xffffffe0
30004ba8:	e3a02004 	mov	r2, #4
30004bac:	e5c32000 	strb	r2, [r3]
        return ((OS_EVENT *)0);
30004bb0:	e3a03000 	mov	r3, #0
30004bb4:	ea000067 	b	30004d58 <OSMutexDel+0x200>
    }
    if (pevent->OSEventType != OS_EVENT_TYPE_MUTEX) {      /* Validate event block type                */
30004bb8:	e51b3018 	ldr	r3, [fp, #-24]	@ 0xffffffe8
30004bbc:	e5d33000 	ldrb	r3, [r3]
30004bc0:	e3530004 	cmp	r3, #4
30004bc4:	0a000004 	beq	30004bdc <OSMutexDel+0x84>
        *err = OS_ERR_EVENT_TYPE;
30004bc8:	e51b3020 	ldr	r3, [fp, #-32]	@ 0xffffffe0
30004bcc:	e3a02001 	mov	r2, #1
30004bd0:	e5c32000 	strb	r2, [r3]
        return (pevent);
30004bd4:	e51b3018 	ldr	r3, [fp, #-24]	@ 0xffffffe8
30004bd8:	ea00005e 	b	30004d58 <OSMutexDel+0x200>
    }
    OS_ENTER_CRITICAL();
30004bdc:	ebffedcc 	bl	30000314 <OS_CPU_SR_Save>
30004be0:	e50b000c 	str	r0, [fp, #-12]
    if (pevent->OSEventGrp != 0x00) {                      /* See if any tasks waiting on mutex        */
30004be4:	e51b3018 	ldr	r3, [fp, #-24]	@ 0xffffffe8
30004be8:	e5d33001 	ldrb	r3, [r3, #1]
30004bec:	e3530000 	cmp	r3, #0
30004bf0:	0a000002 	beq	30004c00 <OSMutexDel+0xa8>
        tasks_waiting = TRUE;                              /* Yes                                      */
30004bf4:	e3a03001 	mov	r3, #1
30004bf8:	e54b3005 	strb	r3, [fp, #-5]
30004bfc:	ea000001 	b	30004c08 <OSMutexDel+0xb0>
    } else {
        tasks_waiting = FALSE;                             /* No                                       */
30004c00:	e3a03000 	mov	r3, #0
30004c04:	e54b3005 	strb	r3, [fp, #-5]
    }
    switch (opt) {
30004c08:	e55b3019 	ldrb	r3, [fp, #-25]	@ 0xffffffe7
30004c0c:	e3530000 	cmp	r3, #0
30004c10:	0a000002 	beq	30004c20 <OSMutexDel+0xc8>
30004c14:	e3530001 	cmp	r3, #1
30004c18:	0a000027 	beq	30004cbc <OSMutexDel+0x164>
30004c1c:	ea000047 	b	30004d40 <OSMutexDel+0x1e8>
        case OS_DEL_NO_PEND:                               /* Delete mutex only if no task waiting     */
             if (tasks_waiting == FALSE) {
30004c20:	e55b3005 	ldrb	r3, [fp, #-5]
30004c24:	e3530000 	cmp	r3, #0
30004c28:	1a000018 	bne	30004c90 <OSMutexDel+0x138>
                 pip                 = (INT8U)(pevent->OSEventCnt >> 8);
30004c2c:	e51b3018 	ldr	r3, [fp, #-24]	@ 0xffffffe8
30004c30:	e5933008 	ldr	r3, [r3, #8]
30004c34:	e1a03423 	lsr	r3, r3, #8
30004c38:	e54b300d 	strb	r3, [fp, #-13]
                 OSTCBPrioTbl[pip]   = (OS_TCB *)0;        /* Free up the PIP                          */
30004c3c:	e55b300d 	ldrb	r3, [fp, #-13]
30004c40:	e59f2124 	ldr	r2, [pc, #292]	@ 30004d6c <OSMutexDel+0x214>
30004c44:	e3a01000 	mov	r1, #0
30004c48:	e7821103 	str	r1, [r2, r3, lsl #2]
                 pevent->OSEventType = OS_EVENT_TYPE_UNUSED;
30004c4c:	e51b3018 	ldr	r3, [fp, #-24]	@ 0xffffffe8
30004c50:	e3a02000 	mov	r2, #0
30004c54:	e5c32000 	strb	r2, [r3]
                 pevent->OSEventPtr  = OSEventFreeList;    /* Return Event Control Block to free list  */
30004c58:	e59f3110 	ldr	r3, [pc, #272]	@ 30004d70 <OSMutexDel+0x218>
30004c5c:	e5932000 	ldr	r2, [r3]
30004c60:	e51b3018 	ldr	r3, [fp, #-24]	@ 0xffffffe8
30004c64:	e5832004 	str	r2, [r3, #4]
                 OSEventFreeList     = pevent;
30004c68:	e59f2100 	ldr	r2, [pc, #256]	@ 30004d70 <OSMutexDel+0x218>
30004c6c:	e51b3018 	ldr	r3, [fp, #-24]	@ 0xffffffe8
30004c70:	e5823000 	str	r3, [r2]
                 OS_EXIT_CRITICAL();
30004c74:	e51b000c 	ldr	r0, [fp, #-12]
30004c78:	ebffeda9 	bl	30000324 <OS_CPU_SR_Restore>
                 *err = OS_NO_ERR;
30004c7c:	e51b3020 	ldr	r3, [fp, #-32]	@ 0xffffffe0
30004c80:	e3a02000 	mov	r2, #0
30004c84:	e5c32000 	strb	r2, [r3]
                 return ((OS_EVENT *)0);                   /* Mutex has been deleted                   */
30004c88:	e3a03000 	mov	r3, #0
30004c8c:	ea000031 	b	30004d58 <OSMutexDel+0x200>
             } else {
                 OS_EXIT_CRITICAL();
30004c90:	e51b000c 	ldr	r0, [fp, #-12]
30004c94:	ebffeda2 	bl	30000324 <OS_CPU_SR_Restore>
                 *err = OS_ERR_TASK_WAITING;
30004c98:	e51b3020 	ldr	r3, [fp, #-32]	@ 0xffffffe0
30004c9c:	e3a02008 	mov	r2, #8
30004ca0:	e5c32000 	strb	r2, [r3]
                 return (pevent);
30004ca4:	e51b3018 	ldr	r3, [fp, #-24]	@ 0xffffffe8
30004ca8:	ea00002a 	b	30004d58 <OSMutexDel+0x200>
             }

        case OS_DEL_ALWAYS:                                /* Always delete the mutex                  */
             while (pevent->OSEventGrp != 0x00) {          /* Ready ALL tasks waiting for mutex        */
                 OS_EventTaskRdy(pevent, (void *)0, OS_STAT_MUTEX);
30004cac:	e3a02010 	mov	r2, #16
30004cb0:	e3a01000 	mov	r1, #0
30004cb4:	e51b0018 	ldr	r0, [fp, #-24]	@ 0xffffffe8
30004cb8:	ebfff57d 	bl	300022b4 <OS_EventTaskRdy>
             while (pevent->OSEventGrp != 0x00) {          /* Ready ALL tasks waiting for mutex        */
30004cbc:	e51b3018 	ldr	r3, [fp, #-24]	@ 0xffffffe8
30004cc0:	e5d33001 	ldrb	r3, [r3, #1]
30004cc4:	e3530000 	cmp	r3, #0
30004cc8:	1afffff7 	bne	30004cac <OSMutexDel+0x154>
             }
             pip                 = (INT8U)(pevent->OSEventCnt >> 8);
30004ccc:	e51b3018 	ldr	r3, [fp, #-24]	@ 0xffffffe8
30004cd0:	e5933008 	ldr	r3, [r3, #8]
30004cd4:	e1a03423 	lsr	r3, r3, #8
30004cd8:	e54b300d 	strb	r3, [fp, #-13]
             OSTCBPrioTbl[pip]   = (OS_TCB *)0;            /* Free up the PIP                          */
30004cdc:	e55b300d 	ldrb	r3, [fp, #-13]
30004ce0:	e59f2084 	ldr	r2, [pc, #132]	@ 30004d6c <OSMutexDel+0x214>
30004ce4:	e3a01000 	mov	r1, #0
30004ce8:	e7821103 	str	r1, [r2, r3, lsl #2]
             pevent->OSEventType = OS_EVENT_TYPE_UNUSED;
30004cec:	e51b3018 	ldr	r3, [fp, #-24]	@ 0xffffffe8
30004cf0:	e3a02000 	mov	r2, #0
30004cf4:	e5c32000 	strb	r2, [r3]
             pevent->OSEventPtr  = OSEventFreeList;        /* Return Event Control Block to free list  */
30004cf8:	e59f3070 	ldr	r3, [pc, #112]	@ 30004d70 <OSMutexDel+0x218>
30004cfc:	e5932000 	ldr	r2, [r3]
30004d00:	e51b3018 	ldr	r3, [fp, #-24]	@ 0xffffffe8
30004d04:	e5832004 	str	r2, [r3, #4]
             OSEventFreeList     = pevent;                 /* Get next free event control block        */
30004d08:	e59f2060 	ldr	r2, [pc, #96]	@ 30004d70 <OSMutexDel+0x218>
30004d0c:	e51b3018 	ldr	r3, [fp, #-24]	@ 0xffffffe8
30004d10:	e5823000 	str	r3, [r2]
             OS_EXIT_CRITICAL();
30004d14:	e51b000c 	ldr	r0, [fp, #-12]
30004d18:	ebffed81 	bl	30000324 <OS_CPU_SR_Restore>
             if (tasks_waiting == TRUE) {                  /* Reschedule only if task(s) were waiting  */
30004d1c:	e55b3005 	ldrb	r3, [fp, #-5]
30004d20:	e3530001 	cmp	r3, #1
30004d24:	1a000000 	bne	30004d2c <OSMutexDel+0x1d4>
                 OS_Sched();                               /* Find highest priority task ready to run  */
30004d28:	ebfff6c7 	bl	3000284c <OS_Sched>
             }
             *err = OS_NO_ERR;
30004d2c:	e51b3020 	ldr	r3, [fp, #-32]	@ 0xffffffe0
30004d30:	e3a02000 	mov	r2, #0
30004d34:	e5c32000 	strb	r2, [r3]
             return ((OS_EVENT *)0);                       /* Mutex has been deleted                   */
30004d38:	e3a03000 	mov	r3, #0
30004d3c:	ea000005 	b	30004d58 <OSMutexDel+0x200>

        default:
             OS_EXIT_CRITICAL();
30004d40:	e51b000c 	ldr	r0, [fp, #-12]
30004d44:	ebffed76 	bl	30000324 <OS_CPU_SR_Restore>
             *err = OS_ERR_INVALID_OPT;
30004d48:	e51b3020 	ldr	r3, [fp, #-32]	@ 0xffffffe0
30004d4c:	e3a02007 	mov	r2, #7
30004d50:	e5c32000 	strb	r2, [r3]
             return (pevent);
30004d54:	e51b3018 	ldr	r3, [fp, #-24]	@ 0xffffffe8
    }
}
30004d58:	e1a00003 	mov	r0, r3
30004d5c:	e24bd004 	sub	sp, fp, #4
30004d60:	e8bd4800 	pop	{fp, lr}
30004d64:	e12fff1e 	bx	lr
30004d68:	3000aa6c 	.word	0x3000aa6c
30004d6c:	3000b3a4 	.word	0x3000b3a4
30004d70:	3000b590 	.word	0x3000b590

30004d74 <OSMutexPend>:
* :
* -  TCB 
*********************************************************************************************************
*/
void  OSMutexPend (OS_EVENT *pevent, INT16U timeout, INT8U *err)
{
30004d74:	e92d4800 	push	{fp, lr}
30004d78:	e28db004 	add	fp, sp, #4
30004d7c:	e24dd020 	sub	sp, sp, #32
30004d80:	e50b0018 	str	r0, [fp, #-24]	@ 0xffffffe8
30004d84:	e1a03001 	mov	r3, r1
30004d88:	e50b2020 	str	r2, [fp, #-32]	@ 0xffffffe0
30004d8c:	e14b31ba 	strh	r3, [fp, #-26]	@ 0xffffffe6
    INT8U       pip; //Priority Inheritance Priority
    INT8U       mprio;//Mutex owner Priority
    BOOLEAN     rdy;
    OS_TCB      *ptcb;

    if(OSIntNesting > 0){
30004d90:	e59f336c 	ldr	r3, [pc, #876]	@ 30005104 <OSMutexPend+0x390>
30004d94:	e5d33000 	ldrb	r3, [r3]
30004d98:	e3530000 	cmp	r3, #0
30004d9c:	0a000003 	beq	30004db0 <OSMutexPend+0x3c>
        *err = OS_ERR_PEND_ISR;
30004da0:	e51b3020 	ldr	r3, [fp, #-32]	@ 0xffffffe0
30004da4:	e3a02002 	mov	r2, #2
30004da8:	e5c32000 	strb	r2, [r3]
        return;
30004dac:	ea0000d1 	b	300050f8 <OSMutexPend+0x384>
    }
    if(pevent == (OS_EVENT *)0){
30004db0:	e51b3018 	ldr	r3, [fp, #-24]	@ 0xffffffe8
30004db4:	e3530000 	cmp	r3, #0
30004db8:	1a000003 	bne	30004dcc <OSMutexPend+0x58>
        *err = OS_ERR_PEVENT_NULL;
30004dbc:	e51b3020 	ldr	r3, [fp, #-32]	@ 0xffffffe0
30004dc0:	e3a02004 	mov	r2, #4
30004dc4:	e5c32000 	strb	r2, [r3]
        return;
30004dc8:	ea0000ca 	b	300050f8 <OSMutexPend+0x384>
    }
    if(pevent->OSEventType != OS_EVENT_TYPE_MUTEX){
30004dcc:	e51b3018 	ldr	r3, [fp, #-24]	@ 0xffffffe8
30004dd0:	e5d33000 	ldrb	r3, [r3]
30004dd4:	e3530004 	cmp	r3, #4
30004dd8:	0a000003 	beq	30004dec <OSMutexPend+0x78>
        *err = OS_ERR_EVENT_TYPE;
30004ddc:	e51b3020 	ldr	r3, [fp, #-32]	@ 0xffffffe0
30004de0:	e3a02001 	mov	r2, #1
30004de4:	e5c32000 	strb	r2, [r3]
        return;
30004de8:	ea0000c2 	b	300050f8 <OSMutexPend+0x384>
    }

    OS_ENTER_CRITICAL();
30004dec:	ebffed48 	bl	30000314 <OS_CPU_SR_Save>
30004df0:	e50b000c 	str	r0, [fp, #-12]
    // OS_MUTEX_KEEP_LOWER_8  0x00FF88
    if((INT8U)(pevent->OSEventCnt & OS_MUTEX_KEEP_LOWER_8) == OS_MUTEX_AVAILABLE){
30004df4:	e51b3018 	ldr	r3, [fp, #-24]	@ 0xffffffe8
30004df8:	e5933008 	ldr	r3, [r3, #8]
30004dfc:	e20330ff 	and	r3, r3, #255	@ 0xff
30004e00:	e35300ff 	cmp	r3, #255	@ 0xff
30004e04:	1a000016 	bne	30004e64 <OSMutexPend+0xf0>
        //  1
        pevent->OSEventCnt &= OS_MUTEX_KEEP_UPPER_8;  // 8 PIP 8
30004e08:	e51b3018 	ldr	r3, [fp, #-24]	@ 0xffffffe8
30004e0c:	e5933008 	ldr	r3, [r3, #8]
30004e10:	e2032cff 	and	r2, r3, #65280	@ 0xff00
30004e14:	e51b3018 	ldr	r3, [fp, #-24]	@ 0xffffffe8
30004e18:	e5832008 	str	r2, [r3, #8]
        pevent->OSEventCnt |= OSTCBCur->OSTCBPrio;    // A8
30004e1c:	e51b3018 	ldr	r3, [fp, #-24]	@ 0xffffffe8
30004e20:	e5933008 	ldr	r3, [r3, #8]
30004e24:	e59f22dc 	ldr	r2, [pc, #732]	@ 30005108 <OSMutexPend+0x394>
30004e28:	e5922000 	ldr	r2, [r2]
30004e2c:	e5d2201e 	ldrb	r2, [r2, #30]
30004e30:	e1832002 	orr	r2, r3, r2
30004e34:	e51b3018 	ldr	r3, [fp, #-24]	@ 0xffffffe8
30004e38:	e5832008 	str	r2, [r3, #8]
        pevent->OSEventPtr = (void *)OSTCBCur;        // A
30004e3c:	e59f32c4 	ldr	r3, [pc, #708]	@ 30005108 <OSMutexPend+0x394>
30004e40:	e5932000 	ldr	r2, [r3]
30004e44:	e51b3018 	ldr	r3, [fp, #-24]	@ 0xffffffe8
30004e48:	e5832004 	str	r2, [r3, #4]
        OS_EXIT_CRITICAL();
30004e4c:	e51b000c 	ldr	r0, [fp, #-12]
30004e50:	ebffed33 	bl	30000324 <OS_CPU_SR_Restore>
        *err = OS_NO_ERR;
30004e54:	e51b3020 	ldr	r3, [fp, #-32]	@ 0xffffffe0
30004e58:	e3a02000 	mov	r2, #0
30004e5c:	e5c32000 	strb	r2, [r3]
        return;
30004e60:	ea0000a4 	b	300050f8 <OSMutexPend+0x384>
    }
    // 8 (PIP = 5)
    pip = (INT8U)(pevent->OSEventCnt >> 8);
30004e64:	e51b3018 	ldr	r3, [fp, #-24]	@ 0xffffffe8
30004e68:	e5933008 	ldr	r3, [r3, #8]
30004e6c:	e1a03423 	lsr	r3, r3, #8
30004e70:	e54b300d 	strb	r3, [fp, #-13]
    // 8 (mprio = 30C)
    mprio = (INT8U)(pevent->OSEventCnt & OS_MUTEX_KEEP_LOWER_8);
30004e74:	e51b3018 	ldr	r3, [fp, #-24]	@ 0xffffffe8
30004e78:	e5933008 	ldr	r3, [r3, #8]
30004e7c:	e54b300e 	strb	r3, [fp, #-14]
    // C (TCB)
    ptcb = (OS_TCB *)(pevent->OSEventPtr);
30004e80:	e51b3018 	ldr	r3, [fp, #-24]	@ 0xffffffe8
30004e84:	e5933004 	ldr	r3, [r3, #4]
30004e88:	e50b3014 	str	r3, [fp, #-20]	@ 0xffffffec

    // 
    // 1. ptcb->OSTCBPrio != pipC
    // 2. mprio > OSTCBCur->OSTCBPrio3010
    if((ptcb->OSTCBPrio != pip) && (mprio > OSTCBCur->OSTCBPrio)){
30004e8c:	e51b3014 	ldr	r3, [fp, #-20]	@ 0xffffffec
30004e90:	e5d3301e 	ldrb	r3, [r3, #30]
30004e94:	e55b200d 	ldrb	r2, [fp, #-13]
30004e98:	e1520003 	cmp	r2, r3
30004e9c:	0a00006b 	beq	30005050 <OSMutexPend+0x2dc>
30004ea0:	e59f3260 	ldr	r3, [pc, #608]	@ 30005108 <OSMutexPend+0x394>
30004ea4:	e5933000 	ldr	r3, [r3]
30004ea8:	e5d3301e 	ldrb	r3, [r3, #30]
30004eac:	e55b200e 	ldrb	r2, [fp, #-14]
30004eb0:	e1520003 	cmp	r2, r3
30004eb4:	9a000065 	bls	30005050 <OSMutexPend+0x2dc>
        
        //   1C 
        // C Rdy 
        if(((OSRdyTbl[ptcb->OSTCBY]) & (ptcb->OSTCBBitX)) != 0x00){
30004eb8:	e51b3014 	ldr	r3, [fp, #-20]	@ 0xffffffec
30004ebc:	e5d33021 	ldrb	r3, [r3, #33]	@ 0x21
30004ec0:	e1a02003 	mov	r2, r3
30004ec4:	e59f3240 	ldr	r3, [pc, #576]	@ 3000510c <OSMutexPend+0x398>
30004ec8:	e7d32002 	ldrb	r2, [r3, r2]
30004ecc:	e51b3014 	ldr	r3, [fp, #-20]	@ 0xffffffec
30004ed0:	e5d33022 	ldrb	r3, [r3, #34]	@ 0x22
30004ed4:	e0033002 	and	r3, r3, r2
30004ed8:	e20330ff 	and	r3, r3, #255	@ 0xff
30004edc:	e3530000 	cmp	r3, #0
30004ee0:	0a00001f 	beq	30004f64 <OSMutexPend+0x1f0>
            // C
            if(((OSRdyTbl[ptcb->OSTCBY]) & ~(ptcb->OSTCBBitX)) == 0x00){
30004ee4:	e51b3014 	ldr	r3, [fp, #-20]	@ 0xffffffec
30004ee8:	e5d33021 	ldrb	r3, [r3, #33]	@ 0x21
30004eec:	e1a02003 	mov	r2, r3
30004ef0:	e59f3214 	ldr	r3, [pc, #532]	@ 3000510c <OSMutexPend+0x398>
30004ef4:	e7d33002 	ldrb	r3, [r3, r2]
30004ef8:	e1a02003 	mov	r2, r3
30004efc:	e51b3014 	ldr	r3, [fp, #-20]	@ 0xffffffec
30004f00:	e5d33022 	ldrb	r3, [r3, #34]	@ 0x22
30004f04:	e1e03003 	mvn	r3, r3
30004f08:	e0033002 	and	r3, r3, r2
30004f0c:	e3530000 	cmp	r3, #0
30004f10:	1a000010 	bne	30004f58 <OSMutexPend+0x1e4>
                OSRdyGrp &= ~(ptcb->OSTCBBitY);
30004f14:	e51b3014 	ldr	r3, [fp, #-20]	@ 0xffffffec
30004f18:	e5d33023 	ldrb	r3, [r3, #35]	@ 0x23
30004f1c:	e1a03c03 	lsl	r3, r3, #24
30004f20:	e1a03c43 	asr	r3, r3, #24
30004f24:	e1e03003 	mvn	r3, r3
30004f28:	e1a03c03 	lsl	r3, r3, #24
30004f2c:	e1a02c43 	asr	r2, r3, #24
30004f30:	e59f31d8 	ldr	r3, [pc, #472]	@ 30005110 <OSMutexPend+0x39c>
30004f34:	e5d33000 	ldrb	r3, [r3]
30004f38:	e1a03c03 	lsl	r3, r3, #24
30004f3c:	e1a03c43 	asr	r3, r3, #24
30004f40:	e0033002 	and	r3, r3, r2
30004f44:	e1a03c03 	lsl	r3, r3, #24
30004f48:	e1a03c43 	asr	r3, r3, #24
30004f4c:	e20320ff 	and	r2, r3, #255	@ 0xff
30004f50:	e59f31b8 	ldr	r3, [pc, #440]	@ 30005110 <OSMutexPend+0x39c>
30004f54:	e5c32000 	strb	r2, [r3]
            }
            rdy = TRUE; // 
30004f58:	e3a03001 	mov	r3, #1
30004f5c:	e54b3005 	strb	r3, [fp, #-5]
30004f60:	ea000001 	b	30004f6c <OSMutexPend+0x1f8>
        }
        else{
            rdy = FALSE; // 
30004f64:	e3a03000 	mov	r3, #0
30004f68:	e54b3005 	strb	r3, [fp, #-5]
        }

        //   2C 
        ptcb->OSTCBPrio = pip; //  5 (PIP)
30004f6c:	e51b3014 	ldr	r3, [fp, #-20]	@ 0xffffffec
30004f70:	e55b200d 	ldrb	r2, [fp, #-13]
30004f74:	e5c3201e 	strb	r2, [r3, #30]
        //  8x8 
        ptcb->OSTCBY = (ptcb->OSTCBPrio) >> 3;      //  = 5 / 8 = 0
30004f78:	e51b3014 	ldr	r3, [fp, #-20]	@ 0xffffffec
30004f7c:	e5d3301e 	ldrb	r3, [r3, #30]
30004f80:	e1a031a3 	lsr	r3, r3, #3
30004f84:	e20320ff 	and	r2, r3, #255	@ 0xff
30004f88:	e51b3014 	ldr	r3, [fp, #-20]	@ 0xffffffec
30004f8c:	e5c32021 	strb	r2, [r3, #33]	@ 0x21
        ptcb->OSTCBBitY = OSMapTbl[ptcb->OSTCBY];   // 
30004f90:	e51b3014 	ldr	r3, [fp, #-20]	@ 0xffffffec
30004f94:	e5d33021 	ldrb	r3, [r3, #33]	@ 0x21
30004f98:	e1a02003 	mov	r2, r3
30004f9c:	e59f3170 	ldr	r3, [pc, #368]	@ 30005114 <OSMutexPend+0x3a0>
30004fa0:	e7d32002 	ldrb	r2, [r3, r2]
30004fa4:	e51b3014 	ldr	r3, [fp, #-20]	@ 0xffffffec
30004fa8:	e5c32023 	strb	r2, [r3, #35]	@ 0x23
        ptcb->OSTCBX = (ptcb->OSTCBPrio) & 7;       //  = 5 % 8 = 5
30004fac:	e51b3014 	ldr	r3, [fp, #-20]	@ 0xffffffec
30004fb0:	e5d3301e 	ldrb	r3, [r3, #30]
30004fb4:	e2033007 	and	r3, r3, #7
30004fb8:	e20320ff 	and	r2, r3, #255	@ 0xff
30004fbc:	e51b3014 	ldr	r3, [fp, #-20]	@ 0xffffffec
30004fc0:	e5c32020 	strb	r2, [r3, #32]
        ptcb->OSTCBBitX = OSMapTbl[ptcb->OSTCBX];   // 
30004fc4:	e51b3014 	ldr	r3, [fp, #-20]	@ 0xffffffec
30004fc8:	e5d33020 	ldrb	r3, [r3, #32]
30004fcc:	e1a02003 	mov	r2, r3
30004fd0:	e59f313c 	ldr	r3, [pc, #316]	@ 30005114 <OSMutexPend+0x3a0>
30004fd4:	e7d32002 	ldrb	r2, [r3, r2]
30004fd8:	e51b3014 	ldr	r3, [fp, #-20]	@ 0xffffffec
30004fdc:	e5c32022 	strb	r2, [r3, #34]	@ 0x22

        //   3C 
        if(rdy == TRUE){
30004fe0:	e55b3005 	ldrb	r3, [fp, #-5]
30004fe4:	e3530001 	cmp	r3, #1
30004fe8:	1a000014 	bne	30005040 <OSMutexPend+0x2cc>
            // 
            OSRdyGrp |= ptcb->OSTCBBitY;
30004fec:	e51b3014 	ldr	r3, [fp, #-20]	@ 0xffffffec
30004ff0:	e5d32023 	ldrb	r2, [r3, #35]	@ 0x23
30004ff4:	e59f3114 	ldr	r3, [pc, #276]	@ 30005110 <OSMutexPend+0x39c>
30004ff8:	e5d33000 	ldrb	r3, [r3]
30004ffc:	e1823003 	orr	r3, r2, r3
30005000:	e20320ff 	and	r2, r3, #255	@ 0xff
30005004:	e59f3104 	ldr	r3, [pc, #260]	@ 30005110 <OSMutexPend+0x39c>
30005008:	e5c32000 	strb	r2, [r3]
            OSRdyTbl[ptcb->OSTCBY] |= ptcb->OSTCBBitX; 
3000500c:	e51b3014 	ldr	r3, [fp, #-20]	@ 0xffffffec
30005010:	e5d33021 	ldrb	r3, [r3, #33]	@ 0x21
30005014:	e1a02003 	mov	r2, r3
30005018:	e59f30ec 	ldr	r3, [pc, #236]	@ 3000510c <OSMutexPend+0x398>
3000501c:	e7d32002 	ldrb	r2, [r3, r2]
30005020:	e51b3014 	ldr	r3, [fp, #-20]	@ 0xffffffec
30005024:	e5d33022 	ldrb	r3, [r3, #34]	@ 0x22
30005028:	e51b1014 	ldr	r1, [fp, #-20]	@ 0xffffffec
3000502c:	e5d11021 	ldrb	r1, [r1, #33]	@ 0x21
30005030:	e1823003 	orr	r3, r2, r3
30005034:	e20320ff 	and	r2, r3, #255	@ 0xff
30005038:	e59f30cc 	ldr	r3, [pc, #204]	@ 3000510c <OSMutexPend+0x398>
3000503c:	e7c32001 	strb	r2, [r3, r1]
        }
        // PIP  5  ptcb
        OSTCBPrioTbl[pip] = (OS_TCB *)ptcb;
30005040:	e55b300d 	ldrb	r3, [fp, #-13]
30005044:	e59f10cc 	ldr	r1, [pc, #204]	@ 30005118 <OSMutexPend+0x3a4>
30005048:	e51b2014 	ldr	r2, [fp, #-20]	@ 0xffffffec
3000504c:	e7812103 	str	r2, [r1, r3, lsl #2]
    }
    OSTCBCur->OSTCBStat |= OS_STAT_MUTEX; // A
30005050:	e59f30b0 	ldr	r3, [pc, #176]	@ 30005108 <OSMutexPend+0x394>
30005054:	e5933000 	ldr	r3, [r3]
30005058:	e5d3201f 	ldrb	r2, [r3, #31]
3000505c:	e59f30a4 	ldr	r3, [pc, #164]	@ 30005108 <OSMutexPend+0x394>
30005060:	e5933000 	ldr	r3, [r3]
30005064:	e3822010 	orr	r2, r2, #16
30005068:	e20220ff 	and	r2, r2, #255	@ 0xff
3000506c:	e5c3201f 	strb	r2, [r3, #31]
    OSTCBCur->OSTCBDly = timeout;         // 
30005070:	e59f3090 	ldr	r3, [pc, #144]	@ 30005108 <OSMutexPend+0x394>
30005074:	e5933000 	ldr	r3, [r3]
30005078:	e15b21ba 	ldrh	r2, [fp, #-26]	@ 0xffffffe6
3000507c:	e1c321bc 	strh	r2, [r3, #28]
    OS_EventTaskWait(pevent);             // A
30005080:	e51b0018 	ldr	r0, [fp, #-24]	@ 0xffffffe8
30005084:	ebfff4fe 	bl	30002484 <OS_EventTaskWait>
    OS_EXIT_CRITICAL();
30005088:	e51b000c 	ldr	r0, [fp, #-12]
3000508c:	ebffeca4 	bl	30000324 <OS_CPU_SR_Restore>
    OS_Sched(); // A 10B 20C5
30005090:	ebfff5ed 	bl	3000284c <OS_Sched>
    OS_ENTER_CRITICAL();
30005094:	ebffec9e 	bl	30000314 <OS_CPU_SR_Save>
30005098:	e50b000c 	str	r0, [fp, #-12]
    // AA
    if(OSTCBCur->OSTCBStat & OS_STAT_MUTEX){
3000509c:	e59f3064 	ldr	r3, [pc, #100]	@ 30005108 <OSMutexPend+0x394>
300050a0:	e5933000 	ldr	r3, [r3]
300050a4:	e5d3301f 	ldrb	r3, [r3, #31]
300050a8:	e2033010 	and	r3, r3, #16
300050ac:	e3530000 	cmp	r3, #0
300050b0:	0a000007 	beq	300050d4 <OSMutexPend+0x360>
        OS_EventTO(pevent); // 
300050b4:	e51b0018 	ldr	r0, [fp, #-24]	@ 0xffffffe8
300050b8:	ebfff54a 	bl	300025e8 <OS_EventTO>
        OS_EXIT_CRITICAL();
300050bc:	e51b000c 	ldr	r0, [fp, #-12]
300050c0:	ebffec97 	bl	30000324 <OS_CPU_SR_Restore>
        *err = OS_TIMEOUT;  // A
300050c4:	e51b3020 	ldr	r3, [fp, #-32]	@ 0xffffffe0
300050c8:	e3a0200a 	mov	r2, #10
300050cc:	e5c32000 	strb	r2, [r3]
        return;
300050d0:	ea000008 	b	300050f8 <OSMutexPend+0x384>
    }
    
    // A
    OSTCBCur->OSTCBEventPtr = (OS_EVENT *)0;
300050d4:	e59f302c 	ldr	r3, [pc, #44]	@ 30005108 <OSMutexPend+0x394>
300050d8:	e5933000 	ldr	r3, [r3]
300050dc:	e3a02000 	mov	r2, #0
300050e0:	e583200c 	str	r2, [r3, #12]
    OS_EXIT_CRITICAL();
300050e4:	e51b000c 	ldr	r0, [fp, #-12]
300050e8:	ebffec8d 	bl	30000324 <OS_CPU_SR_Restore>
    *err = OS_NO_ERR; // 
300050ec:	e51b3020 	ldr	r3, [fp, #-32]	@ 0xffffffe0
300050f0:	e3a02000 	mov	r2, #0
300050f4:	e5c32000 	strb	r2, [r3]
}
300050f8:	e24bd004 	sub	sp, fp, #4
300050fc:	e8bd4800 	pop	{fp, lr}
30005100:	e12fff1e 	bx	lr
30005104:	3000aa6c 	.word	0x3000aa6c
30005108:	3000b394 	.word	0x3000b394
3000510c:	3000aa74 	.word	0x3000aa74
30005110:	3000aa71 	.word	0x3000aa71
30005114:	30007e94 	.word	0x30007e94
30005118:	3000b3a4 	.word	0x3000b3a4

3000511c <OSMutexPost>:
* :
* - 
*********************************************************************************************************
*/
INT8U  OSMutexPost (OS_EVENT *pevent)//err
{
3000511c:	e92d4800 	push	{fp, lr}
30005120:	e28db004 	add	fp, sp, #4
30005124:	e24dd010 	sub	sp, sp, #16
30005128:	e50b0010 	str	r0, [fp, #-16]
    OS_CPU_SR cpu_sr;
    INT8U     pip;
    INT8U     prio;

    if(OSIntNesting > 0){
3000512c:	e59f333c 	ldr	r3, [pc, #828]	@ 30005470 <OSMutexPost+0x354>
30005130:	e5d33000 	ldrb	r3, [r3]
30005134:	e3530000 	cmp	r3, #0
30005138:	0a000001 	beq	30005144 <OSMutexPost+0x28>
        return (OS_ERR_POST_ISR);
3000513c:	e3a03005 	mov	r3, #5
30005140:	ea0000c6 	b	30005460 <OSMutexPost+0x344>
    }
    if(pevent == (OS_EVENT *)0){
30005144:	e51b3010 	ldr	r3, [fp, #-16]
30005148:	e3530000 	cmp	r3, #0
3000514c:	1a000001 	bne	30005158 <OSMutexPost+0x3c>
        return (OS_ERR_PEVENT_NULL);
30005150:	e3a03004 	mov	r3, #4
30005154:	ea0000c1 	b	30005460 <OSMutexPost+0x344>
    }
    if(pevent->OSEventType != OS_EVENT_TYPE_MUTEX){
30005158:	e51b3010 	ldr	r3, [fp, #-16]
3000515c:	e5d33000 	ldrb	r3, [r3]
30005160:	e3530004 	cmp	r3, #4
30005164:	0a000001 	beq	30005170 <OSMutexPost+0x54>
        return (OS_ERR_EVENT_TYPE);
30005168:	e3a03001 	mov	r3, #1
3000516c:	ea0000bb 	b	30005460 <OSMutexPost+0x344>
    }

    OS_ENTER_CRITICAL();
30005170:	ebffec67 	bl	30000314 <OS_CPU_SR_Save>
30005174:	e50b0008 	str	r0, [fp, #-8]
    pip = (INT8U)(pevent->OSEventCnt >> 8);
30005178:	e51b3010 	ldr	r3, [fp, #-16]
3000517c:	e5933008 	ldr	r3, [r3, #8]
30005180:	e1a03423 	lsr	r3, r3, #8
30005184:	e54b3009 	strb	r3, [fp, #-9]
    prio = (INT8U)(pevent->OSEventCnt & OS_MUTEX_KEEP_LOWER_8);
30005188:	e51b3010 	ldr	r3, [fp, #-16]
3000518c:	e5933008 	ldr	r3, [r3, #8]
30005190:	e54b300a 	strb	r3, [fp, #-10]
    if(OSTCBCur->OSTCBPrio != pip && OSTCBCur->OSTCBPrio != prio){
30005194:	e59f32d8 	ldr	r3, [pc, #728]	@ 30005474 <OSMutexPost+0x358>
30005198:	e5933000 	ldr	r3, [r3]
3000519c:	e5d3301e 	ldrb	r3, [r3, #30]
300051a0:	e55b2009 	ldrb	r2, [fp, #-9]
300051a4:	e1520003 	cmp	r2, r3
300051a8:	0a000009 	beq	300051d4 <OSMutexPost+0xb8>
300051ac:	e59f32c0 	ldr	r3, [pc, #704]	@ 30005474 <OSMutexPost+0x358>
300051b0:	e5933000 	ldr	r3, [r3]
300051b4:	e5d3301e 	ldrb	r3, [r3, #30]
300051b8:	e55b200a 	ldrb	r2, [fp, #-10]
300051bc:	e1520003 	cmp	r2, r3
300051c0:	0a000003 	beq	300051d4 <OSMutexPost+0xb8>
        OS_EXIT_CRITICAL();
300051c4:	e51b0008 	ldr	r0, [fp, #-8]
300051c8:	ebffec55 	bl	30000324 <OS_CPU_SR_Restore>
        return (OS_ERR_NOT_MUTEX_OWNER);
300051cc:	e3a03078 	mov	r3, #120	@ 0x78
300051d0:	ea0000a2 	b	30005460 <OSMutexPost+0x344>
    }
    if(OSTCBCur->OSTCBPrio == pip){
300051d4:	e59f3298 	ldr	r3, [pc, #664]	@ 30005474 <OSMutexPost+0x358>
300051d8:	e5933000 	ldr	r3, [r3]
300051dc:	e5d3301e 	ldrb	r3, [r3, #30]
300051e0:	e55b2009 	ldrb	r2, [fp, #-9]
300051e4:	e1520003 	cmp	r2, r3
300051e8:	1a00006e 	bne	300053a8 <OSMutexPost+0x28c>
        if((OSRdyTbl[OSTCBCur->OSTCBY] &= ~OSTCBCur->OSTCBBitX) == 0){
300051ec:	e59f3280 	ldr	r3, [pc, #640]	@ 30005474 <OSMutexPost+0x358>
300051f0:	e5933000 	ldr	r3, [r3]
300051f4:	e5d33021 	ldrb	r3, [r3, #33]	@ 0x21
300051f8:	e1a02003 	mov	r2, r3
300051fc:	e59f3274 	ldr	r3, [pc, #628]	@ 30005478 <OSMutexPost+0x35c>
30005200:	e7d33002 	ldrb	r3, [r3, r2]
30005204:	e1a03c03 	lsl	r3, r3, #24
30005208:	e1a02c43 	asr	r2, r3, #24
3000520c:	e59f3260 	ldr	r3, [pc, #608]	@ 30005474 <OSMutexPost+0x358>
30005210:	e5933000 	ldr	r3, [r3]
30005214:	e5d33022 	ldrb	r3, [r3, #34]	@ 0x22
30005218:	e1a03c03 	lsl	r3, r3, #24
3000521c:	e1a03c43 	asr	r3, r3, #24
30005220:	e1e03003 	mvn	r3, r3
30005224:	e1a03c03 	lsl	r3, r3, #24
30005228:	e1a03c43 	asr	r3, r3, #24
3000522c:	e0033002 	and	r3, r3, r2
30005230:	e1a03c03 	lsl	r3, r3, #24
30005234:	e1a02c43 	asr	r2, r3, #24
30005238:	e59f3234 	ldr	r3, [pc, #564]	@ 30005474 <OSMutexPost+0x358>
3000523c:	e5933000 	ldr	r3, [r3]
30005240:	e5d33021 	ldrb	r3, [r3, #33]	@ 0x21
30005244:	e20210ff 	and	r1, r2, #255	@ 0xff
30005248:	e59f2228 	ldr	r2, [pc, #552]	@ 30005478 <OSMutexPost+0x35c>
3000524c:	e7c21003 	strb	r1, [r2, r3]
30005250:	e59f2220 	ldr	r2, [pc, #544]	@ 30005478 <OSMutexPost+0x35c>
30005254:	e7d23003 	ldrb	r3, [r2, r3]
30005258:	e3530000 	cmp	r3, #0
3000525c:	1a000011 	bne	300052a8 <OSMutexPost+0x18c>
            OSRdyGrp &= ~OSTCBCur->OSTCBBitY;
30005260:	e59f320c 	ldr	r3, [pc, #524]	@ 30005474 <OSMutexPost+0x358>
30005264:	e5933000 	ldr	r3, [r3]
30005268:	e5d33023 	ldrb	r3, [r3, #35]	@ 0x23
3000526c:	e1a03c03 	lsl	r3, r3, #24
30005270:	e1a03c43 	asr	r3, r3, #24
30005274:	e1e03003 	mvn	r3, r3
30005278:	e1a03c03 	lsl	r3, r3, #24
3000527c:	e1a02c43 	asr	r2, r3, #24
30005280:	e59f31f4 	ldr	r3, [pc, #500]	@ 3000547c <OSMutexPost+0x360>
30005284:	e5d33000 	ldrb	r3, [r3]
30005288:	e1a03c03 	lsl	r3, r3, #24
3000528c:	e1a03c43 	asr	r3, r3, #24
30005290:	e0033002 	and	r3, r3, r2
30005294:	e1a03c03 	lsl	r3, r3, #24
30005298:	e1a03c43 	asr	r3, r3, #24
3000529c:	e20320ff 	and	r2, r3, #255	@ 0xff
300052a0:	e59f31d4 	ldr	r3, [pc, #468]	@ 3000547c <OSMutexPost+0x360>
300052a4:	e5c32000 	strb	r2, [r3]
        }
        OSTCBCur->OSTCBPrio = prio;
300052a8:	e59f31c4 	ldr	r3, [pc, #452]	@ 30005474 <OSMutexPost+0x358>
300052ac:	e5933000 	ldr	r3, [r3]
300052b0:	e55b200a 	ldrb	r2, [fp, #-10]
300052b4:	e5c3201e 	strb	r2, [r3, #30]
        OSTCBCur->OSTCBY = prio >> 3;
300052b8:	e59f31b4 	ldr	r3, [pc, #436]	@ 30005474 <OSMutexPost+0x358>
300052bc:	e5933000 	ldr	r3, [r3]
300052c0:	e55b200a 	ldrb	r2, [fp, #-10]
300052c4:	e1a021a2 	lsr	r2, r2, #3
300052c8:	e20220ff 	and	r2, r2, #255	@ 0xff
300052cc:	e5c32021 	strb	r2, [r3, #33]	@ 0x21
        OSTCBCur->OSTCBBitY = OSMapTbl[OSTCBCur->OSTCBY];
300052d0:	e59f319c 	ldr	r3, [pc, #412]	@ 30005474 <OSMutexPost+0x358>
300052d4:	e5933000 	ldr	r3, [r3]
300052d8:	e5d33021 	ldrb	r3, [r3, #33]	@ 0x21
300052dc:	e1a01003 	mov	r1, r3
300052e0:	e59f318c 	ldr	r3, [pc, #396]	@ 30005474 <OSMutexPost+0x358>
300052e4:	e5933000 	ldr	r3, [r3]
300052e8:	e59f2190 	ldr	r2, [pc, #400]	@ 30005480 <OSMutexPost+0x364>
300052ec:	e7d22001 	ldrb	r2, [r2, r1]
300052f0:	e5c32023 	strb	r2, [r3, #35]	@ 0x23
        OSTCBCur->OSTCBX = prio & 0x07;
300052f4:	e59f3178 	ldr	r3, [pc, #376]	@ 30005474 <OSMutexPost+0x358>
300052f8:	e5933000 	ldr	r3, [r3]
300052fc:	e55b200a 	ldrb	r2, [fp, #-10]
30005300:	e2022007 	and	r2, r2, #7
30005304:	e20220ff 	and	r2, r2, #255	@ 0xff
30005308:	e5c32020 	strb	r2, [r3, #32]
        OSTCBCur->OSTCBBitX = OSMapTbl[OSTCBCur->OSTCBX];
3000530c:	e59f3160 	ldr	r3, [pc, #352]	@ 30005474 <OSMutexPost+0x358>
30005310:	e5933000 	ldr	r3, [r3]
30005314:	e5d33020 	ldrb	r3, [r3, #32]
30005318:	e1a01003 	mov	r1, r3
3000531c:	e59f3150 	ldr	r3, [pc, #336]	@ 30005474 <OSMutexPost+0x358>
30005320:	e5933000 	ldr	r3, [r3]
30005324:	e59f2154 	ldr	r2, [pc, #340]	@ 30005480 <OSMutexPost+0x364>
30005328:	e7d22001 	ldrb	r2, [r2, r1]
3000532c:	e5c32022 	strb	r2, [r3, #34]	@ 0x22
        OSRdyGrp |= OSTCBCur->OSTCBBitY;
30005330:	e59f313c 	ldr	r3, [pc, #316]	@ 30005474 <OSMutexPost+0x358>
30005334:	e5933000 	ldr	r3, [r3]
30005338:	e5d32023 	ldrb	r2, [r3, #35]	@ 0x23
3000533c:	e59f3138 	ldr	r3, [pc, #312]	@ 3000547c <OSMutexPost+0x360>
30005340:	e5d33000 	ldrb	r3, [r3]
30005344:	e1823003 	orr	r3, r2, r3
30005348:	e20320ff 	and	r2, r3, #255	@ 0xff
3000534c:	e59f3128 	ldr	r3, [pc, #296]	@ 3000547c <OSMutexPost+0x360>
30005350:	e5c32000 	strb	r2, [r3]
        OSRdyTbl[OSTCBCur->OSTCBY] |= OSTCBCur->OSTCBBitX;
30005354:	e59f3118 	ldr	r3, [pc, #280]	@ 30005474 <OSMutexPost+0x358>
30005358:	e5933000 	ldr	r3, [r3]
3000535c:	e5d33021 	ldrb	r3, [r3, #33]	@ 0x21
30005360:	e1a02003 	mov	r2, r3
30005364:	e59f310c 	ldr	r3, [pc, #268]	@ 30005478 <OSMutexPost+0x35c>
30005368:	e7d32002 	ldrb	r2, [r3, r2]
3000536c:	e59f3100 	ldr	r3, [pc, #256]	@ 30005474 <OSMutexPost+0x358>
30005370:	e5933000 	ldr	r3, [r3]
30005374:	e5d33022 	ldrb	r3, [r3, #34]	@ 0x22
30005378:	e59f10f4 	ldr	r1, [pc, #244]	@ 30005474 <OSMutexPost+0x358>
3000537c:	e5911000 	ldr	r1, [r1]
30005380:	e5d11021 	ldrb	r1, [r1, #33]	@ 0x21
30005384:	e1823003 	orr	r3, r2, r3
30005388:	e20320ff 	and	r2, r3, #255	@ 0xff
3000538c:	e59f30e4 	ldr	r3, [pc, #228]	@ 30005478 <OSMutexPost+0x35c>
30005390:	e7c32001 	strb	r2, [r3, r1]
        OSTCBPrioTbl[prio] = (OS_TCB *)OSTCBCur;
30005394:	e55b300a 	ldrb	r3, [fp, #-10]
30005398:	e59f20d4 	ldr	r2, [pc, #212]	@ 30005474 <OSMutexPost+0x358>
3000539c:	e5922000 	ldr	r2, [r2]
300053a0:	e59f10dc 	ldr	r1, [pc, #220]	@ 30005484 <OSMutexPost+0x368>
300053a4:	e7812103 	str	r2, [r1, r3, lsl #2]
    }
    OSTCBPrioTbl[pip] = (OS_TCB *)1;
300053a8:	e55b3009 	ldrb	r3, [fp, #-9]
300053ac:	e59f20d0 	ldr	r2, [pc, #208]	@ 30005484 <OSMutexPost+0x368>
300053b0:	e3a01001 	mov	r1, #1
300053b4:	e7821103 	str	r1, [r2, r3, lsl #2]
    if(pevent->OSEventGrp != 0x00){
300053b8:	e51b3010 	ldr	r3, [fp, #-16]
300053bc:	e5d33001 	ldrb	r3, [r3, #1]
300053c0:	e3530000 	cmp	r3, #0
300053c4:	0a00001a 	beq	30005434 <OSMutexPost+0x318>
        prio = OS_EventTaskRdy(pevent, (void *)0, OS_STAT_MUTEX);//
300053c8:	e3a02010 	mov	r2, #16
300053cc:	e3a01000 	mov	r1, #0
300053d0:	e51b0010 	ldr	r0, [fp, #-16]
300053d4:	ebfff3b6 	bl	300022b4 <OS_EventTaskRdy>
300053d8:	e1a03000 	mov	r3, r0
300053dc:	e54b300a 	strb	r3, [fp, #-10]
        pevent->OSEventCnt &= OS_MUTEX_KEEP_UPPER_8;
300053e0:	e51b3010 	ldr	r3, [fp, #-16]
300053e4:	e5933008 	ldr	r3, [r3, #8]
300053e8:	e2032cff 	and	r2, r3, #65280	@ 0xff00
300053ec:	e51b3010 	ldr	r3, [fp, #-16]
300053f0:	e5832008 	str	r2, [r3, #8]
        pevent->OSEventCnt |= prio;
300053f4:	e51b3010 	ldr	r3, [fp, #-16]
300053f8:	e5932008 	ldr	r2, [r3, #8]
300053fc:	e55b300a 	ldrb	r3, [fp, #-10]
30005400:	e1822003 	orr	r2, r2, r3
30005404:	e51b3010 	ldr	r3, [fp, #-16]
30005408:	e5832008 	str	r2, [r3, #8]
        pevent->OSEventPtr = OSTCBPrioTbl[prio];
3000540c:	e55b300a 	ldrb	r3, [fp, #-10]
30005410:	e59f206c 	ldr	r2, [pc, #108]	@ 30005484 <OSMutexPost+0x368>
30005414:	e7922103 	ldr	r2, [r2, r3, lsl #2]
30005418:	e51b3010 	ldr	r3, [fp, #-16]
3000541c:	e5832004 	str	r2, [r3, #4]
        OS_EXIT_CRITICAL();
30005420:	e51b0008 	ldr	r0, [fp, #-8]
30005424:	ebffebbe 	bl	30000324 <OS_CPU_SR_Restore>
        OS_Sched();
30005428:	ebfff507 	bl	3000284c <OS_Sched>
        return (OS_NO_ERR);
3000542c:	e3a03000 	mov	r3, #0
30005430:	ea00000a 	b	30005460 <OSMutexPost+0x344>
    }
    pevent->OSEventCnt |= OS_MUTEX_AVAILABLE;
30005434:	e51b3010 	ldr	r3, [fp, #-16]
30005438:	e5933008 	ldr	r3, [r3, #8]
3000543c:	e38320ff 	orr	r2, r3, #255	@ 0xff
30005440:	e51b3010 	ldr	r3, [fp, #-16]
30005444:	e5832008 	str	r2, [r3, #8]
    pevent->OSEventPtr = (void *)0;
30005448:	e51b3010 	ldr	r3, [fp, #-16]
3000544c:	e3a02000 	mov	r2, #0
30005450:	e5832004 	str	r2, [r3, #4]
    OS_EXIT_CRITICAL();
30005454:	e51b0008 	ldr	r0, [fp, #-8]
30005458:	ebffebb1 	bl	30000324 <OS_CPU_SR_Restore>
    return (OS_NO_ERR);
3000545c:	e3a03000 	mov	r3, #0
}
30005460:	e1a00003 	mov	r0, r3
30005464:	e24bd004 	sub	sp, fp, #4
30005468:	e8bd4800 	pop	{fp, lr}
3000546c:	e12fff1e 	bx	lr
30005470:	3000aa6c 	.word	0x3000aa6c
30005474:	3000b394 	.word	0x3000b394
30005478:	3000aa74 	.word	0x3000aa74
3000547c:	3000aa71 	.word	0x3000aa71
30005480:	30007e94 	.word	0x30007e94
30005484:	3000b3a4 	.word	0x3000b3a4

30005488 <OSMutexQuery>:
* :
* - 
*********************************************************************************************************
*/
INT8U  OSMutexQuery (OS_EVENT *pevent, OS_MUTEX_DATA *pdata)
{
30005488:	e92d4800 	push	{fp, lr}
3000548c:	e28db004 	add	fp, sp, #4
30005490:	e24dd010 	sub	sp, sp, #16
30005494:	e50b0010 	str	r0, [fp, #-16]
30005498:	e50b1014 	str	r1, [fp, #-20]	@ 0xffffffec
    OS_CPU_SR  cpu_sr;

    if (OSIntNesting > 0) {                                /* See if called from ISR ...               */
3000549c:	e59f30e0 	ldr	r3, [pc, #224]	@ 30005584 <OSMutexQuery+0xfc>
300054a0:	e5d33000 	ldrb	r3, [r3]
300054a4:	e3530000 	cmp	r3, #0
300054a8:	0a000001 	beq	300054b4 <OSMutexQuery+0x2c>
        return (OS_ERR_QUERY_ISR);                         /* ... can't QUERY mutex from an ISR        */
300054ac:	e3a03006 	mov	r3, #6
300054b0:	ea00002f 	b	30005574 <OSMutexQuery+0xec>
    }
    if (pevent == (OS_EVENT *)0) {                         /* Validate 'pevent'                        */
300054b4:	e51b3010 	ldr	r3, [fp, #-16]
300054b8:	e3530000 	cmp	r3, #0
300054bc:	1a000001 	bne	300054c8 <OSMutexQuery+0x40>
        return (OS_ERR_PEVENT_NULL);
300054c0:	e3a03004 	mov	r3, #4
300054c4:	ea00002a 	b	30005574 <OSMutexQuery+0xec>
    }
    if (pevent->OSEventType != OS_EVENT_TYPE_MUTEX) {      /* Validate event block type                */
300054c8:	e51b3010 	ldr	r3, [fp, #-16]
300054cc:	e5d33000 	ldrb	r3, [r3]
300054d0:	e3530004 	cmp	r3, #4
300054d4:	0a000001 	beq	300054e0 <OSMutexQuery+0x58>
        return (OS_ERR_EVENT_TYPE);
300054d8:	e3a03001 	mov	r3, #1
300054dc:	ea000024 	b	30005574 <OSMutexQuery+0xec>
    }
    OS_ENTER_CRITICAL();
300054e0:	ebffeb8b 	bl	30000314 <OS_CPU_SR_Save>
300054e4:	e50b0008 	str	r0, [fp, #-8]
    pdata->OSMutexPIP  = (INT8U)(pevent->OSEventCnt >> 8);
300054e8:	e51b3010 	ldr	r3, [fp, #-16]
300054ec:	e5933008 	ldr	r3, [r3, #8]
300054f0:	e1a03423 	lsr	r3, r3, #8
300054f4:	e20320ff 	and	r2, r3, #255	@ 0xff
300054f8:	e51b3014 	ldr	r3, [fp, #-20]	@ 0xffffffec
300054fc:	e5c3200b 	strb	r2, [r3, #11]
    pdata->OSOwnerPrio = (INT8U)(pevent->OSEventCnt & OS_MUTEX_KEEP_LOWER_8);
30005500:	e51b3010 	ldr	r3, [fp, #-16]
30005504:	e5933008 	ldr	r3, [r3, #8]
30005508:	e20320ff 	and	r2, r3, #255	@ 0xff
3000550c:	e51b3014 	ldr	r3, [fp, #-20]	@ 0xffffffec
30005510:	e5c3200a 	strb	r2, [r3, #10]
    if (pdata->OSOwnerPrio == 0xFF) {
30005514:	e51b3014 	ldr	r3, [fp, #-20]	@ 0xffffffec
30005518:	e5d3300a 	ldrb	r3, [r3, #10]
3000551c:	e35300ff 	cmp	r3, #255	@ 0xff
30005520:	1a000003 	bne	30005534 <OSMutexQuery+0xac>
        pdata->OSValue = 1;
30005524:	e51b3014 	ldr	r3, [fp, #-20]	@ 0xffffffec
30005528:	e3a02001 	mov	r2, #1
3000552c:	e5c32009 	strb	r2, [r3, #9]
30005530:	ea000002 	b	30005540 <OSMutexQuery+0xb8>
    } else {
        pdata->OSValue = 0;
30005534:	e51b3014 	ldr	r3, [fp, #-20]	@ 0xffffffec
30005538:	e3a02000 	mov	r2, #0
3000553c:	e5c32009 	strb	r2, [r3, #9]
    }
    pdata->OSEventGrp  = pevent->OSEventGrp;               /* Copy wait list                           */
30005540:	e51b3010 	ldr	r3, [fp, #-16]
30005544:	e5d32001 	ldrb	r2, [r3, #1]
30005548:	e51b3014 	ldr	r3, [fp, #-20]	@ 0xffffffec
3000554c:	e5c32008 	strb	r2, [r3, #8]
    memcpy(&pdata->OSEventTbl[0], &pevent->OSEventTbl[0], sizeof(pdata->OSEventTbl));
30005550:	e51b0014 	ldr	r0, [fp, #-20]	@ 0xffffffec
30005554:	e51b3010 	ldr	r3, [fp, #-16]
30005558:	e283300c 	add	r3, r3, #12
3000555c:	e3a02008 	mov	r2, #8
30005560:	e1a01003 	mov	r1, r3
30005564:	eb00090c 	bl	3000799c <memcpy>
    OS_EXIT_CRITICAL();
30005568:	e51b0008 	ldr	r0, [fp, #-8]
3000556c:	ebffeb6c 	bl	30000324 <OS_CPU_SR_Restore>
    return (OS_NO_ERR);
30005570:	e3a03000 	mov	r3, #0
}
30005574:	e1a00003 	mov	r0, r3
30005578:	e24bd004 	sub	sp, fp, #4
3000557c:	e8bd4800 	pop	{fp, lr}
30005580:	e12fff1e 	bx	lr
30005584:	3000aa6c 	.word	0x3000aa6c

30005588 <OSQAccept>:
*
* :
* -  Mini2440 `void **`  4 
*********************************************************************************************************
*/
void  *OSQAccept (OS_EVENT *pevent){
30005588:	e92d4800 	push	{fp, lr}
3000558c:	e28db004 	add	fp, sp, #4
30005590:	e24dd018 	sub	sp, sp, #24
30005594:	e50b0018 	str	r0, [fp, #-24]	@ 0xffffffe8
    OS_CPU_SR  cpu_sr;
    void      *msg;
    OS_Q      *pq;

    if (pevent == (OS_EVENT *)0) {               /* Validate 'pevent'                                  */
30005598:	e51b3018 	ldr	r3, [fp, #-24]	@ 0xffffffe8
3000559c:	e3530000 	cmp	r3, #0
300055a0:	1a000001 	bne	300055ac <OSQAccept+0x24>
        return ((void *)0);
300055a4:	e3a03000 	mov	r3, #0
300055a8:	ea00002c 	b	30005660 <OSQAccept+0xd8>
    }
    if (pevent->OSEventType != OS_EVENT_TYPE_Q) {/* Validate event block type                          */
300055ac:	e51b3018 	ldr	r3, [fp, #-24]	@ 0xffffffe8
300055b0:	e5d33000 	ldrb	r3, [r3]
300055b4:	e3530002 	cmp	r3, #2
300055b8:	0a000001 	beq	300055c4 <OSQAccept+0x3c>
        return ((void *)0);
300055bc:	e3a03000 	mov	r3, #0
300055c0:	ea000026 	b	30005660 <OSQAccept+0xd8>
    }
    OS_ENTER_CRITICAL();
300055c4:	ebffeb52 	bl	30000314 <OS_CPU_SR_Save>
300055c8:	e50b000c 	str	r0, [fp, #-12]
    pq = (OS_Q *)pevent->OSEventPtr;             /* Point at queue control block                       */
300055cc:	e51b3018 	ldr	r3, [fp, #-24]	@ 0xffffffe8
300055d0:	e5933004 	ldr	r3, [r3, #4]
300055d4:	e50b3010 	str	r3, [fp, #-16]
    if (pq->OSQEntries > 0) {                    /* See if any messages in the queue                   */
300055d8:	e51b3010 	ldr	r3, [fp, #-16]
300055dc:	e1d331b6 	ldrh	r3, [r3, #22]
300055e0:	e3530000 	cmp	r3, #0
300055e4:	0a000018 	beq	3000564c <OSQAccept+0xc4>
        msg = *pq->OSQOut++;                     /* Yes, extract oldest message from the queue         */
300055e8:	e51b3010 	ldr	r3, [fp, #-16]
300055ec:	e5933010 	ldr	r3, [r3, #16]
300055f0:	e2831004 	add	r1, r3, #4
300055f4:	e51b2010 	ldr	r2, [fp, #-16]
300055f8:	e5821010 	str	r1, [r2, #16]
300055fc:	e5933000 	ldr	r3, [r3]
30005600:	e50b3008 	str	r3, [fp, #-8]
        pq->OSQEntries--;                        /* Update the number of entries in the queue          */
30005604:	e51b3010 	ldr	r3, [fp, #-16]
30005608:	e1d331b6 	ldrh	r3, [r3, #22]
3000560c:	e2433001 	sub	r3, r3, #1
30005610:	e1a03803 	lsl	r3, r3, #16
30005614:	e1a02823 	lsr	r2, r3, #16
30005618:	e51b3010 	ldr	r3, [fp, #-16]
3000561c:	e1c321b6 	strh	r2, [r3, #22]
        if (pq->OSQOut == pq->OSQEnd) {          /* Wrap OUT pointer if we are at the end of the queue */
30005620:	e51b3010 	ldr	r3, [fp, #-16]
30005624:	e5932010 	ldr	r2, [r3, #16]
30005628:	e51b3010 	ldr	r3, [fp, #-16]
3000562c:	e5933008 	ldr	r3, [r3, #8]
30005630:	e1520003 	cmp	r2, r3
30005634:	1a000006 	bne	30005654 <OSQAccept+0xcc>
            pq->OSQOut = pq->OSQStart;
30005638:	e51b3010 	ldr	r3, [fp, #-16]
3000563c:	e5932004 	ldr	r2, [r3, #4]
30005640:	e51b3010 	ldr	r3, [fp, #-16]
30005644:	e5832010 	str	r2, [r3, #16]
30005648:	ea000001 	b	30005654 <OSQAccept+0xcc>
        }
    } else {
        msg = (void *)0;                         /* Queue is empty                                     */
3000564c:	e3a03000 	mov	r3, #0
30005650:	e50b3008 	str	r3, [fp, #-8]
    }
    OS_EXIT_CRITICAL();
30005654:	e51b000c 	ldr	r0, [fp, #-12]
30005658:	ebffeb31 	bl	30000324 <OS_CPU_SR_Restore>
    return (msg);                                /* Return message received (or NULL)                  */
3000565c:	e51b3008 	ldr	r3, [fp, #-8]
}
30005660:	e1a00003 	mov	r0, r3
30005664:	e24bd004 	sub	sp, fp, #4
30005668:	e8bd4800 	pop	{fp, lr}
3000566c:	e12fff1e 	bx	lr

30005670 <OSQCreate>:
* :
* -  `start`  Mini2440  RAM 
*********************************************************************************************************
*/
OS_EVENT  *OSQCreate (void **start, INT16U size)
{
30005670:	e92d4800 	push	{fp, lr}
30005674:	e28db004 	add	fp, sp, #4
30005678:	e24dd018 	sub	sp, sp, #24
3000567c:	e50b0018 	str	r0, [fp, #-24]	@ 0xffffffe8
30005680:	e1a03001 	mov	r3, r1
30005684:	e14b31ba 	strh	r3, [fp, #-26]	@ 0xffffffe6
    OS_CPU_SR cpu_sr;
    OS_EVENT  *pevent;
    OS_Q      *pq;

    if(OSIntNesting > 0){
30005688:	e59f315c 	ldr	r3, [pc, #348]	@ 300057ec <OSQCreate+0x17c>
3000568c:	e5d33000 	ldrb	r3, [r3]
30005690:	e3530000 	cmp	r3, #0
30005694:	0a000001 	beq	300056a0 <OSQCreate+0x30>
        return ((OS_EVENT *)0);
30005698:	e3a03000 	mov	r3, #0
3000569c:	ea00004e 	b	300057dc <OSQCreate+0x16c>
    }
    OS_ENTER_CRITICAL();
300056a0:	ebffeb1b 	bl	30000314 <OS_CPU_SR_Save>
300056a4:	e50b000c 	str	r0, [fp, #-12]
    pevent = OSEventFreeList;
300056a8:	e59f3140 	ldr	r3, [pc, #320]	@ 300057f0 <OSQCreate+0x180>
300056ac:	e5933000 	ldr	r3, [r3]
300056b0:	e50b3008 	str	r3, [fp, #-8]
    if(OSEventFreeList != (OS_EVENT *)0){
300056b4:	e59f3134 	ldr	r3, [pc, #308]	@ 300057f0 <OSQCreate+0x180>
300056b8:	e5933000 	ldr	r3, [r3]
300056bc:	e3530000 	cmp	r3, #0
300056c0:	0a000004 	beq	300056d8 <OSQCreate+0x68>
        OSEventFreeList = (OS_EVENT *)OSEventFreeList->OSEventPtr;
300056c4:	e59f3124 	ldr	r3, [pc, #292]	@ 300057f0 <OSQCreate+0x180>
300056c8:	e5933000 	ldr	r3, [r3]
300056cc:	e5933004 	ldr	r3, [r3, #4]
300056d0:	e59f2118 	ldr	r2, [pc, #280]	@ 300057f0 <OSQCreate+0x180>
300056d4:	e5823000 	str	r3, [r2]
    }
    OS_EXIT_CRITICAL();
300056d8:	e51b000c 	ldr	r0, [fp, #-12]
300056dc:	ebffeb10 	bl	30000324 <OS_CPU_SR_Restore>

    if(pevent != (OS_EVENT *)0){
300056e0:	e51b3008 	ldr	r3, [fp, #-8]
300056e4:	e3530000 	cmp	r3, #0
300056e8:	0a00003a 	beq	300057d8 <OSQCreate+0x168>
        OS_ENTER_CRITICAL();
300056ec:	ebffeb08 	bl	30000314 <OS_CPU_SR_Save>
300056f0:	e50b000c 	str	r0, [fp, #-12]
        pq = OSQFreeList;
300056f4:	e59f30f8 	ldr	r3, [pc, #248]	@ 300057f4 <OSQCreate+0x184>
300056f8:	e5933000 	ldr	r3, [r3]
300056fc:	e50b3010 	str	r3, [fp, #-16]
        if(pq != (OS_Q *)0){
30005700:	e51b3010 	ldr	r3, [fp, #-16]
30005704:	e3530000 	cmp	r3, #0
30005708:	0a000027 	beq	300057ac <OSQCreate+0x13c>
            OSQFreeList = (OS_Q *)OSQFreeList->OSQPtr;
3000570c:	e59f30e0 	ldr	r3, [pc, #224]	@ 300057f4 <OSQCreate+0x184>
30005710:	e5933000 	ldr	r3, [r3]
30005714:	e5933000 	ldr	r3, [r3]
30005718:	e59f20d4 	ldr	r2, [pc, #212]	@ 300057f4 <OSQCreate+0x184>
3000571c:	e5823000 	str	r3, [r2]
            OS_EXIT_CRITICAL();
30005720:	e51b000c 	ldr	r0, [fp, #-12]
30005724:	ebffeafe 	bl	30000324 <OS_CPU_SR_Restore>
            pq->OSQStart = start;
30005728:	e51b3010 	ldr	r3, [fp, #-16]
3000572c:	e51b2018 	ldr	r2, [fp, #-24]	@ 0xffffffe8
30005730:	e5832004 	str	r2, [r3, #4]
            pq->OSQEnd = &start[size];
30005734:	e15b31ba 	ldrh	r3, [fp, #-26]	@ 0xffffffe6
30005738:	e1a03103 	lsl	r3, r3, #2
3000573c:	e51b2018 	ldr	r2, [fp, #-24]	@ 0xffffffe8
30005740:	e0822003 	add	r2, r2, r3
30005744:	e51b3010 	ldr	r3, [fp, #-16]
30005748:	e5832008 	str	r2, [r3, #8]
            pq->OSQIn = start;
3000574c:	e51b3010 	ldr	r3, [fp, #-16]
30005750:	e51b2018 	ldr	r2, [fp, #-24]	@ 0xffffffe8
30005754:	e583200c 	str	r2, [r3, #12]
            pq->OSQOut = start;
30005758:	e51b3010 	ldr	r3, [fp, #-16]
3000575c:	e51b2018 	ldr	r2, [fp, #-24]	@ 0xffffffe8
30005760:	e5832010 	str	r2, [r3, #16]
            pq->OSQSize = size;
30005764:	e51b3010 	ldr	r3, [fp, #-16]
30005768:	e15b21ba 	ldrh	r2, [fp, #-26]	@ 0xffffffe6
3000576c:	e1c321b4 	strh	r2, [r3, #20]
            pq->OSQEntries = 0;
30005770:	e51b3010 	ldr	r3, [fp, #-16]
30005774:	e3a02000 	mov	r2, #0
30005778:	e1c321b6 	strh	r2, [r3, #22]

            pevent->OSEventType = OS_EVENT_TYPE_Q;
3000577c:	e51b3008 	ldr	r3, [fp, #-8]
30005780:	e3a02002 	mov	r2, #2
30005784:	e5c32000 	strb	r2, [r3]
            pevent->OSEventCnt = 0;
30005788:	e51b3008 	ldr	r3, [fp, #-8]
3000578c:	e3a02000 	mov	r2, #0
30005790:	e5832008 	str	r2, [r3, #8]
            pevent->OSEventPtr = pq;//
30005794:	e51b3008 	ldr	r3, [fp, #-8]
30005798:	e51b2010 	ldr	r2, [fp, #-16]
3000579c:	e5832004 	str	r2, [r3, #4]
            OS_EventWaitListInit(pevent);
300057a0:	e51b0008 	ldr	r0, [fp, #-8]
300057a4:	ebfff3d2 	bl	300026f4 <OS_EventWaitListInit>
300057a8:	ea00000a 	b	300057d8 <OSQCreate+0x168>
        }
        else{
            pevent->OSEventPtr = (void *)OSEventFreeList;
300057ac:	e59f303c 	ldr	r3, [pc, #60]	@ 300057f0 <OSQCreate+0x180>
300057b0:	e5932000 	ldr	r2, [r3]
300057b4:	e51b3008 	ldr	r3, [fp, #-8]
300057b8:	e5832004 	str	r2, [r3, #4]
            OSEventFreeList = pevent;
300057bc:	e59f202c 	ldr	r2, [pc, #44]	@ 300057f0 <OSQCreate+0x180>
300057c0:	e51b3008 	ldr	r3, [fp, #-8]
300057c4:	e5823000 	str	r3, [r2]
            OS_EXIT_CRITICAL();
300057c8:	e51b000c 	ldr	r0, [fp, #-12]
300057cc:	ebffead4 	bl	30000324 <OS_CPU_SR_Restore>
            pevent = (OS_EVENT *)0;
300057d0:	e3a03000 	mov	r3, #0
300057d4:	e50b3008 	str	r3, [fp, #-8]
        }
    }
    return (pevent);
300057d8:	e51b3008 	ldr	r3, [fp, #-8]
}
300057dc:	e1a00003 	mov	r0, r3
300057e0:	e24bd004 	sub	sp, fp, #4
300057e4:	e8bd4800 	pop	{fp, lr}
300057e8:	e12fff1e 	bx	lr
300057ec:	3000aa6c 	.word	0x3000aa6c
300057f0:	3000b590 	.word	0x3000b590
300057f4:	3000b5d0 	.word	0x3000b5d0

300057f8 <OSQDel>:
*
* :
* - 
*********************************************************************************************************
*/
OS_EVENT  *OSQDel (OS_EVENT *pevent, INT8U opt, INT8U *err){
300057f8:	e92d4800 	push	{fp, lr}
300057fc:	e28db004 	add	fp, sp, #4
30005800:	e24dd020 	sub	sp, sp, #32
30005804:	e50b0018 	str	r0, [fp, #-24]	@ 0xffffffe8
30005808:	e1a03001 	mov	r3, r1
3000580c:	e50b2020 	str	r2, [fp, #-32]	@ 0xffffffe0
30005810:	e54b3019 	strb	r3, [fp, #-25]	@ 0xffffffe7
    OS_CPU_SR  cpu_sr;
    BOOLEAN    tasks_waiting;
    OS_Q      *pq;

    if (OSIntNesting > 0) {                                /* See if called from ISR ...               */
30005814:	e59f31fc 	ldr	r3, [pc, #508]	@ 30005a18 <OSQDel+0x220>
30005818:	e5d33000 	ldrb	r3, [r3]
3000581c:	e3530000 	cmp	r3, #0
30005820:	0a000004 	beq	30005838 <OSQDel+0x40>
        *err = OS_ERR_DEL_ISR;                             /* ... can't DELETE from an ISR             */
30005824:	e51b3020 	ldr	r3, [fp, #-32]	@ 0xffffffe0
30005828:	e3e02073 	mvn	r2, #115	@ 0x73
3000582c:	e5c32000 	strb	r2, [r3]
        return ((OS_EVENT *)0);
30005830:	e3a03000 	mov	r3, #0
30005834:	ea000073 	b	30005a08 <OSQDel+0x210>
    }
    if (pevent == (OS_EVENT *)0) {                         /* Validate 'pevent'                        */
30005838:	e51b3018 	ldr	r3, [fp, #-24]	@ 0xffffffe8
3000583c:	e3530000 	cmp	r3, #0
30005840:	1a000004 	bne	30005858 <OSQDel+0x60>
        *err = OS_ERR_PEVENT_NULL;
30005844:	e51b3020 	ldr	r3, [fp, #-32]	@ 0xffffffe0
30005848:	e3a02004 	mov	r2, #4
3000584c:	e5c32000 	strb	r2, [r3]
        return (pevent);
30005850:	e51b3018 	ldr	r3, [fp, #-24]	@ 0xffffffe8
30005854:	ea00006b 	b	30005a08 <OSQDel+0x210>
    }
    if (pevent->OSEventType != OS_EVENT_TYPE_Q) {          /* Validate event block type                */
30005858:	e51b3018 	ldr	r3, [fp, #-24]	@ 0xffffffe8
3000585c:	e5d33000 	ldrb	r3, [r3]
30005860:	e3530002 	cmp	r3, #2
30005864:	0a000004 	beq	3000587c <OSQDel+0x84>
        *err = OS_ERR_EVENT_TYPE;
30005868:	e51b3020 	ldr	r3, [fp, #-32]	@ 0xffffffe0
3000586c:	e3a02001 	mov	r2, #1
30005870:	e5c32000 	strb	r2, [r3]
        return (pevent);
30005874:	e51b3018 	ldr	r3, [fp, #-24]	@ 0xffffffe8
30005878:	ea000062 	b	30005a08 <OSQDel+0x210>
    }

    OS_ENTER_CRITICAL();
3000587c:	ebffeaa4 	bl	30000314 <OS_CPU_SR_Save>
30005880:	e50b000c 	str	r0, [fp, #-12]
    if (pevent->OSEventGrp != 0x00) {                      /* See if any tasks waiting on queue        */
30005884:	e51b3018 	ldr	r3, [fp, #-24]	@ 0xffffffe8
30005888:	e5d33001 	ldrb	r3, [r3, #1]
3000588c:	e3530000 	cmp	r3, #0
30005890:	0a000002 	beq	300058a0 <OSQDel+0xa8>
        tasks_waiting = TRUE;                              /* Yes                                      */
30005894:	e3a03001 	mov	r3, #1
30005898:	e54b3005 	strb	r3, [fp, #-5]
3000589c:	ea000001 	b	300058a8 <OSQDel+0xb0>
    } else {
        tasks_waiting = FALSE;                             /* No                                       */
300058a0:	e3a03000 	mov	r3, #0
300058a4:	e54b3005 	strb	r3, [fp, #-5]
    }
    switch (opt) {
300058a8:	e55b3019 	ldrb	r3, [fp, #-25]	@ 0xffffffe7
300058ac:	e3530000 	cmp	r3, #0
300058b0:	0a000002 	beq	300058c0 <OSQDel+0xc8>
300058b4:	e3530001 	cmp	r3, #1
300058b8:	0a000029 	beq	30005964 <OSQDel+0x16c>
300058bc:	ea00004b 	b	300059f0 <OSQDel+0x1f8>
        case OS_DEL_NO_PEND:                               /* Delete queue only if no task waiting     */
             if (tasks_waiting == FALSE) {
300058c0:	e55b3005 	ldrb	r3, [fp, #-5]
300058c4:	e3530000 	cmp	r3, #0
300058c8:	1a00001a 	bne	30005938 <OSQDel+0x140>
                 pq                  = (OS_Q *)pevent->OSEventPtr;  /* Return OS_Q to free list        */
300058cc:	e51b3018 	ldr	r3, [fp, #-24]	@ 0xffffffe8
300058d0:	e5933004 	ldr	r3, [r3, #4]
300058d4:	e50b3010 	str	r3, [fp, #-16]
                 pq->OSQPtr          = OSQFreeList;
300058d8:	e59f313c 	ldr	r3, [pc, #316]	@ 30005a1c <OSQDel+0x224>
300058dc:	e5932000 	ldr	r2, [r3]
300058e0:	e51b3010 	ldr	r3, [fp, #-16]
300058e4:	e5832000 	str	r2, [r3]
                 OSQFreeList         = pq;
300058e8:	e59f212c 	ldr	r2, [pc, #300]	@ 30005a1c <OSQDel+0x224>
300058ec:	e51b3010 	ldr	r3, [fp, #-16]
300058f0:	e5823000 	str	r3, [r2]
                 pevent->OSEventType = OS_EVENT_TYPE_UNUSED;
300058f4:	e51b3018 	ldr	r3, [fp, #-24]	@ 0xffffffe8
300058f8:	e3a02000 	mov	r2, #0
300058fc:	e5c32000 	strb	r2, [r3]
                 pevent->OSEventPtr  = OSEventFreeList;    /* Return Event Control Block to free list  */
30005900:	e59f3118 	ldr	r3, [pc, #280]	@ 30005a20 <OSQDel+0x228>
30005904:	e5932000 	ldr	r2, [r3]
30005908:	e51b3018 	ldr	r3, [fp, #-24]	@ 0xffffffe8
3000590c:	e5832004 	str	r2, [r3, #4]
                 OSEventFreeList     = pevent;             /* Get next free event control block        */
30005910:	e59f2108 	ldr	r2, [pc, #264]	@ 30005a20 <OSQDel+0x228>
30005914:	e51b3018 	ldr	r3, [fp, #-24]	@ 0xffffffe8
30005918:	e5823000 	str	r3, [r2]
                 OS_EXIT_CRITICAL();
3000591c:	e51b000c 	ldr	r0, [fp, #-12]
30005920:	ebffea7f 	bl	30000324 <OS_CPU_SR_Restore>
                 *err = OS_NO_ERR;
30005924:	e51b3020 	ldr	r3, [fp, #-32]	@ 0xffffffe0
30005928:	e3a02000 	mov	r2, #0
3000592c:	e5c32000 	strb	r2, [r3]
                 return ((OS_EVENT *)0);                   /* Queue has been deleted                   */
30005930:	e3a03000 	mov	r3, #0
30005934:	ea000033 	b	30005a08 <OSQDel+0x210>
             } else {
                 OS_EXIT_CRITICAL();
30005938:	e51b000c 	ldr	r0, [fp, #-12]
3000593c:	ebffea78 	bl	30000324 <OS_CPU_SR_Restore>
                 *err = OS_ERR_TASK_WAITING;
30005940:	e51b3020 	ldr	r3, [fp, #-32]	@ 0xffffffe0
30005944:	e3a02008 	mov	r2, #8
30005948:	e5c32000 	strb	r2, [r3]
                 return (pevent);
3000594c:	e51b3018 	ldr	r3, [fp, #-24]	@ 0xffffffe8
30005950:	ea00002c 	b	30005a08 <OSQDel+0x210>
             }

        case OS_DEL_ALWAYS:                                /* Always delete the queue                  */
             while (pevent->OSEventGrp != 0x00) {          /* Ready ALL tasks waiting for queue        */
                 OS_EventTaskRdy(pevent, (void *)0, OS_STAT_Q);
30005954:	e3a02004 	mov	r2, #4
30005958:	e3a01000 	mov	r1, #0
3000595c:	e51b0018 	ldr	r0, [fp, #-24]	@ 0xffffffe8
30005960:	ebfff253 	bl	300022b4 <OS_EventTaskRdy>
             while (pevent->OSEventGrp != 0x00) {          /* Ready ALL tasks waiting for queue        */
30005964:	e51b3018 	ldr	r3, [fp, #-24]	@ 0xffffffe8
30005968:	e5d33001 	ldrb	r3, [r3, #1]
3000596c:	e3530000 	cmp	r3, #0
30005970:	1afffff7 	bne	30005954 <OSQDel+0x15c>
             }
             pq                  = (OS_Q *)pevent->OSEventPtr;      /* Return OS_Q to free list        */
30005974:	e51b3018 	ldr	r3, [fp, #-24]	@ 0xffffffe8
30005978:	e5933004 	ldr	r3, [r3, #4]
3000597c:	e50b3010 	str	r3, [fp, #-16]
             pq->OSQPtr          = OSQFreeList;
30005980:	e59f3094 	ldr	r3, [pc, #148]	@ 30005a1c <OSQDel+0x224>
30005984:	e5932000 	ldr	r2, [r3]
30005988:	e51b3010 	ldr	r3, [fp, #-16]
3000598c:	e5832000 	str	r2, [r3]
             OSQFreeList         = pq;
30005990:	e59f2084 	ldr	r2, [pc, #132]	@ 30005a1c <OSQDel+0x224>
30005994:	e51b3010 	ldr	r3, [fp, #-16]
30005998:	e5823000 	str	r3, [r2]
             pevent->OSEventType = OS_EVENT_TYPE_UNUSED;
3000599c:	e51b3018 	ldr	r3, [fp, #-24]	@ 0xffffffe8
300059a0:	e3a02000 	mov	r2, #0
300059a4:	e5c32000 	strb	r2, [r3]
             pevent->OSEventPtr  = OSEventFreeList;        /* Return Event Control Block to free list  */
300059a8:	e59f3070 	ldr	r3, [pc, #112]	@ 30005a20 <OSQDel+0x228>
300059ac:	e5932000 	ldr	r2, [r3]
300059b0:	e51b3018 	ldr	r3, [fp, #-24]	@ 0xffffffe8
300059b4:	e5832004 	str	r2, [r3, #4]
             OSEventFreeList     = pevent;                 /* Get next free event control block        */
300059b8:	e59f2060 	ldr	r2, [pc, #96]	@ 30005a20 <OSQDel+0x228>
300059bc:	e51b3018 	ldr	r3, [fp, #-24]	@ 0xffffffe8
300059c0:	e5823000 	str	r3, [r2]
             OS_EXIT_CRITICAL();
300059c4:	e51b000c 	ldr	r0, [fp, #-12]
300059c8:	ebffea55 	bl	30000324 <OS_CPU_SR_Restore>
             if (tasks_waiting == TRUE) {                  /* Reschedule only if task(s) were waiting  */
300059cc:	e55b3005 	ldrb	r3, [fp, #-5]
300059d0:	e3530001 	cmp	r3, #1
300059d4:	1a000000 	bne	300059dc <OSQDel+0x1e4>
                 OS_Sched();                               /* Find highest priority task ready to run  */
300059d8:	ebfff39b 	bl	3000284c <OS_Sched>
             }
             *err = OS_NO_ERR;
300059dc:	e51b3020 	ldr	r3, [fp, #-32]	@ 0xffffffe0
300059e0:	e3a02000 	mov	r2, #0
300059e4:	e5c32000 	strb	r2, [r3]
             return ((OS_EVENT *)0);                       /* Queue has been deleted                   */
300059e8:	e3a03000 	mov	r3, #0
300059ec:	ea000005 	b	30005a08 <OSQDel+0x210>

        default:
             OS_EXIT_CRITICAL();
300059f0:	e51b000c 	ldr	r0, [fp, #-12]
300059f4:	ebffea4a 	bl	30000324 <OS_CPU_SR_Restore>
             *err = OS_ERR_INVALID_OPT;
300059f8:	e51b3020 	ldr	r3, [fp, #-32]	@ 0xffffffe0
300059fc:	e3a02007 	mov	r2, #7
30005a00:	e5c32000 	strb	r2, [r3]
             return (pevent);
30005a04:	e51b3018 	ldr	r3, [fp, #-24]	@ 0xffffffe8
    }
}
30005a08:	e1a00003 	mov	r0, r3
30005a0c:	e24bd004 	sub	sp, fp, #4
30005a10:	e8bd4800 	pop	{fp, lr}
30005a14:	e12fff1e 	bx	lr
30005a18:	3000aa6c 	.word	0x3000aa6c
30005a1c:	3000b5d0 	.word	0x3000b5d0
30005a20:	3000b590 	.word	0x3000b590

30005a24 <OSQFlush>:
* :
* - 
*********************************************************************************************************
*/
INT8U  OSQFlush (OS_EVENT *pevent)
{
30005a24:	e92d4800 	push	{fp, lr}
30005a28:	e28db004 	add	fp, sp, #4
30005a2c:	e24dd010 	sub	sp, sp, #16
30005a30:	e50b0010 	str	r0, [fp, #-16]
    OS_CPU_SR  cpu_sr;
    OS_Q      *pq;

    if (pevent == (OS_EVENT *)0) {                    
30005a34:	e51b3010 	ldr	r3, [fp, #-16]
30005a38:	e3530000 	cmp	r3, #0
30005a3c:	1a000001 	bne	30005a48 <OSQFlush+0x24>
        return (OS_ERR_PEVENT_NULL);
30005a40:	e3a03004 	mov	r3, #4
30005a44:	ea000018 	b	30005aac <OSQFlush+0x88>
    }
    if (pevent->OSEventType != OS_EVENT_TYPE_Q) {    
30005a48:	e51b3010 	ldr	r3, [fp, #-16]
30005a4c:	e5d33000 	ldrb	r3, [r3]
30005a50:	e3530002 	cmp	r3, #2
30005a54:	0a000001 	beq	30005a60 <OSQFlush+0x3c>
        return (OS_ERR_EVENT_TYPE);
30005a58:	e3a03001 	mov	r3, #1
30005a5c:	ea000012 	b	30005aac <OSQFlush+0x88>
    }
    OS_ENTER_CRITICAL();
30005a60:	ebffea2b 	bl	30000314 <OS_CPU_SR_Save>
30005a64:	e50b0008 	str	r0, [fp, #-8]
    pq             = (OS_Q *)pevent->OSEventPtr;      
30005a68:	e51b3010 	ldr	r3, [fp, #-16]
30005a6c:	e5933004 	ldr	r3, [r3, #4]
30005a70:	e50b300c 	str	r3, [fp, #-12]
    pq->OSQIn      = pq->OSQStart;
30005a74:	e51b300c 	ldr	r3, [fp, #-12]
30005a78:	e5932004 	ldr	r2, [r3, #4]
30005a7c:	e51b300c 	ldr	r3, [fp, #-12]
30005a80:	e583200c 	str	r2, [r3, #12]
    pq->OSQOut     = pq->OSQStart;
30005a84:	e51b300c 	ldr	r3, [fp, #-12]
30005a88:	e5932004 	ldr	r2, [r3, #4]
30005a8c:	e51b300c 	ldr	r3, [fp, #-12]
30005a90:	e5832010 	str	r2, [r3, #16]
    pq->OSQEntries = 0;
30005a94:	e51b300c 	ldr	r3, [fp, #-12]
30005a98:	e3a02000 	mov	r2, #0
30005a9c:	e1c321b6 	strh	r2, [r3, #22]
    OS_EXIT_CRITICAL();
30005aa0:	e51b0008 	ldr	r0, [fp, #-8]
30005aa4:	ebffea1e 	bl	30000324 <OS_CPU_SR_Restore>
    return (OS_NO_ERR);
30005aa8:	e3a03000 	mov	r3, #0
}
30005aac:	e1a00003 	mov	r0, r3
30005ab0:	e24bd004 	sub	sp, fp, #4
30005ab4:	e8bd4800 	pop	{fp, lr}
30005ab8:	e12fff1e 	bx	lr

30005abc <OSQPend>:
* :
* - 
*********************************************************************************************************
*/
void  *OSQPend (OS_EVENT *pevent, INT16U timeout, INT8U *err)
{
30005abc:	e92d4800 	push	{fp, lr}
30005ac0:	e28db004 	add	fp, sp, #4
30005ac4:	e24dd020 	sub	sp, sp, #32
30005ac8:	e50b0018 	str	r0, [fp, #-24]	@ 0xffffffe8
30005acc:	e1a03001 	mov	r3, r1
30005ad0:	e50b2020 	str	r2, [fp, #-32]	@ 0xffffffe0
30005ad4:	e14b31ba 	strh	r3, [fp, #-26]	@ 0xffffffe6
    OS_CPU_SR cpu_sr;
    void *msg;
    OS_Q *pq;

    if(OSIntNesting > 0){
30005ad8:	e59f31e4 	ldr	r3, [pc, #484]	@ 30005cc4 <OSQPend+0x208>
30005adc:	e5d33000 	ldrb	r3, [r3]
30005ae0:	e3530000 	cmp	r3, #0
30005ae4:	0a000004 	beq	30005afc <OSQPend+0x40>
        *err = OS_ERR_PEND_ISR;
30005ae8:	e51b3020 	ldr	r3, [fp, #-32]	@ 0xffffffe0
30005aec:	e3a02002 	mov	r2, #2
30005af0:	e5c32000 	strb	r2, [r3]
        return ((void *)0);
30005af4:	e3a03000 	mov	r3, #0
30005af8:	ea00006d 	b	30005cb4 <OSQPend+0x1f8>
    }
    if(pevent == (OS_EVENT *)0){
30005afc:	e51b3018 	ldr	r3, [fp, #-24]	@ 0xffffffe8
30005b00:	e3530000 	cmp	r3, #0
30005b04:	1a000004 	bne	30005b1c <OSQPend+0x60>
        *err = OS_ERR_PEVENT_NULL;
30005b08:	e51b3020 	ldr	r3, [fp, #-32]	@ 0xffffffe0
30005b0c:	e3a02004 	mov	r2, #4
30005b10:	e5c32000 	strb	r2, [r3]
        return ((void *)0);
30005b14:	e3a03000 	mov	r3, #0
30005b18:	ea000065 	b	30005cb4 <OSQPend+0x1f8>
    }
    if(pevent->OSEventType != OS_EVENT_TYPE_Q){
30005b1c:	e51b3018 	ldr	r3, [fp, #-24]	@ 0xffffffe8
30005b20:	e5d33000 	ldrb	r3, [r3]
30005b24:	e3530002 	cmp	r3, #2
30005b28:	0a000004 	beq	30005b40 <OSQPend+0x84>
        *err = OS_ERR_EVENT_TYPE;
30005b2c:	e51b3020 	ldr	r3, [fp, #-32]	@ 0xffffffe0
30005b30:	e3a02001 	mov	r2, #1
30005b34:	e5c32000 	strb	r2, [r3]
        return ((void *)0);
30005b38:	e3a03000 	mov	r3, #0
30005b3c:	ea00005c 	b	30005cb4 <OSQPend+0x1f8>
    }
    OS_ENTER_CRITICAL();
30005b40:	ebffe9f3 	bl	30000314 <OS_CPU_SR_Save>
30005b44:	e50b0008 	str	r0, [fp, #-8]
    pq = (OS_Q *)pevent->OSEventPtr;
30005b48:	e51b3018 	ldr	r3, [fp, #-24]	@ 0xffffffe8
30005b4c:	e5933004 	ldr	r3, [r3, #4]
30005b50:	e50b300c 	str	r3, [fp, #-12]
    if(pq->OSQEntries > 0){
30005b54:	e51b300c 	ldr	r3, [fp, #-12]
30005b58:	e1d331b6 	ldrh	r3, [r3, #22]
30005b5c:	e3530000 	cmp	r3, #0
30005b60:	0a00001e 	beq	30005be0 <OSQPend+0x124>
        msg = *pq->OSQOut++;
30005b64:	e51b300c 	ldr	r3, [fp, #-12]
30005b68:	e5933010 	ldr	r3, [r3, #16]
30005b6c:	e2831004 	add	r1, r3, #4
30005b70:	e51b200c 	ldr	r2, [fp, #-12]
30005b74:	e5821010 	str	r1, [r2, #16]
30005b78:	e5933000 	ldr	r3, [r3]
30005b7c:	e50b3010 	str	r3, [fp, #-16]
        pq->OSQEntries--;
30005b80:	e51b300c 	ldr	r3, [fp, #-12]
30005b84:	e1d331b6 	ldrh	r3, [r3, #22]
30005b88:	e2433001 	sub	r3, r3, #1
30005b8c:	e1a03803 	lsl	r3, r3, #16
30005b90:	e1a02823 	lsr	r2, r3, #16
30005b94:	e51b300c 	ldr	r3, [fp, #-12]
30005b98:	e1c321b6 	strh	r2, [r3, #22]
        if(pq->OSQOut == pq->OSQEnd){
30005b9c:	e51b300c 	ldr	r3, [fp, #-12]
30005ba0:	e5932010 	ldr	r2, [r3, #16]
30005ba4:	e51b300c 	ldr	r3, [fp, #-12]
30005ba8:	e5933008 	ldr	r3, [r3, #8]
30005bac:	e1520003 	cmp	r2, r3
30005bb0:	1a000003 	bne	30005bc4 <OSQPend+0x108>
            pq->OSQOut = pq->OSQStart;
30005bb4:	e51b300c 	ldr	r3, [fp, #-12]
30005bb8:	e5932004 	ldr	r2, [r3, #4]
30005bbc:	e51b300c 	ldr	r3, [fp, #-12]
30005bc0:	e5832010 	str	r2, [r3, #16]
        }
        OS_EXIT_CRITICAL();
30005bc4:	e51b0008 	ldr	r0, [fp, #-8]
30005bc8:	ebffe9d5 	bl	30000324 <OS_CPU_SR_Restore>
        *err = OS_NO_ERR;
30005bcc:	e51b3020 	ldr	r3, [fp, #-32]	@ 0xffffffe0
30005bd0:	e3a02000 	mov	r2, #0
30005bd4:	e5c32000 	strb	r2, [r3]
        return (msg);
30005bd8:	e51b3010 	ldr	r3, [fp, #-16]
30005bdc:	ea000034 	b	30005cb4 <OSQPend+0x1f8>
    }
    OSTCBCur->OSTCBStat |= OS_STAT_Q;
30005be0:	e59f30e0 	ldr	r3, [pc, #224]	@ 30005cc8 <OSQPend+0x20c>
30005be4:	e5933000 	ldr	r3, [r3]
30005be8:	e5d3201f 	ldrb	r2, [r3, #31]
30005bec:	e59f30d4 	ldr	r3, [pc, #212]	@ 30005cc8 <OSQPend+0x20c>
30005bf0:	e5933000 	ldr	r3, [r3]
30005bf4:	e3822004 	orr	r2, r2, #4
30005bf8:	e20220ff 	and	r2, r2, #255	@ 0xff
30005bfc:	e5c3201f 	strb	r2, [r3, #31]
    OSTCBCur->OSTCBDly = timeout;
30005c00:	e59f30c0 	ldr	r3, [pc, #192]	@ 30005cc8 <OSQPend+0x20c>
30005c04:	e5933000 	ldr	r3, [r3]
30005c08:	e15b21ba 	ldrh	r2, [fp, #-26]	@ 0xffffffe6
30005c0c:	e1c321bc 	strh	r2, [r3, #28]
    OS_EventTaskWait(pevent);
30005c10:	e51b0018 	ldr	r0, [fp, #-24]	@ 0xffffffe8
30005c14:	ebfff21a 	bl	30002484 <OS_EventTaskWait>
    OS_EXIT_CRITICAL();
30005c18:	e51b0008 	ldr	r0, [fp, #-8]
30005c1c:	ebffe9c0 	bl	30000324 <OS_CPU_SR_Restore>
    OS_Sched();
30005c20:	ebfff309 	bl	3000284c <OS_Sched>
    OS_ENTER_CRITICAL();
30005c24:	ebffe9ba 	bl	30000314 <OS_CPU_SR_Save>
30005c28:	e50b0008 	str	r0, [fp, #-8]
    msg = OSTCBCur->OSTCBMsg;
30005c2c:	e59f3094 	ldr	r3, [pc, #148]	@ 30005cc8 <OSQPend+0x20c>
30005c30:	e5933000 	ldr	r3, [r3]
30005c34:	e5933010 	ldr	r3, [r3, #16]
30005c38:	e50b3010 	str	r3, [fp, #-16]
    if(msg != (void *)0){
30005c3c:	e51b3010 	ldr	r3, [fp, #-16]
30005c40:	e3530000 	cmp	r3, #0
30005c44:	0a000012 	beq	30005c94 <OSQPend+0x1d8>
        OSTCBCur->OSTCBMsg = (void *)0;
30005c48:	e59f3078 	ldr	r3, [pc, #120]	@ 30005cc8 <OSQPend+0x20c>
30005c4c:	e5933000 	ldr	r3, [r3]
30005c50:	e3a02000 	mov	r2, #0
30005c54:	e5832010 	str	r2, [r3, #16]
        OSTCBCur->OSTCBStat = OS_STAT_RDY;
30005c58:	e59f3068 	ldr	r3, [pc, #104]	@ 30005cc8 <OSQPend+0x20c>
30005c5c:	e5933000 	ldr	r3, [r3]
30005c60:	e3a02000 	mov	r2, #0
30005c64:	e5c3201f 	strb	r2, [r3, #31]
        OSTCBCur->OSTCBEventPtr = (OS_EVENT *)0;
30005c68:	e59f3058 	ldr	r3, [pc, #88]	@ 30005cc8 <OSQPend+0x20c>
30005c6c:	e5933000 	ldr	r3, [r3]
30005c70:	e3a02000 	mov	r2, #0
30005c74:	e583200c 	str	r2, [r3, #12]
        OS_EXIT_CRITICAL();
30005c78:	e51b0008 	ldr	r0, [fp, #-8]
30005c7c:	ebffe9a8 	bl	30000324 <OS_CPU_SR_Restore>
        *err = OS_NO_ERR;
30005c80:	e51b3020 	ldr	r3, [fp, #-32]	@ 0xffffffe0
30005c84:	e3a02000 	mov	r2, #0
30005c88:	e5c32000 	strb	r2, [r3]
        return (msg);
30005c8c:	e51b3010 	ldr	r3, [fp, #-16]
30005c90:	ea000007 	b	30005cb4 <OSQPend+0x1f8>
    }
    OS_EventTO(pevent);
30005c94:	e51b0018 	ldr	r0, [fp, #-24]	@ 0xffffffe8
30005c98:	ebfff252 	bl	300025e8 <OS_EventTO>
    OS_EXIT_CRITICAL();
30005c9c:	e51b0008 	ldr	r0, [fp, #-8]
30005ca0:	ebffe99f 	bl	30000324 <OS_CPU_SR_Restore>
    *err = OS_TIMEOUT;
30005ca4:	e51b3020 	ldr	r3, [fp, #-32]	@ 0xffffffe0
30005ca8:	e3a0200a 	mov	r2, #10
30005cac:	e5c32000 	strb	r2, [r3]
    return ((void *)0);
30005cb0:	e3a03000 	mov	r3, #0
}
30005cb4:	e1a00003 	mov	r0, r3
30005cb8:	e24bd004 	sub	sp, fp, #4
30005cbc:	e8bd4800 	pop	{fp, lr}
30005cc0:	e12fff1e 	bx	lr
30005cc4:	3000aa6c 	.word	0x3000aa6c
30005cc8:	3000b394 	.word	0x3000b394

30005ccc <OSQPost>:
* :
* - 
*********************************************************************************************************
*/
INT8U  OSQPost (OS_EVENT *pevent, void *msg)
{
30005ccc:	e92d4800 	push	{fp, lr}
30005cd0:	e28db004 	add	fp, sp, #4
30005cd4:	e24dd010 	sub	sp, sp, #16
30005cd8:	e50b0010 	str	r0, [fp, #-16]
30005cdc:	e50b1014 	str	r1, [fp, #-20]	@ 0xffffffec
    OS_CPU_SR cpu_sr;
    OS_Q      *pq;

    if(pevent == (OS_EVENT *)0){
30005ce0:	e51b3010 	ldr	r3, [fp, #-16]
30005ce4:	e3530000 	cmp	r3, #0
30005ce8:	1a000001 	bne	30005cf4 <OSQPost+0x28>
        return (OS_ERR_PEVENT_NULL);
30005cec:	e3a03004 	mov	r3, #4
30005cf0:	ea000041 	b	30005dfc <OSQPost+0x130>
    }
    if(msg == (void *)0){
30005cf4:	e51b3014 	ldr	r3, [fp, #-20]	@ 0xffffffec
30005cf8:	e3530000 	cmp	r3, #0
30005cfc:	1a000001 	bne	30005d08 <OSQPost+0x3c>
        return (OS_ERR_POST_NULL_PTR);
30005d00:	e3a03003 	mov	r3, #3
30005d04:	ea00003c 	b	30005dfc <OSQPost+0x130>
    }
    if(pevent->OSEventType != OS_EVENT_TYPE_Q){
30005d08:	e51b3010 	ldr	r3, [fp, #-16]
30005d0c:	e5d33000 	ldrb	r3, [r3]
30005d10:	e3530002 	cmp	r3, #2
30005d14:	0a000001 	beq	30005d20 <OSQPost+0x54>
        return (OS_ERR_EVENT_TYPE);
30005d18:	e3a03001 	mov	r3, #1
30005d1c:	ea000036 	b	30005dfc <OSQPost+0x130>
    }
    OS_ENTER_CRITICAL();
30005d20:	ebffe97b 	bl	30000314 <OS_CPU_SR_Save>
30005d24:	e50b0008 	str	r0, [fp, #-8]
    if(pevent->OSEventGrp != 0x00){
30005d28:	e51b3010 	ldr	r3, [fp, #-16]
30005d2c:	e5d33001 	ldrb	r3, [r3, #1]
30005d30:	e3530000 	cmp	r3, #0
30005d34:	0a000008 	beq	30005d5c <OSQPost+0x90>
        OS_EventTaskRdy(pevent, msg, OS_STAT_Q);
30005d38:	e3a02004 	mov	r2, #4
30005d3c:	e51b1014 	ldr	r1, [fp, #-20]	@ 0xffffffec
30005d40:	e51b0010 	ldr	r0, [fp, #-16]
30005d44:	ebfff15a 	bl	300022b4 <OS_EventTaskRdy>
        OS_EXIT_CRITICAL();
30005d48:	e51b0008 	ldr	r0, [fp, #-8]
30005d4c:	ebffe974 	bl	30000324 <OS_CPU_SR_Restore>
        OS_Sched();
30005d50:	ebfff2bd 	bl	3000284c <OS_Sched>
        return (OS_NO_ERR);
30005d54:	e3a03000 	mov	r3, #0
30005d58:	ea000027 	b	30005dfc <OSQPost+0x130>
    }
    pq = (OS_Q *)pevent->OSEventPtr;
30005d5c:	e51b3010 	ldr	r3, [fp, #-16]
30005d60:	e5933004 	ldr	r3, [r3, #4]
30005d64:	e50b300c 	str	r3, [fp, #-12]
    if(pq->OSQEntries >= pq->OSQSize){
30005d68:	e51b300c 	ldr	r3, [fp, #-12]
30005d6c:	e1d321b6 	ldrh	r2, [r3, #22]
30005d70:	e51b300c 	ldr	r3, [fp, #-12]
30005d74:	e1d331b4 	ldrh	r3, [r3, #20]
30005d78:	e1520003 	cmp	r2, r3
30005d7c:	3a000003 	bcc	30005d90 <OSQPost+0xc4>
        OS_EXIT_CRITICAL();
30005d80:	e51b0008 	ldr	r0, [fp, #-8]
30005d84:	ebffe966 	bl	30000324 <OS_CPU_SR_Restore>
        return (OS_Q_FULL);
30005d88:	e3a0301e 	mov	r3, #30
30005d8c:	ea00001a 	b	30005dfc <OSQPost+0x130>
    }
    *pq->OSQIn++ = msg;
30005d90:	e51b300c 	ldr	r3, [fp, #-12]
30005d94:	e593300c 	ldr	r3, [r3, #12]
30005d98:	e2831004 	add	r1, r3, #4
30005d9c:	e51b200c 	ldr	r2, [fp, #-12]
30005da0:	e582100c 	str	r1, [r2, #12]
30005da4:	e51b2014 	ldr	r2, [fp, #-20]	@ 0xffffffec
30005da8:	e5832000 	str	r2, [r3]
    pq->OSQEntries++;
30005dac:	e51b300c 	ldr	r3, [fp, #-12]
30005db0:	e1d331b6 	ldrh	r3, [r3, #22]
30005db4:	e2833001 	add	r3, r3, #1
30005db8:	e1a03803 	lsl	r3, r3, #16
30005dbc:	e1a02823 	lsr	r2, r3, #16
30005dc0:	e51b300c 	ldr	r3, [fp, #-12]
30005dc4:	e1c321b6 	strh	r2, [r3, #22]
    if(pq->OSQIn == pq->OSQEnd){
30005dc8:	e51b300c 	ldr	r3, [fp, #-12]
30005dcc:	e593200c 	ldr	r2, [r3, #12]
30005dd0:	e51b300c 	ldr	r3, [fp, #-12]
30005dd4:	e5933008 	ldr	r3, [r3, #8]
30005dd8:	e1520003 	cmp	r2, r3
30005ddc:	1a000003 	bne	30005df0 <OSQPost+0x124>
        pq->OSQIn = pq->OSQStart;
30005de0:	e51b300c 	ldr	r3, [fp, #-12]
30005de4:	e5932004 	ldr	r2, [r3, #4]
30005de8:	e51b300c 	ldr	r3, [fp, #-12]
30005dec:	e583200c 	str	r2, [r3, #12]
    }
    OS_EXIT_CRITICAL();
30005df0:	e51b0008 	ldr	r0, [fp, #-8]
30005df4:	ebffe94a 	bl	30000324 <OS_CPU_SR_Restore>
    return (OS_NO_ERR);
30005df8:	e3a03000 	mov	r3, #0
}
30005dfc:	e1a00003 	mov	r0, r3
30005e00:	e24bd004 	sub	sp, fp, #4
30005e04:	e8bd4800 	pop	{fp, lr}
30005e08:	e12fff1e 	bx	lr

30005e0c <OSQPostFront>:
* :
* -  ARM 
*********************************************************************************************************
*/
INT8U  OSQPostFront (OS_EVENT *pevent, void *msg)
{
30005e0c:	e92d4800 	push	{fp, lr}
30005e10:	e28db004 	add	fp, sp, #4
30005e14:	e24dd010 	sub	sp, sp, #16
30005e18:	e50b0010 	str	r0, [fp, #-16]
30005e1c:	e50b1014 	str	r1, [fp, #-20]	@ 0xffffffec
    OS_CPU_SR  cpu_sr;
    OS_Q      *pq;

    if (pevent == (OS_EVENT *)0) {        
30005e20:	e51b3010 	ldr	r3, [fp, #-16]
30005e24:	e3530000 	cmp	r3, #0
30005e28:	1a000001 	bne	30005e34 <OSQPostFront+0x28>
        return (OS_ERR_PEVENT_NULL);
30005e2c:	e3a03004 	mov	r3, #4
30005e30:	ea000043 	b	30005f44 <OSQPostFront+0x138>
    }
    if (msg == (void *)0) {      
30005e34:	e51b3014 	ldr	r3, [fp, #-20]	@ 0xffffffec
30005e38:	e3530000 	cmp	r3, #0
30005e3c:	1a000001 	bne	30005e48 <OSQPostFront+0x3c>
        return (OS_ERR_POST_NULL_PTR);
30005e40:	e3a03003 	mov	r3, #3
30005e44:	ea00003e 	b	30005f44 <OSQPostFront+0x138>
    }
    if (pevent->OSEventType != OS_EVENT_TYPE_Q) { 
30005e48:	e51b3010 	ldr	r3, [fp, #-16]
30005e4c:	e5d33000 	ldrb	r3, [r3]
30005e50:	e3530002 	cmp	r3, #2
30005e54:	0a000001 	beq	30005e60 <OSQPostFront+0x54>
        return (OS_ERR_EVENT_TYPE);
30005e58:	e3a03001 	mov	r3, #1
30005e5c:	ea000038 	b	30005f44 <OSQPostFront+0x138>
    }

    OS_ENTER_CRITICAL();
30005e60:	ebffe92b 	bl	30000314 <OS_CPU_SR_Save>
30005e64:	e50b0008 	str	r0, [fp, #-8]
    if (pevent->OSEventGrp != 0x00) {           
30005e68:	e51b3010 	ldr	r3, [fp, #-16]
30005e6c:	e5d33001 	ldrb	r3, [r3, #1]
30005e70:	e3530000 	cmp	r3, #0
30005e74:	0a000008 	beq	30005e9c <OSQPostFront+0x90>
        OS_EventTaskRdy(pevent, msg, OS_STAT_Q);    
30005e78:	e3a02004 	mov	r2, #4
30005e7c:	e51b1014 	ldr	r1, [fp, #-20]	@ 0xffffffec
30005e80:	e51b0010 	ldr	r0, [fp, #-16]
30005e84:	ebfff10a 	bl	300022b4 <OS_EventTaskRdy>
        OS_EXIT_CRITICAL();
30005e88:	e51b0008 	ldr	r0, [fp, #-8]
30005e8c:	ebffe924 	bl	30000324 <OS_CPU_SR_Restore>
        OS_Sched();                                  
30005e90:	ebfff26d 	bl	3000284c <OS_Sched>
        return (OS_NO_ERR);
30005e94:	e3a03000 	mov	r3, #0
30005e98:	ea000029 	b	30005f44 <OSQPostFront+0x138>
    }
    pq = (OS_Q *)pevent->OSEventPtr;              
30005e9c:	e51b3010 	ldr	r3, [fp, #-16]
30005ea0:	e5933004 	ldr	r3, [r3, #4]
30005ea4:	e50b300c 	str	r3, [fp, #-12]
    if (pq->OSQEntries >= pq->OSQSize) {             
30005ea8:	e51b300c 	ldr	r3, [fp, #-12]
30005eac:	e1d321b6 	ldrh	r2, [r3, #22]
30005eb0:	e51b300c 	ldr	r3, [fp, #-12]
30005eb4:	e1d331b4 	ldrh	r3, [r3, #20]
30005eb8:	e1520003 	cmp	r2, r3
30005ebc:	3a000003 	bcc	30005ed0 <OSQPostFront+0xc4>
        OS_EXIT_CRITICAL();
30005ec0:	e51b0008 	ldr	r0, [fp, #-8]
30005ec4:	ebffe916 	bl	30000324 <OS_CPU_SR_Restore>
        return (OS_Q_FULL);
30005ec8:	e3a0301e 	mov	r3, #30
30005ecc:	ea00001c 	b	30005f44 <OSQPostFront+0x138>
    }
    if (pq->OSQOut == pq->OSQStart) {               
30005ed0:	e51b300c 	ldr	r3, [fp, #-12]
30005ed4:	e5932010 	ldr	r2, [r3, #16]
30005ed8:	e51b300c 	ldr	r3, [fp, #-12]
30005edc:	e5933004 	ldr	r3, [r3, #4]
30005ee0:	e1520003 	cmp	r2, r3
30005ee4:	1a000003 	bne	30005ef8 <OSQPostFront+0xec>
        pq->OSQOut = pq->OSQEnd;
30005ee8:	e51b300c 	ldr	r3, [fp, #-12]
30005eec:	e5932008 	ldr	r2, [r3, #8]
30005ef0:	e51b300c 	ldr	r3, [fp, #-12]
30005ef4:	e5832010 	str	r2, [r3, #16]
    }
    pq->OSQOut--;
30005ef8:	e51b300c 	ldr	r3, [fp, #-12]
30005efc:	e5933010 	ldr	r3, [r3, #16]
30005f00:	e2432004 	sub	r2, r3, #4
30005f04:	e51b300c 	ldr	r3, [fp, #-12]
30005f08:	e5832010 	str	r2, [r3, #16]
    *pq->OSQOut = msg;                             
30005f0c:	e51b300c 	ldr	r3, [fp, #-12]
30005f10:	e5933010 	ldr	r3, [r3, #16]
30005f14:	e51b2014 	ldr	r2, [fp, #-20]	@ 0xffffffec
30005f18:	e5832000 	str	r2, [r3]
    pq->OSQEntries++;                            
30005f1c:	e51b300c 	ldr	r3, [fp, #-12]
30005f20:	e1d331b6 	ldrh	r3, [r3, #22]
30005f24:	e2833001 	add	r3, r3, #1
30005f28:	e1a03803 	lsl	r3, r3, #16
30005f2c:	e1a02823 	lsr	r2, r3, #16
30005f30:	e51b300c 	ldr	r3, [fp, #-12]
30005f34:	e1c321b6 	strh	r2, [r3, #22]
    OS_EXIT_CRITICAL();
30005f38:	e51b0008 	ldr	r0, [fp, #-8]
30005f3c:	ebffe8f8 	bl	30000324 <OS_CPU_SR_Restore>
    return (OS_NO_ERR);
30005f40:	e3a03000 	mov	r3, #0
}
30005f44:	e1a00003 	mov	r0, r3
30005f48:	e24bd004 	sub	sp, fp, #4
30005f4c:	e8bd4800 	pop	{fp, lr}
30005f50:	e12fff1e 	bx	lr

30005f54 <OSQPostOpt>:
* :
* - 
*********************************************************************************************************
*/
INT8U  OSQPostOpt (OS_EVENT *pevent, void *msg, INT8U opt)
{
30005f54:	e52db004 	push	{fp}		@ (str fp, [sp, #-4]!)
30005f58:	e28db000 	add	fp, sp, #0
30005f5c:	e24dd014 	sub	sp, sp, #20
30005f60:	e50b0008 	str	r0, [fp, #-8]
30005f64:	e50b100c 	str	r1, [fp, #-12]
30005f68:	e1a03002 	mov	r3, r2
30005f6c:	e54b300d 	strb	r3, [fp, #-13]
    //
    return (OS_NO_ERR);
30005f70:	e3a03000 	mov	r3, #0
}
30005f74:	e1a00003 	mov	r0, r3
30005f78:	e28bd000 	add	sp, fp, #0
30005f7c:	e49db004 	pop	{fp}		@ (ldr fp, [sp], #4)
30005f80:	e12fff1e 	bx	lr

30005f84 <OSQQuery>:
* :
* - 
*********************************************************************************************************
*/
INT8U  OSQQuery (OS_EVENT *pevent, OS_Q_DATA *pdata)
{
30005f84:	e92d4800 	push	{fp, lr}
30005f88:	e28db004 	add	fp, sp, #4
30005f8c:	e24dd010 	sub	sp, sp, #16
30005f90:	e50b0010 	str	r0, [fp, #-16]
30005f94:	e50b1014 	str	r1, [fp, #-20]	@ 0xffffffec
    OS_CPU_SR  cpu_sr;
    OS_Q      *pq;

    if (pevent == (OS_EVENT *)0) {                         
30005f98:	e51b3010 	ldr	r3, [fp, #-16]
30005f9c:	e3530000 	cmp	r3, #0
30005fa0:	1a000001 	bne	30005fac <OSQQuery+0x28>
        return (OS_ERR_PEVENT_NULL);
30005fa4:	e3a03004 	mov	r3, #4
30005fa8:	ea00002d 	b	30006064 <OSQQuery+0xe0>
    }
    if (pevent->OSEventType != OS_EVENT_TYPE_Q) {          
30005fac:	e51b3010 	ldr	r3, [fp, #-16]
30005fb0:	e5d33000 	ldrb	r3, [r3]
30005fb4:	e3530002 	cmp	r3, #2
30005fb8:	0a000001 	beq	30005fc4 <OSQQuery+0x40>
        return (OS_ERR_EVENT_TYPE);
30005fbc:	e3a03001 	mov	r3, #1
30005fc0:	ea000027 	b	30006064 <OSQQuery+0xe0>
    }

    OS_ENTER_CRITICAL();
30005fc4:	ebffe8d2 	bl	30000314 <OS_CPU_SR_Save>
30005fc8:	e50b0008 	str	r0, [fp, #-8]
    pdata->OSEventGrp = pevent->OSEventGrp;                
30005fcc:	e51b3010 	ldr	r3, [fp, #-16]
30005fd0:	e5d32001 	ldrb	r2, [r3, #1]
30005fd4:	e51b3014 	ldr	r3, [fp, #-20]	@ 0xffffffec
30005fd8:	e5c32010 	strb	r2, [r3, #16]
    memcpy(&pdata->OSEventTbl[0], &pevent->OSEventTbl[0], sizeof(pdata->OSEventTbl));
30005fdc:	e51b3014 	ldr	r3, [fp, #-20]	@ 0xffffffec
30005fe0:	e2830008 	add	r0, r3, #8
30005fe4:	e51b3010 	ldr	r3, [fp, #-16]
30005fe8:	e283300c 	add	r3, r3, #12
30005fec:	e3a02008 	mov	r2, #8
30005ff0:	e1a01003 	mov	r1, r3
30005ff4:	eb000668 	bl	3000799c <memcpy>
    pq = (OS_Q *)pevent->OSEventPtr;
30005ff8:	e51b3010 	ldr	r3, [fp, #-16]
30005ffc:	e5933004 	ldr	r3, [r3, #4]
30006000:	e50b300c 	str	r3, [fp, #-12]
    if (pq->OSQEntries > 0) {
30006004:	e51b300c 	ldr	r3, [fp, #-12]
30006008:	e1d331b6 	ldrh	r3, [r3, #22]
3000600c:	e3530000 	cmp	r3, #0
30006010:	0a000005 	beq	3000602c <OSQQuery+0xa8>
        pdata->OSMsg = *pq->OSQOut;                       
30006014:	e51b300c 	ldr	r3, [fp, #-12]
30006018:	e5933010 	ldr	r3, [r3, #16]
3000601c:	e5932000 	ldr	r2, [r3]
30006020:	e51b3014 	ldr	r3, [fp, #-20]	@ 0xffffffec
30006024:	e5832000 	str	r2, [r3]
30006028:	ea000002 	b	30006038 <OSQQuery+0xb4>
    } else {
        pdata->OSMsg = (void *)0;
3000602c:	e51b3014 	ldr	r3, [fp, #-20]	@ 0xffffffec
30006030:	e3a02000 	mov	r2, #0
30006034:	e5832000 	str	r2, [r3]
    }
    pdata->OSNMsgs = pq->OSQEntries;
30006038:	e51b300c 	ldr	r3, [fp, #-12]
3000603c:	e1d321b6 	ldrh	r2, [r3, #22]
30006040:	e51b3014 	ldr	r3, [fp, #-20]	@ 0xffffffec
30006044:	e1c320b4 	strh	r2, [r3, #4]
    pdata->OSQSize = pq->OSQSize;
30006048:	e51b300c 	ldr	r3, [fp, #-12]
3000604c:	e1d321b4 	ldrh	r2, [r3, #20]
30006050:	e51b3014 	ldr	r3, [fp, #-20]	@ 0xffffffec
30006054:	e1c320b6 	strh	r2, [r3, #6]
    OS_EXIT_CRITICAL();
30006058:	e51b0008 	ldr	r0, [fp, #-8]
3000605c:	ebffe8b0 	bl	30000324 <OS_CPU_SR_Restore>
    return (OS_NO_ERR);
30006060:	e3a03000 	mov	r3, #0
}
30006064:	e1a00003 	mov	r0, r3
30006068:	e24bd004 	sub	sp, fp, #4
3000606c:	e8bd4800 	pop	{fp, lr}
30006070:	e12fff1e 	bx	lr

30006074 <OS_QInit>:
* :
* -  OSInit 
*********************************************************************************************************
*/
void  OS_QInit (void)
{
30006074:	e52db004 	push	{fp}		@ (str fp, [sp, #-4]!)
30006078:	e28db000 	add	fp, sp, #0
#if OS_MAX_QS == 1
    OSQFreeList = &OSQTbl[0];
3000607c:	e59f3024 	ldr	r3, [pc, #36]	@ 300060a8 <OS_QInit+0x34>
30006080:	e59f2024 	ldr	r2, [pc, #36]	@ 300060ac <OS_QInit+0x38>
30006084:	e5832000 	str	r2, [r3]
    OSQFreeList->OSQPtr = (OS_Q *)0;
30006088:	e59f3018 	ldr	r3, [pc, #24]	@ 300060a8 <OS_QInit+0x34>
3000608c:	e5933000 	ldr	r3, [r3]
30006090:	e3a02000 	mov	r2, #0
30006094:	e5832000 	str	r2, [r3]
        pq2++;
    }
    pq1->OSQPtr = (OS_Q *)0;
    OSQFreeList = &OSQTbl[0];
#endif
}
30006098:	e1a00000 	nop			@ (mov r0, r0)
3000609c:	e28bd000 	add	sp, fp, #0
300060a0:	e49db004 	pop	{fp}		@ (ldr fp, [sp], #4)
300060a4:	e12fff1e 	bx	lr
300060a8:	3000b5d0 	.word	0x3000b5d0
300060ac:	3000b5d4 	.word	0x3000b5d4

300060b0 <OSSemAccept>:
* :
* - 
*********************************************************************************************************
*/
INT16U  OSSemAccept (OS_EVENT *pevent)
{
300060b0:	e92d4800 	push	{fp, lr}
300060b4:	e28db004 	add	fp, sp, #4
300060b8:	e24dd010 	sub	sp, sp, #16
300060bc:	e50b0010 	str	r0, [fp, #-16]
    OS_CPU_SR cpu_sr;
    INT16U cnt;
    if(pevent == (OS_EVENT *)0){
300060c0:	e51b3010 	ldr	r3, [fp, #-16]
300060c4:	e3530000 	cmp	r3, #0
300060c8:	1a000001 	bne	300060d4 <OSSemAccept+0x24>
        return 0;
300060cc:	e3a03000 	mov	r3, #0
300060d0:	ea000015 	b	3000612c <OSSemAccept+0x7c>
    }
    if(pevent->OSEventType != OS_EVENT_TYPE_SEM){
300060d4:	e51b3010 	ldr	r3, [fp, #-16]
300060d8:	e5d33000 	ldrb	r3, [r3]
300060dc:	e3530003 	cmp	r3, #3
300060e0:	0a000001 	beq	300060ec <OSSemAccept+0x3c>
        return 0;
300060e4:	e3a03000 	mov	r3, #0
300060e8:	ea00000f 	b	3000612c <OSSemAccept+0x7c>
    }
    OS_ENTER_CRITICAL();
300060ec:	ebffe888 	bl	30000314 <OS_CPU_SR_Save>
300060f0:	e50b0008 	str	r0, [fp, #-8]
    cnt = pevent->OSEventCnt;
300060f4:	e51b3010 	ldr	r3, [fp, #-16]
300060f8:	e5933008 	ldr	r3, [r3, #8]
300060fc:	e14b30ba 	strh	r3, [fp, #-10]
    if(cnt > 0){
30006100:	e15b30ba 	ldrh	r3, [fp, #-10]
30006104:	e3530000 	cmp	r3, #0
30006108:	0a000004 	beq	30006120 <OSSemAccept+0x70>
        pevent->OSEventCnt--;
3000610c:	e51b3010 	ldr	r3, [fp, #-16]
30006110:	e5933008 	ldr	r3, [r3, #8]
30006114:	e2432001 	sub	r2, r3, #1
30006118:	e51b3010 	ldr	r3, [fp, #-16]
3000611c:	e5832008 	str	r2, [r3, #8]
    }
    OS_EXIT_CRITICAL();
30006120:	e51b0008 	ldr	r0, [fp, #-8]
30006124:	ebffe87e 	bl	30000324 <OS_CPU_SR_Restore>
    return cnt;
30006128:	e15b30ba 	ldrh	r3, [fp, #-10]
}
3000612c:	e1a00003 	mov	r0, r3
30006130:	e24bd004 	sub	sp, fp, #4
30006134:	e8bd4800 	pop	{fp, lr}
30006138:	e12fff1e 	bx	lr

3000613c <OSSemCreate>:
* :
* - 
*********************************************************************************************************
*/
OS_EVENT  *OSSemCreate (INT16U cnt)
{
3000613c:	e92d4800 	push	{fp, lr}
30006140:	e28db004 	add	fp, sp, #4
30006144:	e24dd010 	sub	sp, sp, #16
30006148:	e1a03000 	mov	r3, r0
3000614c:	e14b30be 	strh	r3, [fp, #-14]
    OS_CPU_SR cpu_sr;
    OS_EVENT  *pevent;
    //
    if(OSIntNesting > 0){
30006150:	e59f309c 	ldr	r3, [pc, #156]	@ 300061f4 <OSSemCreate+0xb8>
30006154:	e5d33000 	ldrb	r3, [r3]
30006158:	e3530000 	cmp	r3, #0
3000615c:	0a000001 	beq	30006168 <OSSemCreate+0x2c>
        return((OS_EVENT *)0);
30006160:	e3a03000 	mov	r3, #0
30006164:	ea00001e 	b	300061e4 <OSSemCreate+0xa8>
    }
    OS_ENTER_CRITICAL();
30006168:	ebffe869 	bl	30000314 <OS_CPU_SR_Save>
3000616c:	e50b0008 	str	r0, [fp, #-8]
    pevent = OSEventFreeList;                                     // OSEventFreeList Apevent
30006170:	e59f3080 	ldr	r3, [pc, #128]	@ 300061f8 <OSSemCreate+0xbc>
30006174:	e5933000 	ldr	r3, [r3]
30006178:	e50b300c 	str	r3, [fp, #-12]
    if(OSEventFreeList != (OS_EVENT *)0){
3000617c:	e59f3074 	ldr	r3, [pc, #116]	@ 300061f8 <OSSemCreate+0xbc>
30006180:	e5933000 	ldr	r3, [r3]
30006184:	e3530000 	cmp	r3, #0
30006188:	0a000004 	beq	300061a0 <OSSemCreate+0x64>
        OSEventFreeList = (OS_EVENT *)OSEventFreeList->OSEventPtr;// OSEventFreeList AB
3000618c:	e59f3064 	ldr	r3, [pc, #100]	@ 300061f8 <OSSemCreate+0xbc>
30006190:	e5933000 	ldr	r3, [r3]
30006194:	e5933004 	ldr	r3, [r3, #4]
30006198:	e59f2058 	ldr	r2, [pc, #88]	@ 300061f8 <OSSemCreate+0xbc>
3000619c:	e5823000 	str	r3, [r2]
    }
    OS_EXIT_CRITICAL();
300061a0:	e51b0008 	ldr	r0, [fp, #-8]
300061a4:	ebffe85e 	bl	30000324 <OS_CPU_SR_Restore>
    if(pevent != (OS_EVENT *)0){
300061a8:	e51b300c 	ldr	r3, [fp, #-12]
300061ac:	e3530000 	cmp	r3, #0
300061b0:	0a00000a 	beq	300061e0 <OSSemCreate+0xa4>
        pevent->OSEventType = OS_EVENT_TYPE_SEM;
300061b4:	e51b300c 	ldr	r3, [fp, #-12]
300061b8:	e3a02003 	mov	r2, #3
300061bc:	e5c32000 	strb	r2, [r3]
        pevent->OSEventCnt = cnt;       //  55
300061c0:	e15b20be 	ldrh	r2, [fp, #-14]
300061c4:	e51b300c 	ldr	r3, [fp, #-12]
300061c8:	e5832008 	str	r2, [r3, #8]
        pevent->OSEventPtr = (void *)0; // 
300061cc:	e51b300c 	ldr	r3, [fp, #-12]
300061d0:	e3a02000 	mov	r2, #0
300061d4:	e5832004 	str	r2, [r3, #4]
        OS_EventWaitListInit(pevent);//pevent->OSEventGrp\pevent->OSEventTbl
300061d8:	e51b000c 	ldr	r0, [fp, #-12]
300061dc:	ebfff144 	bl	300026f4 <OS_EventWaitListInit>
    }
    return (pevent);
300061e0:	e51b300c 	ldr	r3, [fp, #-12]
}
300061e4:	e1a00003 	mov	r0, r3
300061e8:	e24bd004 	sub	sp, fp, #4
300061ec:	e8bd4800 	pop	{fp, lr}
300061f0:	e12fff1e 	bx	lr
300061f4:	3000aa6c 	.word	0x3000aa6c
300061f8:	3000b590 	.word	0x3000b590

300061fc <OSSemDel>:
* :
* - 
*********************************************************************************************************
*/
OS_EVENT  *OSSemDel (OS_EVENT *pevent, INT8U opt, INT8U *err)
{
300061fc:	e92d4800 	push	{fp, lr}
30006200:	e28db004 	add	fp, sp, #4
30006204:	e24dd018 	sub	sp, sp, #24
30006208:	e50b0010 	str	r0, [fp, #-16]
3000620c:	e1a03001 	mov	r3, r1
30006210:	e50b2018 	str	r2, [fp, #-24]	@ 0xffffffe8
30006214:	e54b3011 	strb	r3, [fp, #-17]	@ 0xffffffef
    OS_CPU_SR  cpu_sr;  
    BOOLEAN    tasks_waiting;


    if (OSIntNesting > 0) {                                /* See if called from ISR ...               */
30006218:	e59f31ac 	ldr	r3, [pc, #428]	@ 300063cc <OSSemDel+0x1d0>
3000621c:	e5d33000 	ldrb	r3, [r3]
30006220:	e3530000 	cmp	r3, #0
30006224:	0a000004 	beq	3000623c <OSSemDel+0x40>
        *err = OS_ERR_DEL_ISR;                             /* ... can't DELETE from an ISR             */
30006228:	e51b3018 	ldr	r3, [fp, #-24]	@ 0xffffffe8
3000622c:	e3e02073 	mvn	r2, #115	@ 0x73
30006230:	e5c32000 	strb	r2, [r3]
        return (pevent);
30006234:	e51b3010 	ldr	r3, [fp, #-16]
30006238:	ea00005f 	b	300063bc <OSSemDel+0x1c0>
    }

    if (pevent == (OS_EVENT *)0) {                         /* Validate 'pevent'                        */
3000623c:	e51b3010 	ldr	r3, [fp, #-16]
30006240:	e3530000 	cmp	r3, #0
30006244:	1a000004 	bne	3000625c <OSSemDel+0x60>
        *err = OS_ERR_PEVENT_NULL;
30006248:	e51b3018 	ldr	r3, [fp, #-24]	@ 0xffffffe8
3000624c:	e3a02004 	mov	r2, #4
30006250:	e5c32000 	strb	r2, [r3]
        return (pevent);
30006254:	e51b3010 	ldr	r3, [fp, #-16]
30006258:	ea000057 	b	300063bc <OSSemDel+0x1c0>
    }
    if (pevent->OSEventType != OS_EVENT_TYPE_SEM) {        /* Validate event block type                */
3000625c:	e51b3010 	ldr	r3, [fp, #-16]
30006260:	e5d33000 	ldrb	r3, [r3]
30006264:	e3530003 	cmp	r3, #3
30006268:	0a000004 	beq	30006280 <OSSemDel+0x84>
        *err = OS_ERR_EVENT_TYPE;
3000626c:	e51b3018 	ldr	r3, [fp, #-24]	@ 0xffffffe8
30006270:	e3a02001 	mov	r2, #1
30006274:	e5c32000 	strb	r2, [r3]
        return (pevent);
30006278:	e51b3010 	ldr	r3, [fp, #-16]
3000627c:	ea00004e 	b	300063bc <OSSemDel+0x1c0>
    }

    OS_ENTER_CRITICAL();
30006280:	ebffe823 	bl	30000314 <OS_CPU_SR_Save>
30006284:	e50b000c 	str	r0, [fp, #-12]
    if (pevent->OSEventGrp != 0x00) {                      /* See if any tasks waiting on semaphore    */
30006288:	e51b3010 	ldr	r3, [fp, #-16]
3000628c:	e5d33001 	ldrb	r3, [r3, #1]
30006290:	e3530000 	cmp	r3, #0
30006294:	0a000002 	beq	300062a4 <OSSemDel+0xa8>
        tasks_waiting = TRUE;                              /* Yes                                      */
30006298:	e3a03001 	mov	r3, #1
3000629c:	e54b3005 	strb	r3, [fp, #-5]
300062a0:	ea000001 	b	300062ac <OSSemDel+0xb0>
    } else {
        tasks_waiting = FALSE;                             /* No                                       */
300062a4:	e3a03000 	mov	r3, #0
300062a8:	e54b3005 	strb	r3, [fp, #-5]
    }
    switch (opt) {
300062ac:	e55b3011 	ldrb	r3, [fp, #-17]	@ 0xffffffef
300062b0:	e3530000 	cmp	r3, #0
300062b4:	0a000002 	beq	300062c4 <OSSemDel+0xc8>
300062b8:	e3530001 	cmp	r3, #1
300062bc:	0a00001f 	beq	30006340 <OSSemDel+0x144>
300062c0:	ea000037 	b	300063a4 <OSSemDel+0x1a8>
        case OS_DEL_NO_PEND:                               /* Delete semaphore only if no task waiting */
             if (tasks_waiting == FALSE) {
300062c4:	e55b3005 	ldrb	r3, [fp, #-5]
300062c8:	e3530000 	cmp	r3, #0
300062cc:	1a000010 	bne	30006314 <OSSemDel+0x118>
                 pevent->OSEventType = OS_EVENT_TYPE_UNUSED;
300062d0:	e51b3010 	ldr	r3, [fp, #-16]
300062d4:	e3a02000 	mov	r2, #0
300062d8:	e5c32000 	strb	r2, [r3]
                 pevent->OSEventPtr  = OSEventFreeList;    /* Return Event Control Block to free list  */
300062dc:	e59f30ec 	ldr	r3, [pc, #236]	@ 300063d0 <OSSemDel+0x1d4>
300062e0:	e5932000 	ldr	r2, [r3]
300062e4:	e51b3010 	ldr	r3, [fp, #-16]
300062e8:	e5832004 	str	r2, [r3, #4]
                 OSEventFreeList     = pevent;             /* Get next free event control block        */
300062ec:	e59f20dc 	ldr	r2, [pc, #220]	@ 300063d0 <OSSemDel+0x1d4>
300062f0:	e51b3010 	ldr	r3, [fp, #-16]
300062f4:	e5823000 	str	r3, [r2]
                 OS_EXIT_CRITICAL();
300062f8:	e51b000c 	ldr	r0, [fp, #-12]
300062fc:	ebffe808 	bl	30000324 <OS_CPU_SR_Restore>
                 *err = OS_NO_ERR;
30006300:	e51b3018 	ldr	r3, [fp, #-24]	@ 0xffffffe8
30006304:	e3a02000 	mov	r2, #0
30006308:	e5c32000 	strb	r2, [r3]
                 return ((OS_EVENT *)0);                   /* Semaphore has been deleted               */
3000630c:	e3a03000 	mov	r3, #0
30006310:	ea000029 	b	300063bc <OSSemDel+0x1c0>
             } else {
                 OS_EXIT_CRITICAL();
30006314:	e51b000c 	ldr	r0, [fp, #-12]
30006318:	ebffe801 	bl	30000324 <OS_CPU_SR_Restore>
                 *err = OS_ERR_TASK_WAITING;
3000631c:	e51b3018 	ldr	r3, [fp, #-24]	@ 0xffffffe8
30006320:	e3a02008 	mov	r2, #8
30006324:	e5c32000 	strb	r2, [r3]
                 return (pevent);
30006328:	e51b3010 	ldr	r3, [fp, #-16]
3000632c:	ea000022 	b	300063bc <OSSemDel+0x1c0>
             }

        case OS_DEL_ALWAYS:                                /* Always delete the semaphore              */
             while (pevent->OSEventGrp != 0x00) {          /* Ready ALL tasks waiting for semaphore    */
                 OS_EventTaskRdy(pevent, (void *)0, OS_STAT_SEM);
30006330:	e3a02001 	mov	r2, #1
30006334:	e3a01000 	mov	r1, #0
30006338:	e51b0010 	ldr	r0, [fp, #-16]
3000633c:	ebffefdc 	bl	300022b4 <OS_EventTaskRdy>
             while (pevent->OSEventGrp != 0x00) {          /* Ready ALL tasks waiting for semaphore    */
30006340:	e51b3010 	ldr	r3, [fp, #-16]
30006344:	e5d33001 	ldrb	r3, [r3, #1]
30006348:	e3530000 	cmp	r3, #0
3000634c:	1afffff7 	bne	30006330 <OSSemDel+0x134>
             }
             pevent->OSEventType = OS_EVENT_TYPE_UNUSED;
30006350:	e51b3010 	ldr	r3, [fp, #-16]
30006354:	e3a02000 	mov	r2, #0
30006358:	e5c32000 	strb	r2, [r3]
             pevent->OSEventPtr  = OSEventFreeList;        /* Return Event Control Block to free list  */
3000635c:	e59f306c 	ldr	r3, [pc, #108]	@ 300063d0 <OSSemDel+0x1d4>
30006360:	e5932000 	ldr	r2, [r3]
30006364:	e51b3010 	ldr	r3, [fp, #-16]
30006368:	e5832004 	str	r2, [r3, #4]
             OSEventFreeList     = pevent;                 /* Get next free event control block        */
3000636c:	e59f205c 	ldr	r2, [pc, #92]	@ 300063d0 <OSSemDel+0x1d4>
30006370:	e51b3010 	ldr	r3, [fp, #-16]
30006374:	e5823000 	str	r3, [r2]
             OS_EXIT_CRITICAL();
30006378:	e51b000c 	ldr	r0, [fp, #-12]
3000637c:	ebffe7e8 	bl	30000324 <OS_CPU_SR_Restore>
             if (tasks_waiting == TRUE) {                  /* Reschedule only if task(s) were waiting  */
30006380:	e55b3005 	ldrb	r3, [fp, #-5]
30006384:	e3530001 	cmp	r3, #1
30006388:	1a000000 	bne	30006390 <OSSemDel+0x194>
                 OS_Sched();                               /* Find highest priority task ready to run  */
3000638c:	ebfff12e 	bl	3000284c <OS_Sched>
             }
             *err = OS_NO_ERR;
30006390:	e51b3018 	ldr	r3, [fp, #-24]	@ 0xffffffe8
30006394:	e3a02000 	mov	r2, #0
30006398:	e5c32000 	strb	r2, [r3]
             return ((OS_EVENT *)0);                       /* Semaphore has been deleted               */
3000639c:	e3a03000 	mov	r3, #0
300063a0:	ea000005 	b	300063bc <OSSemDel+0x1c0>

        default:
             OS_EXIT_CRITICAL();
300063a4:	e51b000c 	ldr	r0, [fp, #-12]
300063a8:	ebffe7dd 	bl	30000324 <OS_CPU_SR_Restore>
             *err = OS_ERR_INVALID_OPT;
300063ac:	e51b3018 	ldr	r3, [fp, #-24]	@ 0xffffffe8
300063b0:	e3a02007 	mov	r2, #7
300063b4:	e5c32000 	strb	r2, [r3]
             return (pevent);
300063b8:	e51b3010 	ldr	r3, [fp, #-16]
    }
}
300063bc:	e1a00003 	mov	r0, r3
300063c0:	e24bd004 	sub	sp, fp, #4
300063c4:	e8bd4800 	pop	{fp, lr}
300063c8:	e12fff1e 	bx	lr
300063cc:	3000aa6c 	.word	0x3000aa6c
300063d0:	3000b590 	.word	0x3000b590

300063d4 <OSSemPend>:
* :
* - 
*********************************************************************************************************
*/
void  OSSemPend (OS_EVENT *pevent, INT16U timeout, INT8U *err)
{
300063d4:	e92d4800 	push	{fp, lr}
300063d8:	e28db004 	add	fp, sp, #4
300063dc:	e24dd018 	sub	sp, sp, #24
300063e0:	e50b0010 	str	r0, [fp, #-16]
300063e4:	e1a03001 	mov	r3, r1
300063e8:	e50b2018 	str	r2, [fp, #-24]	@ 0xffffffe8
300063ec:	e14b31b2 	strh	r3, [fp, #-18]	@ 0xffffffee
    OS_CPU_SR  cpu_sr;  
    if (OSIntNesting > 0) {                           /* See if called from ISR ...                    */
300063f0:	e59f314c 	ldr	r3, [pc, #332]	@ 30006544 <OSSemPend+0x170>
300063f4:	e5d33000 	ldrb	r3, [r3]
300063f8:	e3530000 	cmp	r3, #0
300063fc:	0a000003 	beq	30006410 <OSSemPend+0x3c>
        *err = OS_ERR_PEND_ISR;                       /* ... can't PEND from an ISR                    */
30006400:	e51b3018 	ldr	r3, [fp, #-24]	@ 0xffffffe8
30006404:	e3a02002 	mov	r2, #2
30006408:	e5c32000 	strb	r2, [r3]
        return;
3000640c:	ea000049 	b	30006538 <OSSemPend+0x164>
    }
    if (pevent == (OS_EVENT *)0) {                    /* Validate 'pevent'                             */
30006410:	e51b3010 	ldr	r3, [fp, #-16]
30006414:	e3530000 	cmp	r3, #0
30006418:	1a000003 	bne	3000642c <OSSemPend+0x58>
        *err = OS_ERR_PEVENT_NULL;
3000641c:	e51b3018 	ldr	r3, [fp, #-24]	@ 0xffffffe8
30006420:	e3a02004 	mov	r2, #4
30006424:	e5c32000 	strb	r2, [r3]
        return;
30006428:	ea000042 	b	30006538 <OSSemPend+0x164>
    }
    if (pevent->OSEventType != OS_EVENT_TYPE_SEM) {   /* Validate event block type                     */
3000642c:	e51b3010 	ldr	r3, [fp, #-16]
30006430:	e5d33000 	ldrb	r3, [r3]
30006434:	e3530003 	cmp	r3, #3
30006438:	0a000003 	beq	3000644c <OSSemPend+0x78>
        *err = OS_ERR_EVENT_TYPE;
3000643c:	e51b3018 	ldr	r3, [fp, #-24]	@ 0xffffffe8
30006440:	e3a02001 	mov	r2, #1
30006444:	e5c32000 	strb	r2, [r3]
        return;
30006448:	ea00003a 	b	30006538 <OSSemPend+0x164>
    }
    OS_ENTER_CRITICAL();
3000644c:	ebffe7b0 	bl	30000314 <OS_CPU_SR_Save>
30006450:	e50b0008 	str	r0, [fp, #-8]
    if (pevent->OSEventCnt > 0) {                     /* If sem. is positive, resource available ...   */
30006454:	e51b3010 	ldr	r3, [fp, #-16]
30006458:	e5933008 	ldr	r3, [r3, #8]
3000645c:	e3530000 	cmp	r3, #0
30006460:	0a00000a 	beq	30006490 <OSSemPend+0xbc>
        pevent->OSEventCnt--;                         /* ... decrement semaphore only if positive.     */
30006464:	e51b3010 	ldr	r3, [fp, #-16]
30006468:	e5933008 	ldr	r3, [r3, #8]
3000646c:	e2432001 	sub	r2, r3, #1
30006470:	e51b3010 	ldr	r3, [fp, #-16]
30006474:	e5832008 	str	r2, [r3, #8]
        OS_EXIT_CRITICAL();
30006478:	e51b0008 	ldr	r0, [fp, #-8]
3000647c:	ebffe7a8 	bl	30000324 <OS_CPU_SR_Restore>
        *err = OS_NO_ERR;
30006480:	e51b3018 	ldr	r3, [fp, #-24]	@ 0xffffffe8
30006484:	e3a02000 	mov	r2, #0
30006488:	e5c32000 	strb	r2, [r3]
        return;
3000648c:	ea000029 	b	30006538 <OSSemPend+0x164>
    }
                                                      /* Otherwise, must wait until event occurs       */
    OSTCBCur->OSTCBStat |= OS_STAT_SEM;               /* Resource not available, pend on semaphore     */
30006490:	e59f30b0 	ldr	r3, [pc, #176]	@ 30006548 <OSSemPend+0x174>
30006494:	e5933000 	ldr	r3, [r3]
30006498:	e5d3201f 	ldrb	r2, [r3, #31]
3000649c:	e59f30a4 	ldr	r3, [pc, #164]	@ 30006548 <OSSemPend+0x174>
300064a0:	e5933000 	ldr	r3, [r3]
300064a4:	e3822001 	orr	r2, r2, #1
300064a8:	e20220ff 	and	r2, r2, #255	@ 0xff
300064ac:	e5c3201f 	strb	r2, [r3, #31]
    OSTCBCur->OSTCBDly   = timeout;                   /* Store pend timeout in TCB                     */
300064b0:	e59f3090 	ldr	r3, [pc, #144]	@ 30006548 <OSSemPend+0x174>
300064b4:	e5933000 	ldr	r3, [r3]
300064b8:	e15b21b2 	ldrh	r2, [fp, #-18]	@ 0xffffffee
300064bc:	e1c321bc 	strh	r2, [r3, #28]
    OS_EventTaskWait(pevent);                         /* Suspend task until event or timeout occurs    */
300064c0:	e51b0010 	ldr	r0, [fp, #-16]
300064c4:	ebffefee 	bl	30002484 <OS_EventTaskWait>
    OS_EXIT_CRITICAL();
300064c8:	e51b0008 	ldr	r0, [fp, #-8]
300064cc:	ebffe794 	bl	30000324 <OS_CPU_SR_Restore>
    OS_Sched();                                       /* Find next highest priority task ready         */
300064d0:	ebfff0dd 	bl	3000284c <OS_Sched>
    OS_ENTER_CRITICAL();
300064d4:	ebffe78e 	bl	30000314 <OS_CPU_SR_Save>
300064d8:	e50b0008 	str	r0, [fp, #-8]
    if (OSTCBCur->OSTCBStat & OS_STAT_SEM) {          /* Must have timed out if still waiting for event*/
300064dc:	e59f3064 	ldr	r3, [pc, #100]	@ 30006548 <OSSemPend+0x174>
300064e0:	e5933000 	ldr	r3, [r3]
300064e4:	e5d3301f 	ldrb	r3, [r3, #31]
300064e8:	e2033001 	and	r3, r3, #1
300064ec:	e3530000 	cmp	r3, #0
300064f0:	0a000007 	beq	30006514 <OSSemPend+0x140>
        OS_EventTO(pevent);
300064f4:	e51b0010 	ldr	r0, [fp, #-16]
300064f8:	ebfff03a 	bl	300025e8 <OS_EventTO>
        OS_EXIT_CRITICAL();
300064fc:	e51b0008 	ldr	r0, [fp, #-8]
30006500:	ebffe787 	bl	30000324 <OS_CPU_SR_Restore>
        *err = OS_TIMEOUT;                            /* Indicate that didn't get event within TO      */
30006504:	e51b3018 	ldr	r3, [fp, #-24]	@ 0xffffffe8
30006508:	e3a0200a 	mov	r2, #10
3000650c:	e5c32000 	strb	r2, [r3]
        return;
30006510:	ea000008 	b	30006538 <OSSemPend+0x164>
    }
    OSTCBCur->OSTCBEventPtr = (OS_EVENT *)0;
30006514:	e59f302c 	ldr	r3, [pc, #44]	@ 30006548 <OSSemPend+0x174>
30006518:	e5933000 	ldr	r3, [r3]
3000651c:	e3a02000 	mov	r2, #0
30006520:	e583200c 	str	r2, [r3, #12]
    OS_EXIT_CRITICAL();
30006524:	e51b0008 	ldr	r0, [fp, #-8]
30006528:	ebffe77d 	bl	30000324 <OS_CPU_SR_Restore>
    *err = OS_NO_ERR;
3000652c:	e51b3018 	ldr	r3, [fp, #-24]	@ 0xffffffe8
30006530:	e3a02000 	mov	r2, #0
30006534:	e5c32000 	strb	r2, [r3]
}
30006538:	e24bd004 	sub	sp, fp, #4
3000653c:	e8bd4800 	pop	{fp, lr}
30006540:	e12fff1e 	bx	lr
30006544:	3000aa6c 	.word	0x3000aa6c
30006548:	3000b394 	.word	0x3000b394

3000654c <OSSemPost>:
* :
* - 
*********************************************************************************************************
*/
INT8U  OSSemPost (OS_EVENT *pevent)
{
3000654c:	e92d4800 	push	{fp, lr}
30006550:	e28db004 	add	fp, sp, #4
30006554:	e24dd010 	sub	sp, sp, #16
30006558:	e50b0010 	str	r0, [fp, #-16]
    OS_CPU_SR cpu_sr;
    if(pevent == (OS_EVENT *)0){
3000655c:	e51b3010 	ldr	r3, [fp, #-16]
30006560:	e3530000 	cmp	r3, #0
30006564:	1a000001 	bne	30006570 <OSSemPost+0x24>
        return (OS_ERR_PEVENT_NULL);
30006568:	e3a03004 	mov	r3, #4
3000656c:	ea000025 	b	30006608 <OSSemPost+0xbc>
    }
    if(pevent->OSEventType != OS_EVENT_TYPE_SEM){
30006570:	e51b3010 	ldr	r3, [fp, #-16]
30006574:	e5d33000 	ldrb	r3, [r3]
30006578:	e3530003 	cmp	r3, #3
3000657c:	0a000001 	beq	30006588 <OSSemPost+0x3c>
        return (OS_ERR_EVENT_TYPE);
30006580:	e3a03001 	mov	r3, #1
30006584:	ea00001f 	b	30006608 <OSSemPost+0xbc>
    }

    OS_ENTER_CRITICAL();
30006588:	ebffe761 	bl	30000314 <OS_CPU_SR_Save>
3000658c:	e50b0008 	str	r0, [fp, #-8]
    if(pevent->OSEventGrp != 0x00){
30006590:	e51b3010 	ldr	r3, [fp, #-16]
30006594:	e5d33001 	ldrb	r3, [r3, #1]
30006598:	e3530000 	cmp	r3, #0
3000659c:	0a000008 	beq	300065c4 <OSSemPost+0x78>
        OS_EventTaskRdy(pevent, (void *)0, OS_STAT_SEM);
300065a0:	e3a02001 	mov	r2, #1
300065a4:	e3a01000 	mov	r1, #0
300065a8:	e51b0010 	ldr	r0, [fp, #-16]
300065ac:	ebffef40 	bl	300022b4 <OS_EventTaskRdy>
        OS_EXIT_CRITICAL();
300065b0:	e51b0008 	ldr	r0, [fp, #-8]
300065b4:	ebffe75a 	bl	30000324 <OS_CPU_SR_Restore>
        OS_Sched();
300065b8:	ebfff0a3 	bl	3000284c <OS_Sched>
        return (OS_NO_ERR);
300065bc:	e3a03000 	mov	r3, #0
300065c0:	ea000010 	b	30006608 <OSSemPost+0xbc>
    }
    if(pevent->OSEventCnt < 65535){
300065c4:	e51b3010 	ldr	r3, [fp, #-16]
300065c8:	e5933008 	ldr	r3, [r3, #8]
300065cc:	e59f2044 	ldr	r2, [pc, #68]	@ 30006618 <OSSemPost+0xcc>
300065d0:	e1530002 	cmp	r3, r2
300065d4:	8a000008 	bhi	300065fc <OSSemPost+0xb0>
        pevent->OSEventCnt++;
300065d8:	e51b3010 	ldr	r3, [fp, #-16]
300065dc:	e5933008 	ldr	r3, [r3, #8]
300065e0:	e2832001 	add	r2, r3, #1
300065e4:	e51b3010 	ldr	r3, [fp, #-16]
300065e8:	e5832008 	str	r2, [r3, #8]
        OS_EXIT_CRITICAL();
300065ec:	e51b0008 	ldr	r0, [fp, #-8]
300065f0:	ebffe74b 	bl	30000324 <OS_CPU_SR_Restore>
        return (OS_NO_ERR);
300065f4:	e3a03000 	mov	r3, #0
300065f8:	ea000002 	b	30006608 <OSSemPost+0xbc>
    }
    OS_EXIT_CRITICAL();
300065fc:	e51b0008 	ldr	r0, [fp, #-8]
30006600:	ebffe747 	bl	30000324 <OS_CPU_SR_Restore>
    return (OS_SEM_OVF);
30006604:	e3a03032 	mov	r3, #50	@ 0x32
}
30006608:	e1a00003 	mov	r0, r3
3000660c:	e24bd004 	sub	sp, fp, #4
30006610:	e8bd4800 	pop	{fp, lr}
30006614:	e12fff1e 	bx	lr
30006618:	0000fffe 	.word	0x0000fffe

3000661c <OSSemQuery>:
* :
* - 
*********************************************************************************************************
*/
INT8U  OSSemQuery (OS_EVENT *pevent, OS_SEM_DATA *pdata)
{
3000661c:	e92d4800 	push	{fp, lr}
30006620:	e28db004 	add	fp, sp, #4
30006624:	e24dd010 	sub	sp, sp, #16
30006628:	e50b0010 	str	r0, [fp, #-16]
3000662c:	e50b1014 	str	r1, [fp, #-20]	@ 0xffffffec
    OS_CPU_SR  cpu_sr;

    if (pevent == (OS_EVENT *)0) {                         /* Validate 'pevent'                        */
30006630:	e51b3010 	ldr	r3, [fp, #-16]
30006634:	e3530000 	cmp	r3, #0
30006638:	1a000001 	bne	30006644 <OSSemQuery+0x28>
        return (OS_ERR_PEVENT_NULL);
3000663c:	e3a03004 	mov	r3, #4
30006640:	ea00001b 	b	300066b4 <OSSemQuery+0x98>
    }
    if (pevent->OSEventType != OS_EVENT_TYPE_SEM) {        /* Validate event block type                */
30006644:	e51b3010 	ldr	r3, [fp, #-16]
30006648:	e5d33000 	ldrb	r3, [r3]
3000664c:	e3530003 	cmp	r3, #3
30006650:	0a000001 	beq	3000665c <OSSemQuery+0x40>
        return (OS_ERR_EVENT_TYPE);
30006654:	e3a03001 	mov	r3, #1
30006658:	ea000015 	b	300066b4 <OSSemQuery+0x98>
    }
    OS_ENTER_CRITICAL();
3000665c:	ebffe72c 	bl	30000314 <OS_CPU_SR_Save>
30006660:	e50b0008 	str	r0, [fp, #-8]
    pdata->OSEventGrp = pevent->OSEventGrp;                /* Copy semaphore wait list                 */
30006664:	e51b3010 	ldr	r3, [fp, #-16]
30006668:	e5d32001 	ldrb	r2, [r3, #1]
3000666c:	e51b3014 	ldr	r3, [fp, #-20]	@ 0xffffffec
30006670:	e5c3200a 	strb	r2, [r3, #10]
    memcpy(&pdata->OSEventTbl[0], &pevent->OSEventTbl[0], sizeof(pdata->OSEventTbl));
30006674:	e51b3014 	ldr	r3, [fp, #-20]	@ 0xffffffec
30006678:	e2830002 	add	r0, r3, #2
3000667c:	e51b3010 	ldr	r3, [fp, #-16]
30006680:	e283300c 	add	r3, r3, #12
30006684:	e3a02008 	mov	r2, #8
30006688:	e1a01003 	mov	r1, r3
3000668c:	eb0004c2 	bl	3000799c <memcpy>
    pdata->OSCnt      = pevent->OSEventCnt;                /* Get semaphore count                      */
30006690:	e51b3010 	ldr	r3, [fp, #-16]
30006694:	e5933008 	ldr	r3, [r3, #8]
30006698:	e1a03803 	lsl	r3, r3, #16
3000669c:	e1a02823 	lsr	r2, r3, #16
300066a0:	e51b3014 	ldr	r3, [fp, #-20]	@ 0xffffffec
300066a4:	e1c320b0 	strh	r2, [r3]
    OS_EXIT_CRITICAL();
300066a8:	e51b0008 	ldr	r0, [fp, #-8]
300066ac:	ebffe71c 	bl	30000324 <OS_CPU_SR_Restore>
    return (OS_NO_ERR);
300066b0:	e3a03000 	mov	r3, #0
300066b4:	e1a00003 	mov	r0, r3
300066b8:	e24bd004 	sub	sp, fp, #4
300066bc:	e8bd4800 	pop	{fp, lr}
300066c0:	e12fff1e 	bx	lr

300066c4 <OSTaskChangePrio>:
* :
* - 
*********************************************************************************************************
*/
INT8U  OSTaskChangePrio (INT8U oldprio, INT8U newprio)
{
300066c4:	e92d4800 	push	{fp, lr}
300066c8:	e28db004 	add	fp, sp, #4
300066cc:	e24dd018 	sub	sp, sp, #24
300066d0:	e1a03000 	mov	r3, r0
300066d4:	e1a02001 	mov	r2, r1
300066d8:	e54b3015 	strb	r3, [fp, #-21]	@ 0xffffffeb
300066dc:	e1a03002 	mov	r3, r2
300066e0:	e54b3016 	strb	r3, [fp, #-22]	@ 0xffffffea
    INT8U        x;
    INT8U        y;
    INT8U        bitx;
    INT8U        bity;

    if ((oldprio >= OS_LOWEST_PRIO && oldprio != OS_PRIO_SELF)  ||
300066e4:	e55b3015 	ldrb	r3, [fp, #-21]	@ 0xffffffeb
300066e8:	e353003d 	cmp	r3, #61	@ 0x3d
300066ec:	9a000002 	bls	300066fc <OSTaskChangePrio+0x38>
300066f0:	e55b3015 	ldrb	r3, [fp, #-21]	@ 0xffffffeb
300066f4:	e35300ff 	cmp	r3, #255	@ 0xff
300066f8:	1a000002 	bne	30006708 <OSTaskChangePrio+0x44>
300066fc:	e55b3016 	ldrb	r3, [fp, #-22]	@ 0xffffffea
30006700:	e353003d 	cmp	r3, #61	@ 0x3d
30006704:	9a000001 	bls	30006710 <OSTaskChangePrio+0x4c>
         newprio >= OS_LOWEST_PRIO) {
        return (OS_PRIO_INVALID);
30006708:	e3a0302a 	mov	r3, #42	@ 0x2a
3000670c:	ea0000df 	b	30006a90 <OSTaskChangePrio+0x3cc>
    }
    OS_ENTER_CRITICAL();
30006710:	ebffe6ff 	bl	30000314 <OS_CPU_SR_Save>
30006714:	e50b0008 	str	r0, [fp, #-8]
    if (OSTCBPrioTbl[newprio] != (OS_TCB *)0) {           
30006718:	e55b3016 	ldrb	r3, [fp, #-22]	@ 0xffffffea
3000671c:	e59f237c 	ldr	r2, [pc, #892]	@ 30006aa0 <OSTaskChangePrio+0x3dc>
30006720:	e7923103 	ldr	r3, [r2, r3, lsl #2]
30006724:	e3530000 	cmp	r3, #0
30006728:	0a000003 	beq	3000673c <OSTaskChangePrio+0x78>
        OS_EXIT_CRITICAL();
3000672c:	e51b0008 	ldr	r0, [fp, #-8]
30006730:	ebffe6fb 	bl	30000324 <OS_CPU_SR_Restore>
        return (OS_PRIO_EXIST);
30006734:	e3a03028 	mov	r3, #40	@ 0x28
30006738:	ea0000d4 	b	30006a90 <OSTaskChangePrio+0x3cc>
    } else {
        OSTCBPrioTbl[newprio] = (OS_TCB *)1;        
3000673c:	e55b3016 	ldrb	r3, [fp, #-22]	@ 0xffffffea
30006740:	e59f2358 	ldr	r2, [pc, #856]	@ 30006aa0 <OSTaskChangePrio+0x3dc>
30006744:	e3a01001 	mov	r1, #1
30006748:	e7821103 	str	r1, [r2, r3, lsl #2]
        OS_EXIT_CRITICAL();
3000674c:	e51b0008 	ldr	r0, [fp, #-8]
30006750:	ebffe6f3 	bl	30000324 <OS_CPU_SR_Restore>
        y    = newprio >> 3;                           
30006754:	e55b3016 	ldrb	r3, [fp, #-22]	@ 0xffffffea
30006758:	e1a031a3 	lsr	r3, r3, #3
3000675c:	e54b3009 	strb	r3, [fp, #-9]
        bity = OSMapTbl[y];
30006760:	e55b3009 	ldrb	r3, [fp, #-9]
30006764:	e59f2338 	ldr	r2, [pc, #824]	@ 30006aa4 <OSTaskChangePrio+0x3e0>
30006768:	e7d23003 	ldrb	r3, [r2, r3]
3000676c:	e54b300a 	strb	r3, [fp, #-10]
        x    = newprio & 0x07;
30006770:	e55b3016 	ldrb	r3, [fp, #-22]	@ 0xffffffea
30006774:	e2033007 	and	r3, r3, #7
30006778:	e54b300b 	strb	r3, [fp, #-11]
        bitx = OSMapTbl[x];
3000677c:	e55b300b 	ldrb	r3, [fp, #-11]
30006780:	e59f231c 	ldr	r2, [pc, #796]	@ 30006aa4 <OSTaskChangePrio+0x3e0>
30006784:	e7d23003 	ldrb	r3, [r2, r3]
30006788:	e54b300c 	strb	r3, [fp, #-12]
        OS_ENTER_CRITICAL();
3000678c:	ebffe6e0 	bl	30000314 <OS_CPU_SR_Save>
30006790:	e50b0008 	str	r0, [fp, #-8]
        if (oldprio == OS_PRIO_SELF) {                
30006794:	e55b3015 	ldrb	r3, [fp, #-21]	@ 0xffffffeb
30006798:	e35300ff 	cmp	r3, #255	@ 0xff
3000679c:	1a000003 	bne	300067b0 <OSTaskChangePrio+0xec>
            oldprio = OSTCBCur->OSTCBPrio;      
300067a0:	e59f3300 	ldr	r3, [pc, #768]	@ 30006aa8 <OSTaskChangePrio+0x3e4>
300067a4:	e5933000 	ldr	r3, [r3]
300067a8:	e5d3301e 	ldrb	r3, [r3, #30]
300067ac:	e54b3015 	strb	r3, [fp, #-21]	@ 0xffffffeb
        }
        ptcb = OSTCBPrioTbl[oldprio];
300067b0:	e55b3015 	ldrb	r3, [fp, #-21]	@ 0xffffffeb
300067b4:	e59f22e4 	ldr	r2, [pc, #740]	@ 30006aa0 <OSTaskChangePrio+0x3dc>
300067b8:	e7923103 	ldr	r3, [r2, r3, lsl #2]
300067bc:	e50b3010 	str	r3, [fp, #-16]
        if (ptcb != (OS_TCB *)0) {            
300067c0:	e51b3010 	ldr	r3, [fp, #-16]
300067c4:	e3530000 	cmp	r3, #0
300067c8:	0a0000a9 	beq	30006a74 <OSTaskChangePrio+0x3b0>
            OSTCBPrioTbl[oldprio] = (OS_TCB *)0;           
300067cc:	e55b3015 	ldrb	r3, [fp, #-21]	@ 0xffffffeb
300067d0:	e59f22c8 	ldr	r2, [pc, #712]	@ 30006aa0 <OSTaskChangePrio+0x3dc>
300067d4:	e3a01000 	mov	r1, #0
300067d8:	e7821103 	str	r1, [r2, r3, lsl #2]
            if ((OSRdyTbl[ptcb->OSTCBY] & ptcb->OSTCBBitX) != 0x00) { 
300067dc:	e51b3010 	ldr	r3, [fp, #-16]
300067e0:	e5d33021 	ldrb	r3, [r3, #33]	@ 0x21
300067e4:	e1a02003 	mov	r2, r3
300067e8:	e59f32bc 	ldr	r3, [pc, #700]	@ 30006aac <OSTaskChangePrio+0x3e8>
300067ec:	e7d32002 	ldrb	r2, [r3, r2]
300067f0:	e51b3010 	ldr	r3, [fp, #-16]
300067f4:	e5d33022 	ldrb	r3, [r3, #34]	@ 0x22
300067f8:	e0033002 	and	r3, r3, r2
300067fc:	e20330ff 	and	r3, r3, #255	@ 0xff
30006800:	e3530000 	cmp	r3, #0
30006804:	0a00003b 	beq	300068f8 <OSTaskChangePrio+0x234>
                if ((OSRdyTbl[ptcb->OSTCBY] &= ~ptcb->OSTCBBitX) == 0x00) {
30006808:	e51b3010 	ldr	r3, [fp, #-16]
3000680c:	e5d33021 	ldrb	r3, [r3, #33]	@ 0x21
30006810:	e1a02003 	mov	r2, r3
30006814:	e59f3290 	ldr	r3, [pc, #656]	@ 30006aac <OSTaskChangePrio+0x3e8>
30006818:	e7d33002 	ldrb	r3, [r3, r2]
3000681c:	e1a03c03 	lsl	r3, r3, #24
30006820:	e1a02c43 	asr	r2, r3, #24
30006824:	e51b3010 	ldr	r3, [fp, #-16]
30006828:	e5d33022 	ldrb	r3, [r3, #34]	@ 0x22
3000682c:	e1a03c03 	lsl	r3, r3, #24
30006830:	e1a03c43 	asr	r3, r3, #24
30006834:	e1e03003 	mvn	r3, r3
30006838:	e1a03c03 	lsl	r3, r3, #24
3000683c:	e1a03c43 	asr	r3, r3, #24
30006840:	e0033002 	and	r3, r3, r2
30006844:	e1a03c03 	lsl	r3, r3, #24
30006848:	e1a02c43 	asr	r2, r3, #24
3000684c:	e51b3010 	ldr	r3, [fp, #-16]
30006850:	e5d33021 	ldrb	r3, [r3, #33]	@ 0x21
30006854:	e20210ff 	and	r1, r2, #255	@ 0xff
30006858:	e59f224c 	ldr	r2, [pc, #588]	@ 30006aac <OSTaskChangePrio+0x3e8>
3000685c:	e7c21003 	strb	r1, [r2, r3]
30006860:	e59f2244 	ldr	r2, [pc, #580]	@ 30006aac <OSTaskChangePrio+0x3e8>
30006864:	e7d23003 	ldrb	r3, [r2, r3]
30006868:	e3530000 	cmp	r3, #0
3000686c:	1a000010 	bne	300068b4 <OSTaskChangePrio+0x1f0>
                    OSRdyGrp &= ~ptcb->OSTCBBitY;
30006870:	e51b3010 	ldr	r3, [fp, #-16]
30006874:	e5d33023 	ldrb	r3, [r3, #35]	@ 0x23
30006878:	e1a03c03 	lsl	r3, r3, #24
3000687c:	e1a03c43 	asr	r3, r3, #24
30006880:	e1e03003 	mvn	r3, r3
30006884:	e1a03c03 	lsl	r3, r3, #24
30006888:	e1a02c43 	asr	r2, r3, #24
3000688c:	e59f321c 	ldr	r3, [pc, #540]	@ 30006ab0 <OSTaskChangePrio+0x3ec>
30006890:	e5d33000 	ldrb	r3, [r3]
30006894:	e1a03c03 	lsl	r3, r3, #24
30006898:	e1a03c43 	asr	r3, r3, #24
3000689c:	e0033002 	and	r3, r3, r2
300068a0:	e1a03c03 	lsl	r3, r3, #24
300068a4:	e1a03c43 	asr	r3, r3, #24
300068a8:	e20320ff 	and	r2, r3, #255	@ 0xff
300068ac:	e59f31fc 	ldr	r3, [pc, #508]	@ 30006ab0 <OSTaskChangePrio+0x3ec>
300068b0:	e5c32000 	strb	r2, [r3]
                }
                OSRdyGrp    |= bity;                          
300068b4:	e59f31f4 	ldr	r3, [pc, #500]	@ 30006ab0 <OSTaskChangePrio+0x3ec>
300068b8:	e5d32000 	ldrb	r2, [r3]
300068bc:	e55b300a 	ldrb	r3, [fp, #-10]
300068c0:	e1823003 	orr	r3, r2, r3
300068c4:	e20320ff 	and	r2, r3, #255	@ 0xff
300068c8:	e59f31e0 	ldr	r3, [pc, #480]	@ 30006ab0 <OSTaskChangePrio+0x3ec>
300068cc:	e5c32000 	strb	r2, [r3]
                OSRdyTbl[y] |= bitx;
300068d0:	e55b3009 	ldrb	r3, [fp, #-9]
300068d4:	e59f21d0 	ldr	r2, [pc, #464]	@ 30006aac <OSTaskChangePrio+0x3e8>
300068d8:	e7d21003 	ldrb	r1, [r2, r3]
300068dc:	e55b3009 	ldrb	r3, [fp, #-9]
300068e0:	e55b200c 	ldrb	r2, [fp, #-12]
300068e4:	e1812002 	orr	r2, r1, r2
300068e8:	e20210ff 	and	r1, r2, #255	@ 0xff
300068ec:	e59f21b8 	ldr	r2, [pc, #440]	@ 30006aac <OSTaskChangePrio+0x3e8>
300068f0:	e7c21003 	strb	r1, [r2, r3]
300068f4:	ea000046 	b	30006a14 <OSTaskChangePrio+0x350>
            } 
            else {
                pevent = ptcb->OSTCBEventPtr;
300068f8:	e51b3010 	ldr	r3, [fp, #-16]
300068fc:	e593300c 	ldr	r3, [r3, #12]
30006900:	e50b3014 	str	r3, [fp, #-20]	@ 0xffffffec
                if (pevent != (OS_EVENT *)0) {                
30006904:	e51b3014 	ldr	r3, [fp, #-20]	@ 0xffffffec
30006908:	e3530000 	cmp	r3, #0
3000690c:	0a000040 	beq	30006a14 <OSTaskChangePrio+0x350>
                    if ((pevent->OSEventTbl[ptcb->OSTCBY] &= ~ptcb->OSTCBBitX) == 0) {
30006910:	e51b3010 	ldr	r3, [fp, #-16]
30006914:	e5d33021 	ldrb	r3, [r3, #33]	@ 0x21
30006918:	e1a02003 	mov	r2, r3
3000691c:	e51b3014 	ldr	r3, [fp, #-20]	@ 0xffffffec
30006920:	e0833002 	add	r3, r3, r2
30006924:	e5d3300c 	ldrb	r3, [r3, #12]
30006928:	e1a03c03 	lsl	r3, r3, #24
3000692c:	e1a02c43 	asr	r2, r3, #24
30006930:	e51b3010 	ldr	r3, [fp, #-16]
30006934:	e5d33022 	ldrb	r3, [r3, #34]	@ 0x22
30006938:	e1a03c03 	lsl	r3, r3, #24
3000693c:	e1a03c43 	asr	r3, r3, #24
30006940:	e1e03003 	mvn	r3, r3
30006944:	e1a03c03 	lsl	r3, r3, #24
30006948:	e1a03c43 	asr	r3, r3, #24
3000694c:	e0033002 	and	r3, r3, r2
30006950:	e1a03c03 	lsl	r3, r3, #24
30006954:	e1a02c43 	asr	r2, r3, #24
30006958:	e51b3010 	ldr	r3, [fp, #-16]
3000695c:	e5d33021 	ldrb	r3, [r3, #33]	@ 0x21
30006960:	e20210ff 	and	r1, r2, #255	@ 0xff
30006964:	e51b2014 	ldr	r2, [fp, #-20]	@ 0xffffffec
30006968:	e0822003 	add	r2, r2, r3
3000696c:	e5c2100c 	strb	r1, [r2, #12]
30006970:	e51b2014 	ldr	r2, [fp, #-20]	@ 0xffffffec
30006974:	e0823003 	add	r3, r2, r3
30006978:	e5d3300c 	ldrb	r3, [r3, #12]
3000697c:	e3530000 	cmp	r3, #0
30006980:	1a000010 	bne	300069c8 <OSTaskChangePrio+0x304>
                        pevent->OSEventGrp &= ~ptcb->OSTCBBitY;
30006984:	e51b3014 	ldr	r3, [fp, #-20]	@ 0xffffffec
30006988:	e5d33001 	ldrb	r3, [r3, #1]
3000698c:	e1a03c03 	lsl	r3, r3, #24
30006990:	e1a02c43 	asr	r2, r3, #24
30006994:	e51b3010 	ldr	r3, [fp, #-16]
30006998:	e5d33023 	ldrb	r3, [r3, #35]	@ 0x23
3000699c:	e1a03c03 	lsl	r3, r3, #24
300069a0:	e1a03c43 	asr	r3, r3, #24
300069a4:	e1e03003 	mvn	r3, r3
300069a8:	e1a03c03 	lsl	r3, r3, #24
300069ac:	e1a03c43 	asr	r3, r3, #24
300069b0:	e0033002 	and	r3, r3, r2
300069b4:	e1a03c03 	lsl	r3, r3, #24
300069b8:	e1a03c43 	asr	r3, r3, #24
300069bc:	e20320ff 	and	r2, r3, #255	@ 0xff
300069c0:	e51b3014 	ldr	r3, [fp, #-20]	@ 0xffffffec
300069c4:	e5c32001 	strb	r2, [r3, #1]
                    }
                    pevent->OSEventGrp    |= bity;             
300069c8:	e51b3014 	ldr	r3, [fp, #-20]	@ 0xffffffec
300069cc:	e5d32001 	ldrb	r2, [r3, #1]
300069d0:	e55b300a 	ldrb	r3, [fp, #-10]
300069d4:	e1823003 	orr	r3, r2, r3
300069d8:	e20320ff 	and	r2, r3, #255	@ 0xff
300069dc:	e51b3014 	ldr	r3, [fp, #-20]	@ 0xffffffec
300069e0:	e5c32001 	strb	r2, [r3, #1]
                    pevent->OSEventTbl[y] |= bitx;
300069e4:	e55b3009 	ldrb	r3, [fp, #-9]
300069e8:	e51b2014 	ldr	r2, [fp, #-20]	@ 0xffffffec
300069ec:	e0823003 	add	r3, r2, r3
300069f0:	e5d3100c 	ldrb	r1, [r3, #12]
300069f4:	e55b3009 	ldrb	r3, [fp, #-9]
300069f8:	e55b200c 	ldrb	r2, [fp, #-12]
300069fc:	e1812002 	orr	r2, r1, r2
30006a00:	e20210ff 	and	r1, r2, #255	@ 0xff
30006a04:	e51b2014 	ldr	r2, [fp, #-20]	@ 0xffffffec
30006a08:	e0823003 	add	r3, r2, r3
30006a0c:	e1a02001 	mov	r2, r1
30006a10:	e5c3200c 	strb	r2, [r3, #12]
                }
            }
            OSTCBPrioTbl[newprio] = ptcb;                    
30006a14:	e55b3016 	ldrb	r3, [fp, #-22]	@ 0xffffffea
30006a18:	e59f1080 	ldr	r1, [pc, #128]	@ 30006aa0 <OSTaskChangePrio+0x3dc>
30006a1c:	e51b2010 	ldr	r2, [fp, #-16]
30006a20:	e7812103 	str	r2, [r1, r3, lsl #2]
            ptcb->OSTCBPrio       = newprio;                  
30006a24:	e51b3010 	ldr	r3, [fp, #-16]
30006a28:	e55b2016 	ldrb	r2, [fp, #-22]	@ 0xffffffea
30006a2c:	e5c3201e 	strb	r2, [r3, #30]
            ptcb->OSTCBY          = y;
30006a30:	e51b3010 	ldr	r3, [fp, #-16]
30006a34:	e55b2009 	ldrb	r2, [fp, #-9]
30006a38:	e5c32021 	strb	r2, [r3, #33]	@ 0x21
            ptcb->OSTCBX          = x;
30006a3c:	e51b3010 	ldr	r3, [fp, #-16]
30006a40:	e55b200b 	ldrb	r2, [fp, #-11]
30006a44:	e5c32020 	strb	r2, [r3, #32]
            ptcb->OSTCBBitY       = bity;
30006a48:	e51b3010 	ldr	r3, [fp, #-16]
30006a4c:	e55b200a 	ldrb	r2, [fp, #-10]
30006a50:	e5c32023 	strb	r2, [r3, #35]	@ 0x23
            ptcb->OSTCBBitX       = bitx;
30006a54:	e51b3010 	ldr	r3, [fp, #-16]
30006a58:	e55b200c 	ldrb	r2, [fp, #-12]
30006a5c:	e5c32022 	strb	r2, [r3, #34]	@ 0x22
            OS_EXIT_CRITICAL();
30006a60:	e51b0008 	ldr	r0, [fp, #-8]
30006a64:	ebffe62e 	bl	30000324 <OS_CPU_SR_Restore>
            OS_Sched();                                        
30006a68:	ebffef77 	bl	3000284c <OS_Sched>
            return (OS_NO_ERR);
30006a6c:	e3a03000 	mov	r3, #0
30006a70:	ea000006 	b	30006a90 <OSTaskChangePrio+0x3cc>
        } 
        else {
            OSTCBPrioTbl[newprio] = (OS_TCB *)0;                
30006a74:	e55b3016 	ldrb	r3, [fp, #-22]	@ 0xffffffea
30006a78:	e59f2020 	ldr	r2, [pc, #32]	@ 30006aa0 <OSTaskChangePrio+0x3dc>
30006a7c:	e3a01000 	mov	r1, #0
30006a80:	e7821103 	str	r1, [r2, r3, lsl #2]
            OS_EXIT_CRITICAL();
30006a84:	e51b0008 	ldr	r0, [fp, #-8]
30006a88:	ebffe625 	bl	30000324 <OS_CPU_SR_Restore>
            return (OS_PRIO_ERR);                               
30006a8c:	e3a03029 	mov	r3, #41	@ 0x29
        }
    }
}
30006a90:	e1a00003 	mov	r0, r3
30006a94:	e24bd004 	sub	sp, fp, #4
30006a98:	e8bd4800 	pop	{fp, lr}
30006a9c:	e12fff1e 	bx	lr
30006aa0:	3000b3a4 	.word	0x3000b3a4
30006aa4:	30007e94 	.word	0x30007e94
30006aa8:	3000b394 	.word	0x3000b394
30006aac:	3000aa74 	.word	0x3000aa74
30006ab0:	3000aa71 	.word	0x3000aa71

30006ab4 <OSTaskCreate>:
* :
* -  OSTaskStkInit ( OS_CPU_C.C )
* -  Mini2440 ptos 
*********************************************************************************************************
*/
INT8U OSTaskCreate(void (*task)(void *pd), void *pdata1, OS_STK *ptos, INT8U prio){
30006ab4:	e92d4800 	push	{fp, lr}
30006ab8:	e28db004 	add	fp, sp, #4
30006abc:	e24dd030 	sub	sp, sp, #48	@ 0x30
30006ac0:	e50b0018 	str	r0, [fp, #-24]	@ 0xffffffe8
30006ac4:	e50b101c 	str	r1, [fp, #-28]	@ 0xffffffe4
30006ac8:	e50b2020 	str	r2, [fp, #-32]	@ 0xffffffe0
30006acc:	e54b3021 	strb	r3, [fp, #-33]	@ 0xffffffdf
    //ext
    OS_CPU_SR   cpu_sr;
    OS_STK      *psp; //pointer to stack pointer
    INT8U       err;

    if(prio > OS_LOWEST_PRIO){
30006ad0:	e55b3021 	ldrb	r3, [fp, #-33]	@ 0xffffffdf
30006ad4:	e353003e 	cmp	r3, #62	@ 0x3e
30006ad8:	9a000001 	bls	30006ae4 <OSTaskCreate+0x30>
        return OS_PRIO_INVALID;
30006adc:	e3a0302a 	mov	r3, #42	@ 0x2a
30006ae0:	ea00003f 	b	30006be4 <OSTaskCreate+0x130>
    }
    OS_ENTER_CRITICAL();
30006ae4:	ebffe60a 	bl	30000314 <OS_CPU_SR_Save>
30006ae8:	e50b0008 	str	r0, [fp, #-8]
    if(OSTCBPrioTbl[prio] == (OS_TCB *)0){
30006aec:	e55b3021 	ldrb	r3, [fp, #-33]	@ 0xffffffdf
30006af0:	e59f20fc 	ldr	r2, [pc, #252]	@ 30006bf4 <OSTaskCreate+0x140>
30006af4:	e7923103 	ldr	r3, [r2, r3, lsl #2]
30006af8:	e3530000 	cmp	r3, #0
30006afc:	1a000035 	bne	30006bd8 <OSTaskCreate+0x124>
        OSTCBPrioTbl[prio] = (OS_TCB *)1;
30006b00:	e55b3021 	ldrb	r3, [fp, #-33]	@ 0xffffffdf
30006b04:	e59f20e8 	ldr	r2, [pc, #232]	@ 30006bf4 <OSTaskCreate+0x140>
30006b08:	e3a01001 	mov	r1, #1
30006b0c:	e7821103 	str	r1, [r2, r3, lsl #2]
        OS_EXIT_CRITICAL();
30006b10:	e51b0008 	ldr	r0, [fp, #-8]
30006b14:	ebffe602 	bl	30000324 <OS_CPU_SR_Restore>
        psp = (OS_STK *)OSTaskStkInit(task, pdata1, ptos, 0);
30006b18:	e3a03000 	mov	r3, #0
30006b1c:	e51b2020 	ldr	r2, [fp, #-32]	@ 0xffffffe0
30006b20:	e51b101c 	ldr	r1, [fp, #-28]	@ 0xffffffe4
30006b24:	e51b0018 	ldr	r0, [fp, #-24]	@ 0xffffffe8
30006b28:	ebffe827 	bl	30000bcc <OSTaskStkInit>
30006b2c:	e50b000c 	str	r0, [fp, #-12]
        err = OS_TCBInit(prio, psp, (OS_STK *)0,0,0,(void *)0,0);
30006b30:	e55b0021 	ldrb	r0, [fp, #-33]	@ 0xffffffdf
30006b34:	e3a03000 	mov	r3, #0
30006b38:	e58d3008 	str	r3, [sp, #8]
30006b3c:	e3a03000 	mov	r3, #0
30006b40:	e58d3004 	str	r3, [sp, #4]
30006b44:	e3a03000 	mov	r3, #0
30006b48:	e58d3000 	str	r3, [sp]
30006b4c:	e3a03000 	mov	r3, #0
30006b50:	e3a02000 	mov	r2, #0
30006b54:	e51b100c 	ldr	r1, [fp, #-12]
30006b58:	ebffefd7 	bl	30002abc <OS_TCBInit>
30006b5c:	e1a03000 	mov	r3, r0
30006b60:	e54b300d 	strb	r3, [fp, #-13]
        if(err == OS_NO_ERR){
30006b64:	e55b300d 	ldrb	r3, [fp, #-13]
30006b68:	e3530000 	cmp	r3, #0
30006b6c:	1a00000f 	bne	30006bb0 <OSTaskCreate+0xfc>
            OS_ENTER_CRITICAL();
30006b70:	ebffe5e7 	bl	30000314 <OS_CPU_SR_Save>
30006b74:	e50b0008 	str	r0, [fp, #-8]
            OSTaskCtr++;
30006b78:	e59f3078 	ldr	r3, [pc, #120]	@ 30006bf8 <OSTaskCreate+0x144>
30006b7c:	e5d33000 	ldrb	r3, [r3]
30006b80:	e2833001 	add	r3, r3, #1
30006b84:	e20320ff 	and	r2, r3, #255	@ 0xff
30006b88:	e59f3068 	ldr	r3, [pc, #104]	@ 30006bf8 <OSTaskCreate+0x144>
30006b8c:	e5c32000 	strb	r2, [r3]
            OS_EXIT_CRITICAL();
30006b90:	e51b0008 	ldr	r0, [fp, #-8]
30006b94:	ebffe5e2 	bl	30000324 <OS_CPU_SR_Restore>
            if(OSRunning == TRUE){
30006b98:	e59f305c 	ldr	r3, [pc, #92]	@ 30006bfc <OSTaskCreate+0x148>
30006b9c:	e5d33000 	ldrb	r3, [r3]
30006ba0:	e3530001 	cmp	r3, #1
30006ba4:	1a000009 	bne	30006bd0 <OSTaskCreate+0x11c>
                OS_Sched();
30006ba8:	ebffef27 	bl	3000284c <OS_Sched>
30006bac:	ea000007 	b	30006bd0 <OSTaskCreate+0x11c>
            }
        }
        else{
                OS_ENTER_CRITICAL();
30006bb0:	ebffe5d7 	bl	30000314 <OS_CPU_SR_Save>
30006bb4:	e50b0008 	str	r0, [fp, #-8]
                OSTCBPrioTbl[prio] = (OS_TCB *)0;
30006bb8:	e55b3021 	ldrb	r3, [fp, #-33]	@ 0xffffffdf
30006bbc:	e59f2030 	ldr	r2, [pc, #48]	@ 30006bf4 <OSTaskCreate+0x140>
30006bc0:	e3a01000 	mov	r1, #0
30006bc4:	e7821103 	str	r1, [r2, r3, lsl #2]
                OS_EXIT_CRITICAL();
30006bc8:	e51b0008 	ldr	r0, [fp, #-8]
30006bcc:	ebffe5d4 	bl	30000324 <OS_CPU_SR_Restore>
            }
        return (err);
30006bd0:	e55b300d 	ldrb	r3, [fp, #-13]
30006bd4:	ea000002 	b	30006be4 <OSTaskCreate+0x130>
    }
    OS_EXIT_CRITICAL();
30006bd8:	e51b0008 	ldr	r0, [fp, #-8]
30006bdc:	ebffe5d0 	bl	30000324 <OS_CPU_SR_Restore>
    return (OS_PRIO_EXIST);
30006be0:	e3a03028 	mov	r3, #40	@ 0x28
}
30006be4:	e1a00003 	mov	r0, r3
30006be8:	e24bd004 	sub	sp, fp, #4
30006bec:	e8bd4800 	pop	{fp, lr}
30006bf0:	e12fff1e 	bx	lr
30006bf4:	3000b3a4 	.word	0x3000b3a4
30006bf8:	3000aa7d 	.word	0x3000aa7d
30006bfc:	3000aa7c 	.word	0x3000aa7c

30006c00 <OSTaskCreateExt>:
* :
* -  (pbos)  Mini2440 
*********************************************************************************************************
*/
INT8U  OSTaskCreateExt (void (*task)(void *pd), void *pdata1, OS_STK *ptos, INT8U prio, INT16U id, OS_STK *pbos, INT32U stk_size, void *pext, INT16U opt)
{
30006c00:	e52db004 	push	{fp}		@ (str fp, [sp, #-4]!)
30006c04:	e28db000 	add	fp, sp, #0
30006c08:	e24dd014 	sub	sp, sp, #20
30006c0c:	e50b0008 	str	r0, [fp, #-8]
30006c10:	e50b100c 	str	r1, [fp, #-12]
30006c14:	e50b2010 	str	r2, [fp, #-16]
30006c18:	e54b3011 	strb	r3, [fp, #-17]	@ 0xffffffef
    //
    return (OS_NO_ERR);
30006c1c:	e3a03000 	mov	r3, #0
}
30006c20:	e1a00003 	mov	r0, r3
30006c24:	e28bd000 	add	sp, fp, #0
30006c28:	e49db004 	pop	{fp}		@ (ldr fp, [sp], #4)
30006c2c:	e12fff1e 	bx	lr

30006c30 <OSTaskDel>:
* :
* -  OS_Dummy()  CPU  ARM 
*********************************************************************************************************
*/
INT8U  OSTaskDel (INT8U prio)
{
30006c30:	e92d4800 	push	{fp, lr}
30006c34:	e28db004 	add	fp, sp, #4
30006c38:	e24dd018 	sub	sp, sp, #24
30006c3c:	e1a03000 	mov	r3, r0
30006c40:	e54b3015 	strb	r3, [fp, #-21]	@ 0xffffffeb
    OS_CPU_SR       cpu_sr;
    OS_EVENT        *pevent;
    OS_FLAG_NODE    *pnode;
    OS_TCB          *ptcb;
    
    if (OSIntNesting > 0) {    
30006c44:	e59f3374 	ldr	r3, [pc, #884]	@ 30006fc0 <OSTaskDel+0x390>
30006c48:	e5d33000 	ldrb	r3, [r3]
30006c4c:	e3530000 	cmp	r3, #0
30006c50:	0a000001 	beq	30006c5c <OSTaskDel+0x2c>
        return (OS_TASK_DEL_ISR);
30006c54:	e3a0303f 	mov	r3, #63	@ 0x3f
30006c58:	ea0000d4 	b	30006fb0 <OSTaskDel+0x380>
    }
    if (prio == OS_IDLE_PRIO) {                               
30006c5c:	e55b3015 	ldrb	r3, [fp, #-21]	@ 0xffffffeb
30006c60:	e353003e 	cmp	r3, #62	@ 0x3e
30006c64:	1a000001 	bne	30006c70 <OSTaskDel+0x40>
        return (OS_TASK_DEL_IDLE);
30006c68:	e3a0303d 	mov	r3, #61	@ 0x3d
30006c6c:	ea0000cf 	b	30006fb0 <OSTaskDel+0x380>
    }
    if (prio >= OS_LOWEST_PRIO && prio != OS_PRIO_SELF) {       
30006c70:	e55b3015 	ldrb	r3, [fp, #-21]	@ 0xffffffeb
30006c74:	e353003d 	cmp	r3, #61	@ 0x3d
30006c78:	9a000004 	bls	30006c90 <OSTaskDel+0x60>
30006c7c:	e55b3015 	ldrb	r3, [fp, #-21]	@ 0xffffffeb
30006c80:	e35300ff 	cmp	r3, #255	@ 0xff
30006c84:	0a000001 	beq	30006c90 <OSTaskDel+0x60>
        return (OS_PRIO_INVALID);
30006c88:	e3a0302a 	mov	r3, #42	@ 0x2a
30006c8c:	ea0000c7 	b	30006fb0 <OSTaskDel+0x380>
    }

    OS_ENTER_CRITICAL();
30006c90:	ebffe59f 	bl	30000314 <OS_CPU_SR_Save>
30006c94:	e50b0008 	str	r0, [fp, #-8]
    if (prio == OS_PRIO_SELF) {                                
30006c98:	e55b3015 	ldrb	r3, [fp, #-21]	@ 0xffffffeb
30006c9c:	e35300ff 	cmp	r3, #255	@ 0xff
30006ca0:	1a000003 	bne	30006cb4 <OSTaskDel+0x84>
        prio = OSTCBCur->OSTCBPrio;                            
30006ca4:	e59f3318 	ldr	r3, [pc, #792]	@ 30006fc4 <OSTaskDel+0x394>
30006ca8:	e5933000 	ldr	r3, [r3]
30006cac:	e5d3301e 	ldrb	r3, [r3, #30]
30006cb0:	e54b3015 	strb	r3, [fp, #-21]	@ 0xffffffeb
    }
    ptcb = OSTCBPrioTbl[prio];
30006cb4:	e55b3015 	ldrb	r3, [fp, #-21]	@ 0xffffffeb
30006cb8:	e59f2308 	ldr	r2, [pc, #776]	@ 30006fc8 <OSTaskDel+0x398>
30006cbc:	e7923103 	ldr	r3, [r2, r3, lsl #2]
30006cc0:	e50b300c 	str	r3, [fp, #-12]
    if (ptcb != (OS_TCB *)0) {                                  
30006cc4:	e51b300c 	ldr	r3, [fp, #-12]
30006cc8:	e3530000 	cmp	r3, #0
30006ccc:	0a0000b4 	beq	30006fa4 <OSTaskDel+0x374>
        if ((OSRdyTbl[ptcb->OSTCBY] &= ~ptcb->OSTCBBitX) == 0x00) { 
30006cd0:	e51b300c 	ldr	r3, [fp, #-12]
30006cd4:	e5d33021 	ldrb	r3, [r3, #33]	@ 0x21
30006cd8:	e1a02003 	mov	r2, r3
30006cdc:	e59f32e8 	ldr	r3, [pc, #744]	@ 30006fcc <OSTaskDel+0x39c>
30006ce0:	e7d33002 	ldrb	r3, [r3, r2]
30006ce4:	e1a03c03 	lsl	r3, r3, #24
30006ce8:	e1a02c43 	asr	r2, r3, #24
30006cec:	e51b300c 	ldr	r3, [fp, #-12]
30006cf0:	e5d33022 	ldrb	r3, [r3, #34]	@ 0x22
30006cf4:	e1a03c03 	lsl	r3, r3, #24
30006cf8:	e1a03c43 	asr	r3, r3, #24
30006cfc:	e1e03003 	mvn	r3, r3
30006d00:	e1a03c03 	lsl	r3, r3, #24
30006d04:	e1a03c43 	asr	r3, r3, #24
30006d08:	e0033002 	and	r3, r3, r2
30006d0c:	e1a03c03 	lsl	r3, r3, #24
30006d10:	e1a02c43 	asr	r2, r3, #24
30006d14:	e51b300c 	ldr	r3, [fp, #-12]
30006d18:	e5d33021 	ldrb	r3, [r3, #33]	@ 0x21
30006d1c:	e20210ff 	and	r1, r2, #255	@ 0xff
30006d20:	e59f22a4 	ldr	r2, [pc, #676]	@ 30006fcc <OSTaskDel+0x39c>
30006d24:	e7c21003 	strb	r1, [r2, r3]
30006d28:	e59f229c 	ldr	r2, [pc, #668]	@ 30006fcc <OSTaskDel+0x39c>
30006d2c:	e7d23003 	ldrb	r3, [r2, r3]
30006d30:	e3530000 	cmp	r3, #0
30006d34:	1a000010 	bne	30006d7c <OSTaskDel+0x14c>
            OSRdyGrp &= ~ptcb->OSTCBBitY;
30006d38:	e51b300c 	ldr	r3, [fp, #-12]
30006d3c:	e5d33023 	ldrb	r3, [r3, #35]	@ 0x23
30006d40:	e1a03c03 	lsl	r3, r3, #24
30006d44:	e1a03c43 	asr	r3, r3, #24
30006d48:	e1e03003 	mvn	r3, r3
30006d4c:	e1a03c03 	lsl	r3, r3, #24
30006d50:	e1a02c43 	asr	r2, r3, #24
30006d54:	e59f3274 	ldr	r3, [pc, #628]	@ 30006fd0 <OSTaskDel+0x3a0>
30006d58:	e5d33000 	ldrb	r3, [r3]
30006d5c:	e1a03c03 	lsl	r3, r3, #24
30006d60:	e1a03c43 	asr	r3, r3, #24
30006d64:	e0033002 	and	r3, r3, r2
30006d68:	e1a03c03 	lsl	r3, r3, #24
30006d6c:	e1a03c43 	asr	r3, r3, #24
30006d70:	e20320ff 	and	r2, r3, #255	@ 0xff
30006d74:	e59f3254 	ldr	r3, [pc, #596]	@ 30006fd0 <OSTaskDel+0x3a0>
30006d78:	e5c32000 	strb	r2, [r3]
        }
        pevent = ptcb->OSTCBEventPtr;
30006d7c:	e51b300c 	ldr	r3, [fp, #-12]
30006d80:	e593300c 	ldr	r3, [r3, #12]
30006d84:	e50b3010 	str	r3, [fp, #-16]
        if (pevent != (OS_EVENT *)0) {                  
30006d88:	e51b3010 	ldr	r3, [fp, #-16]
30006d8c:	e3530000 	cmp	r3, #0
30006d90:	0a00002d 	beq	30006e4c <OSTaskDel+0x21c>
            if ((pevent->OSEventTbl[ptcb->OSTCBY] &= ~ptcb->OSTCBBitX) == 0) {
30006d94:	e51b300c 	ldr	r3, [fp, #-12]
30006d98:	e5d33021 	ldrb	r3, [r3, #33]	@ 0x21
30006d9c:	e1a02003 	mov	r2, r3
30006da0:	e51b3010 	ldr	r3, [fp, #-16]
30006da4:	e0833002 	add	r3, r3, r2
30006da8:	e5d3300c 	ldrb	r3, [r3, #12]
30006dac:	e1a03c03 	lsl	r3, r3, #24
30006db0:	e1a02c43 	asr	r2, r3, #24
30006db4:	e51b300c 	ldr	r3, [fp, #-12]
30006db8:	e5d33022 	ldrb	r3, [r3, #34]	@ 0x22
30006dbc:	e1a03c03 	lsl	r3, r3, #24
30006dc0:	e1a03c43 	asr	r3, r3, #24
30006dc4:	e1e03003 	mvn	r3, r3
30006dc8:	e1a03c03 	lsl	r3, r3, #24
30006dcc:	e1a03c43 	asr	r3, r3, #24
30006dd0:	e0033002 	and	r3, r3, r2
30006dd4:	e1a03c03 	lsl	r3, r3, #24
30006dd8:	e1a02c43 	asr	r2, r3, #24
30006ddc:	e51b300c 	ldr	r3, [fp, #-12]
30006de0:	e5d33021 	ldrb	r3, [r3, #33]	@ 0x21
30006de4:	e20210ff 	and	r1, r2, #255	@ 0xff
30006de8:	e51b2010 	ldr	r2, [fp, #-16]
30006dec:	e0822003 	add	r2, r2, r3
30006df0:	e5c2100c 	strb	r1, [r2, #12]
30006df4:	e51b2010 	ldr	r2, [fp, #-16]
30006df8:	e0823003 	add	r3, r2, r3
30006dfc:	e5d3300c 	ldrb	r3, [r3, #12]
30006e00:	e3530000 	cmp	r3, #0
30006e04:	1a000010 	bne	30006e4c <OSTaskDel+0x21c>
                pevent->OSEventGrp &= ~ptcb->OSTCBBitY;       
30006e08:	e51b3010 	ldr	r3, [fp, #-16]
30006e0c:	e5d33001 	ldrb	r3, [r3, #1]
30006e10:	e1a03c03 	lsl	r3, r3, #24
30006e14:	e1a02c43 	asr	r2, r3, #24
30006e18:	e51b300c 	ldr	r3, [fp, #-12]
30006e1c:	e5d33023 	ldrb	r3, [r3, #35]	@ 0x23
30006e20:	e1a03c03 	lsl	r3, r3, #24
30006e24:	e1a03c43 	asr	r3, r3, #24
30006e28:	e1e03003 	mvn	r3, r3
30006e2c:	e1a03c03 	lsl	r3, r3, #24
30006e30:	e1a03c43 	asr	r3, r3, #24
30006e34:	e0033002 	and	r3, r3, r2
30006e38:	e1a03c03 	lsl	r3, r3, #24
30006e3c:	e1a03c43 	asr	r3, r3, #24
30006e40:	e20320ff 	and	r2, r3, #255	@ 0xff
30006e44:	e51b3010 	ldr	r3, [fp, #-16]
30006e48:	e5c32001 	strb	r2, [r3, #1]
            }
        }
        pnode = ptcb->OSTCBFlagNode;
30006e4c:	e51b300c 	ldr	r3, [fp, #-12]
30006e50:	e5933014 	ldr	r3, [r3, #20]
30006e54:	e50b3014 	str	r3, [fp, #-20]	@ 0xffffffec
        if (pnode != (OS_FLAG_NODE *)0) {                    
30006e58:	e51b3014 	ldr	r3, [fp, #-20]	@ 0xffffffec
30006e5c:	e3530000 	cmp	r3, #0
30006e60:	0a000001 	beq	30006e6c <OSTaskDel+0x23c>
            OS_FlagUnlink(pnode);
30006e64:	e51b0014 	ldr	r0, [fp, #-20]	@ 0xffffffec
30006e68:	ebfff3b9 	bl	30003d54 <OS_FlagUnlink>
        }
        ptcb->OSTCBDly  = 0;                               
30006e6c:	e51b300c 	ldr	r3, [fp, #-12]
30006e70:	e3a02000 	mov	r2, #0
30006e74:	e1c321bc 	strh	r2, [r3, #28]
        ptcb->OSTCBStat = OS_STAT_RDY;                          
30006e78:	e51b300c 	ldr	r3, [fp, #-12]
30006e7c:	e3a02000 	mov	r2, #0
30006e80:	e5c3201f 	strb	r2, [r3, #31]
        if (OSLockNesting < 255) {
30006e84:	e59f3148 	ldr	r3, [pc, #328]	@ 30006fd4 <OSTaskDel+0x3a4>
30006e88:	e5d33000 	ldrb	r3, [r3]
30006e8c:	e35300ff 	cmp	r3, #255	@ 0xff
30006e90:	0a000005 	beq	30006eac <OSTaskDel+0x27c>
            OSLockNesting++;
30006e94:	e59f3138 	ldr	r3, [pc, #312]	@ 30006fd4 <OSTaskDel+0x3a4>
30006e98:	e5d33000 	ldrb	r3, [r3]
30006e9c:	e2833001 	add	r3, r3, #1
30006ea0:	e20320ff 	and	r2, r3, #255	@ 0xff
30006ea4:	e59f3128 	ldr	r3, [pc, #296]	@ 30006fd4 <OSTaskDel+0x3a4>
30006ea8:	e5c32000 	strb	r2, [r3]
        }
        OS_EXIT_CRITICAL();                                    
30006eac:	e51b0008 	ldr	r0, [fp, #-8]
30006eb0:	ebffe51b 	bl	30000324 <OS_CPU_SR_Restore>
        OS_Dummy();                                             
30006eb4:	ebffecf8 	bl	3000229c <OS_Dummy>
        OS_ENTER_CRITICAL();                                    
30006eb8:	ebffe515 	bl	30000314 <OS_CPU_SR_Save>
30006ebc:	e50b0008 	str	r0, [fp, #-8]
        if (OSLockNesting > 0) {
30006ec0:	e59f310c 	ldr	r3, [pc, #268]	@ 30006fd4 <OSTaskDel+0x3a4>
30006ec4:	e5d33000 	ldrb	r3, [r3]
30006ec8:	e3530000 	cmp	r3, #0
30006ecc:	0a000005 	beq	30006ee8 <OSTaskDel+0x2b8>
            OSLockNesting--;
30006ed0:	e59f30fc 	ldr	r3, [pc, #252]	@ 30006fd4 <OSTaskDel+0x3a4>
30006ed4:	e5d33000 	ldrb	r3, [r3]
30006ed8:	e2433001 	sub	r3, r3, #1
30006edc:	e20320ff 	and	r2, r3, #255	@ 0xff
30006ee0:	e59f30ec 	ldr	r3, [pc, #236]	@ 30006fd4 <OSTaskDel+0x3a4>
30006ee4:	e5c32000 	strb	r2, [r3]
        }
        OSTaskDelHook(ptcb);
30006ee8:	e51b000c 	ldr	r0, [fp, #-12]
30006eec:	ebffe7a9 	bl	30000d98 <OSTaskDelHook>
        OSTaskCtr--;                                           
30006ef0:	e59f30e0 	ldr	r3, [pc, #224]	@ 30006fd8 <OSTaskDel+0x3a8>
30006ef4:	e5d33000 	ldrb	r3, [r3]
30006ef8:	e2433001 	sub	r3, r3, #1
30006efc:	e20320ff 	and	r2, r3, #255	@ 0xff
30006f00:	e59f30d0 	ldr	r3, [pc, #208]	@ 30006fd8 <OSTaskDel+0x3a8>
30006f04:	e5c32000 	strb	r2, [r3]
        OSTCBPrioTbl[prio] = (OS_TCB *)0;                       
30006f08:	e55b3015 	ldrb	r3, [fp, #-21]	@ 0xffffffeb
30006f0c:	e59f20b4 	ldr	r2, [pc, #180]	@ 30006fc8 <OSTaskDel+0x398>
30006f10:	e3a01000 	mov	r1, #0
30006f14:	e7821103 	str	r1, [r2, r3, lsl #2]
        if (ptcb->OSTCBPrev == (OS_TCB *)0) {                   
30006f18:	e51b300c 	ldr	r3, [fp, #-12]
30006f1c:	e5933004 	ldr	r3, [r3, #4]
30006f20:	e3530000 	cmp	r3, #0
30006f24:	1a000008 	bne	30006f4c <OSTaskDel+0x31c>
            ptcb->OSTCBNext->OSTCBPrev = (OS_TCB *)0;
30006f28:	e51b300c 	ldr	r3, [fp, #-12]
30006f2c:	e5933008 	ldr	r3, [r3, #8]
30006f30:	e3a02000 	mov	r2, #0
30006f34:	e5832004 	str	r2, [r3, #4]
            OSTCBList                  = ptcb->OSTCBNext;
30006f38:	e51b300c 	ldr	r3, [fp, #-12]
30006f3c:	e5933008 	ldr	r3, [r3, #8]
30006f40:	e59f2094 	ldr	r2, [pc, #148]	@ 30006fdc <OSTaskDel+0x3ac>
30006f44:	e5823000 	str	r3, [r2]
30006f48:	ea000009 	b	30006f74 <OSTaskDel+0x344>
        } 
        else {
            ptcb->OSTCBPrev->OSTCBNext = ptcb->OSTCBNext;
30006f4c:	e51b300c 	ldr	r3, [fp, #-12]
30006f50:	e5933004 	ldr	r3, [r3, #4]
30006f54:	e51b200c 	ldr	r2, [fp, #-12]
30006f58:	e5922008 	ldr	r2, [r2, #8]
30006f5c:	e5832008 	str	r2, [r3, #8]
            ptcb->OSTCBNext->OSTCBPrev = ptcb->OSTCBPrev;
30006f60:	e51b300c 	ldr	r3, [fp, #-12]
30006f64:	e5933008 	ldr	r3, [r3, #8]
30006f68:	e51b200c 	ldr	r2, [fp, #-12]
30006f6c:	e5922004 	ldr	r2, [r2, #4]
30006f70:	e5832004 	str	r2, [r3, #4]
        }
        ptcb->OSTCBNext = OSTCBFreeList;                        
30006f74:	e59f3064 	ldr	r3, [pc, #100]	@ 30006fe0 <OSTaskDel+0x3b0>
30006f78:	e5932000 	ldr	r2, [r3]
30006f7c:	e51b300c 	ldr	r3, [fp, #-12]
30006f80:	e5832008 	str	r2, [r3, #8]
        OSTCBFreeList   = ptcb;
30006f84:	e59f2054 	ldr	r2, [pc, #84]	@ 30006fe0 <OSTaskDel+0x3b0>
30006f88:	e51b300c 	ldr	r3, [fp, #-12]
30006f8c:	e5823000 	str	r3, [r2]
        OS_EXIT_CRITICAL();
30006f90:	e51b0008 	ldr	r0, [fp, #-8]
30006f94:	ebffe4e2 	bl	30000324 <OS_CPU_SR_Restore>
        OS_Sched();
30006f98:	ebffee2b 	bl	3000284c <OS_Sched>
        return (OS_NO_ERR);
30006f9c:	e3a03000 	mov	r3, #0
30006fa0:	ea000002 	b	30006fb0 <OSTaskDel+0x380>
    }
    OS_EXIT_CRITICAL();
30006fa4:	e51b0008 	ldr	r0, [fp, #-8]
30006fa8:	ebffe4dd 	bl	30000324 <OS_CPU_SR_Restore>
    return (OS_TASK_DEL_ERR);
30006fac:	e3a0303c 	mov	r3, #60	@ 0x3c
}
30006fb0:	e1a00003 	mov	r0, r3
30006fb4:	e24bd004 	sub	sp, fp, #4
30006fb8:	e8bd4800 	pop	{fp, lr}
30006fbc:	e12fff1e 	bx	lr
30006fc0:	3000aa6c 	.word	0x3000aa6c
30006fc4:	3000b394 	.word	0x3000b394
30006fc8:	3000b3a4 	.word	0x3000b3a4
30006fcc:	3000aa74 	.word	0x3000aa74
30006fd0:	3000aa71 	.word	0x3000aa71
30006fd4:	3000aa6e 	.word	0x3000aa6e
30006fd8:	3000aa7d 	.word	0x3000aa7d
30006fdc:	3000b3a0 	.word	0x3000b3a0
30006fe0:	3000b398 	.word	0x3000b398

30006fe4 <OSTaskDelReq>:
* :
* - 
*********************************************************************************************************
*/
INT8U  OSTaskDelReq (INT8U prio)
{
30006fe4:	e92d4800 	push	{fp, lr}
30006fe8:	e28db004 	add	fp, sp, #4
30006fec:	e24dd018 	sub	sp, sp, #24
30006ff0:	e1a03000 	mov	r3, r0
30006ff4:	e54b3015 	strb	r3, [fp, #-21]	@ 0xffffffeb
    OS_CPU_SR  cpu_sr;
    BOOLEAN    stat;
    INT8U      err;
    OS_TCB    *ptcb;

    if (prio == OS_IDLE_PRIO) {                                 
30006ff8:	e55b3015 	ldrb	r3, [fp, #-21]	@ 0xffffffeb
30006ffc:	e353003e 	cmp	r3, #62	@ 0x3e
30007000:	1a000001 	bne	3000700c <OSTaskDelReq+0x28>
        return (OS_TASK_DEL_IDLE);
30007004:	e3a0303d 	mov	r3, #61	@ 0x3d
30007008:	ea000028 	b	300070b0 <OSTaskDelReq+0xcc>
    }
    if (prio >= OS_LOWEST_PRIO && prio != OS_PRIO_SELF) {   
3000700c:	e55b3015 	ldrb	r3, [fp, #-21]	@ 0xffffffeb
30007010:	e353003d 	cmp	r3, #61	@ 0x3d
30007014:	9a000004 	bls	3000702c <OSTaskDelReq+0x48>
30007018:	e55b3015 	ldrb	r3, [fp, #-21]	@ 0xffffffeb
3000701c:	e35300ff 	cmp	r3, #255	@ 0xff
30007020:	0a000001 	beq	3000702c <OSTaskDelReq+0x48>
        return (OS_PRIO_INVALID);
30007024:	e3a0302a 	mov	r3, #42	@ 0x2a
30007028:	ea000020 	b	300070b0 <OSTaskDelReq+0xcc>
    }
    if (prio == OS_PRIO_SELF) {                               
3000702c:	e55b3015 	ldrb	r3, [fp, #-21]	@ 0xffffffeb
30007030:	e35300ff 	cmp	r3, #255	@ 0xff
30007034:	1a000009 	bne	30007060 <OSTaskDelReq+0x7c>
        OS_ENTER_CRITICAL();                           
30007038:	ebffe4b5 	bl	30000314 <OS_CPU_SR_Save>
3000703c:	e50b000c 	str	r0, [fp, #-12]
        stat = OSTCBCur->OSTCBDelReq;                         
30007040:	e59f3078 	ldr	r3, [pc, #120]	@ 300070c0 <OSTaskDelReq+0xdc>
30007044:	e5933000 	ldr	r3, [r3]
30007048:	e5d33024 	ldrb	r3, [r3, #36]	@ 0x24
3000704c:	e54b3011 	strb	r3, [fp, #-17]	@ 0xffffffef
        OS_EXIT_CRITICAL();
30007050:	e51b000c 	ldr	r0, [fp, #-12]
30007054:	ebffe4b2 	bl	30000324 <OS_CPU_SR_Restore>
        return (stat);
30007058:	e55b3011 	ldrb	r3, [fp, #-17]	@ 0xffffffef
3000705c:	ea000013 	b	300070b0 <OSTaskDelReq+0xcc>
    }
    OS_ENTER_CRITICAL();
30007060:	ebffe4ab 	bl	30000314 <OS_CPU_SR_Save>
30007064:	e50b000c 	str	r0, [fp, #-12]
    ptcb = OSTCBPrioTbl[prio];
30007068:	e55b3015 	ldrb	r3, [fp, #-21]	@ 0xffffffeb
3000706c:	e59f2050 	ldr	r2, [pc, #80]	@ 300070c4 <OSTaskDelReq+0xe0>
30007070:	e7923103 	ldr	r3, [r2, r3, lsl #2]
30007074:	e50b3010 	str	r3, [fp, #-16]
    if (ptcb != (OS_TCB *)0) {                                
30007078:	e51b3010 	ldr	r3, [fp, #-16]
3000707c:	e3530000 	cmp	r3, #0
30007080:	0a000005 	beq	3000709c <OSTaskDelReq+0xb8>
        ptcb->OSTCBDelReq = OS_TASK_DEL_REQ;                    
30007084:	e51b3010 	ldr	r3, [fp, #-16]
30007088:	e3a0203e 	mov	r2, #62	@ 0x3e
3000708c:	e5c32024 	strb	r2, [r3, #36]	@ 0x24
        err = OS_NO_ERR;
30007090:	e3a03000 	mov	r3, #0
30007094:	e54b3005 	strb	r3, [fp, #-5]
30007098:	ea000001 	b	300070a4 <OSTaskDelReq+0xc0>
    } 
    else {
        err = OS_TASK_NOT_EXIST;                 
3000709c:	e3a0300b 	mov	r3, #11
300070a0:	e54b3005 	strb	r3, [fp, #-5]
    }
    OS_EXIT_CRITICAL();
300070a4:	e51b000c 	ldr	r0, [fp, #-12]
300070a8:	ebffe49d 	bl	30000324 <OS_CPU_SR_Restore>
    return (err);
300070ac:	e55b3005 	ldrb	r3, [fp, #-5]
}
300070b0:	e1a00003 	mov	r0, r3
300070b4:	e24bd004 	sub	sp, fp, #4
300070b8:	e8bd4800 	pop	{fp, lr}
300070bc:	e12fff1e 	bx	lr
300070c0:	3000b394 	.word	0x3000b394
300070c4:	3000b3a4 	.word	0x3000b3a4

300070c8 <OSTaskResume>:
* :
* - 
*********************************************************************************************************
*/
INT8U  OSTaskResume (INT8U prio)
{
300070c8:	e92d4800 	push	{fp, lr}
300070cc:	e28db004 	add	fp, sp, #4
300070d0:	e24dd010 	sub	sp, sp, #16
300070d4:	e1a03000 	mov	r3, r0
300070d8:	e54b300d 	strb	r3, [fp, #-13]
    // 
    OS_CPU_SR cpu_sr;
    OS_TCB *ptcb;
    if(prio >= OS_LOWEST_PRIO){
300070dc:	e55b300d 	ldrb	r3, [fp, #-13]
300070e0:	e353003d 	cmp	r3, #61	@ 0x3d
300070e4:	9a000001 	bls	300070f0 <OSTaskResume+0x28>
        return (OS_PRIO_INVALID);
300070e8:	e3a0302a 	mov	r3, #42	@ 0x2a
300070ec:	ea00003f 	b	300071f0 <OSTaskResume+0x128>
    }
    OS_ENTER_CRITICAL();
300070f0:	ebffe487 	bl	30000314 <OS_CPU_SR_Save>
300070f4:	e50b0008 	str	r0, [fp, #-8]
    ptcb = OSTCBPrioTbl[prio];
300070f8:	e55b300d 	ldrb	r3, [fp, #-13]
300070fc:	e59f20fc 	ldr	r2, [pc, #252]	@ 30007200 <OSTaskResume+0x138>
30007100:	e7923103 	ldr	r3, [r2, r3, lsl #2]
30007104:	e50b300c 	str	r3, [fp, #-12]
    if(ptcb == (OS_TCB *)0){
30007108:	e51b300c 	ldr	r3, [fp, #-12]
3000710c:	e3530000 	cmp	r3, #0
30007110:	1a000003 	bne	30007124 <OSTaskResume+0x5c>
        OS_EXIT_CRITICAL();
30007114:	e51b0008 	ldr	r0, [fp, #-8]
30007118:	ebffe481 	bl	30000324 <OS_CPU_SR_Restore>
        return (OS_TASK_RESUME_PRIO);
3000711c:	e3a03064 	mov	r3, #100	@ 0x64
30007120:	ea000032 	b	300071f0 <OSTaskResume+0x128>
    }
    if((ptcb->OSTCBStat & OS_STAT_SUSPEND) != OS_STAT_RDY){
30007124:	e51b300c 	ldr	r3, [fp, #-12]
30007128:	e5d3301f 	ldrb	r3, [r3, #31]
3000712c:	e2033008 	and	r3, r3, #8
30007130:	e3530000 	cmp	r3, #0
30007134:	0a00002a 	beq	300071e4 <OSTaskResume+0x11c>
        if(((ptcb->OSTCBStat &= ~OS_STAT_SUSPEND) == OS_STAT_RDY) && (ptcb->OSTCBDly == 0)){
30007138:	e51b300c 	ldr	r3, [fp, #-12]
3000713c:	e5d3301f 	ldrb	r3, [r3, #31]
30007140:	e3c33008 	bic	r3, r3, #8
30007144:	e20320ff 	and	r2, r3, #255	@ 0xff
30007148:	e51b300c 	ldr	r3, [fp, #-12]
3000714c:	e5c3201f 	strb	r2, [r3, #31]
30007150:	e51b300c 	ldr	r3, [fp, #-12]
30007154:	e5d3301f 	ldrb	r3, [r3, #31]
30007158:	e3530000 	cmp	r3, #0
3000715c:	1a00001c 	bne	300071d4 <OSTaskResume+0x10c>
30007160:	e51b300c 	ldr	r3, [fp, #-12]
30007164:	e1d331bc 	ldrh	r3, [r3, #28]
30007168:	e3530000 	cmp	r3, #0
3000716c:	1a000018 	bne	300071d4 <OSTaskResume+0x10c>
            OSRdyGrp |= ptcb->OSTCBBitY;
30007170:	e51b300c 	ldr	r3, [fp, #-12]
30007174:	e5d32023 	ldrb	r2, [r3, #35]	@ 0x23
30007178:	e59f3084 	ldr	r3, [pc, #132]	@ 30007204 <OSTaskResume+0x13c>
3000717c:	e5d33000 	ldrb	r3, [r3]
30007180:	e1823003 	orr	r3, r2, r3
30007184:	e20320ff 	and	r2, r3, #255	@ 0xff
30007188:	e59f3074 	ldr	r3, [pc, #116]	@ 30007204 <OSTaskResume+0x13c>
3000718c:	e5c32000 	strb	r2, [r3]
            OSRdyTbl[ptcb->OSTCBY] |= ptcb->OSTCBBitX;
30007190:	e51b300c 	ldr	r3, [fp, #-12]
30007194:	e5d33021 	ldrb	r3, [r3, #33]	@ 0x21
30007198:	e1a02003 	mov	r2, r3
3000719c:	e59f3064 	ldr	r3, [pc, #100]	@ 30007208 <OSTaskResume+0x140>
300071a0:	e7d32002 	ldrb	r2, [r3, r2]
300071a4:	e51b300c 	ldr	r3, [fp, #-12]
300071a8:	e5d33022 	ldrb	r3, [r3, #34]	@ 0x22
300071ac:	e51b100c 	ldr	r1, [fp, #-12]
300071b0:	e5d11021 	ldrb	r1, [r1, #33]	@ 0x21
300071b4:	e1823003 	orr	r3, r2, r3
300071b8:	e20320ff 	and	r2, r3, #255	@ 0xff
300071bc:	e59f3044 	ldr	r3, [pc, #68]	@ 30007208 <OSTaskResume+0x140>
300071c0:	e7c32001 	strb	r2, [r3, r1]
            OS_EXIT_CRITICAL();
300071c4:	e51b0008 	ldr	r0, [fp, #-8]
300071c8:	ebffe455 	bl	30000324 <OS_CPU_SR_Restore>
            OS_Sched();
300071cc:	ebffed9e 	bl	3000284c <OS_Sched>
300071d0:	ea000001 	b	300071dc <OSTaskResume+0x114>
        }
        else{
            OS_EXIT_CRITICAL();
300071d4:	e51b0008 	ldr	r0, [fp, #-8]
300071d8:	ebffe451 	bl	30000324 <OS_CPU_SR_Restore>
        }
        return(OS_NO_ERR);
300071dc:	e3a03000 	mov	r3, #0
300071e0:	ea000002 	b	300071f0 <OSTaskResume+0x128>
    }
    OS_EXIT_CRITICAL();
300071e4:	e51b0008 	ldr	r0, [fp, #-8]
300071e8:	ebffe44d 	bl	30000324 <OS_CPU_SR_Restore>
    return (OS_TASK_NOT_SUSPENDED);
300071ec:	e3a03065 	mov	r3, #101	@ 0x65
}
300071f0:	e1a00003 	mov	r0, r3
300071f4:	e24bd004 	sub	sp, fp, #4
300071f8:	e8bd4800 	pop	{fp, lr}
300071fc:	e12fff1e 	bx	lr
30007200:	3000b3a4 	.word	0x3000b3a4
30007204:	3000aa71 	.word	0x3000aa71
30007208:	3000aa74 	.word	0x3000aa74

3000720c <OSTaskStkChk>:
* :
* -  (OS_STK_GROWTH) Mini2440 (ARM) OS_STK_GROWTH  1
*********************************************************************************************************
*/
INT8U  OSTaskStkChk (INT8U prio, OS_STK_DATA *p_data)
{
3000720c:	e52db004 	push	{fp}		@ (str fp, [sp, #-4]!)
30007210:	e28db000 	add	fp, sp, #0
30007214:	e24dd00c 	sub	sp, sp, #12
30007218:	e1a03000 	mov	r3, r0
3000721c:	e50b100c 	str	r1, [fp, #-12]
30007220:	e54b3005 	strb	r3, [fp, #-5]
    // 
    return (OS_NO_ERR);
30007224:	e3a03000 	mov	r3, #0
}
30007228:	e1a00003 	mov	r0, r3
3000722c:	e28bd000 	add	sp, fp, #0
30007230:	e49db004 	pop	{fp}		@ (ldr fp, [sp], #4)
30007234:	e12fff1e 	bx	lr

30007238 <OSTaskSuspend>:
* :
* - 
*********************************************************************************************************
*/
INT8U  OSTaskSuspend (INT8U prio)
{
30007238:	e92d4800 	push	{fp, lr}
3000723c:	e28db004 	add	fp, sp, #4
30007240:	e24dd018 	sub	sp, sp, #24
30007244:	e1a03000 	mov	r3, r0
30007248:	e54b3015 	strb	r3, [fp, #-21]	@ 0xffffffeb
    OS_CPU_SR cpu_sr;
    BOOLEAN self;
    OS_TCB *ptcb;

    if(prio == OS_IDLE_PRIO){
3000724c:	e55b3015 	ldrb	r3, [fp, #-21]	@ 0xffffffeb
30007250:	e353003e 	cmp	r3, #62	@ 0x3e
30007254:	1a000001 	bne	30007260 <OSTaskSuspend+0x28>
        return (OS_TASK_SUSPEND_IDLE);
30007258:	e3a0305b 	mov	r3, #91	@ 0x5b
3000725c:	ea000061 	b	300073e8 <OSTaskSuspend+0x1b0>
    }
    if(prio >= OS_LOWEST_PRIO && prio != OS_PRIO_SELF){
30007260:	e55b3015 	ldrb	r3, [fp, #-21]	@ 0xffffffeb
30007264:	e353003d 	cmp	r3, #61	@ 0x3d
30007268:	9a000004 	bls	30007280 <OSTaskSuspend+0x48>
3000726c:	e55b3015 	ldrb	r3, [fp, #-21]	@ 0xffffffeb
30007270:	e35300ff 	cmp	r3, #255	@ 0xff
30007274:	0a000001 	beq	30007280 <OSTaskSuspend+0x48>
        return (OS_PRIO_INVALID);
30007278:	e3a0302a 	mov	r3, #42	@ 0x2a
3000727c:	ea000059 	b	300073e8 <OSTaskSuspend+0x1b0>
    }
    OS_ENTER_CRITICAL();
30007280:	ebffe423 	bl	30000314 <OS_CPU_SR_Save>
30007284:	e50b000c 	str	r0, [fp, #-12]
    if(prio == OS_PRIO_SELF){
30007288:	e55b3015 	ldrb	r3, [fp, #-21]	@ 0xffffffeb
3000728c:	e35300ff 	cmp	r3, #255	@ 0xff
30007290:	1a000006 	bne	300072b0 <OSTaskSuspend+0x78>
        prio = OSTCBCur->OSTCBPrio;
30007294:	e59f315c 	ldr	r3, [pc, #348]	@ 300073f8 <OSTaskSuspend+0x1c0>
30007298:	e5933000 	ldr	r3, [r3]
3000729c:	e5d3301e 	ldrb	r3, [r3, #30]
300072a0:	e54b3015 	strb	r3, [fp, #-21]	@ 0xffffffeb
        self = TRUE;
300072a4:	e3a03001 	mov	r3, #1
300072a8:	e54b3005 	strb	r3, [fp, #-5]
300072ac:	ea00000a 	b	300072dc <OSTaskSuspend+0xa4>
    }
    else if(prio == OSTCBCur->OSTCBPrio){
300072b0:	e59f3140 	ldr	r3, [pc, #320]	@ 300073f8 <OSTaskSuspend+0x1c0>
300072b4:	e5933000 	ldr	r3, [r3]
300072b8:	e5d3301e 	ldrb	r3, [r3, #30]
300072bc:	e55b2015 	ldrb	r2, [fp, #-21]	@ 0xffffffeb
300072c0:	e1520003 	cmp	r2, r3
300072c4:	1a000002 	bne	300072d4 <OSTaskSuspend+0x9c>
        self = TRUE;
300072c8:	e3a03001 	mov	r3, #1
300072cc:	e54b3005 	strb	r3, [fp, #-5]
300072d0:	ea000001 	b	300072dc <OSTaskSuspend+0xa4>
    }
    else{
        self = TRUE;
300072d4:	e3a03001 	mov	r3, #1
300072d8:	e54b3005 	strb	r3, [fp, #-5]
    }
    ptcb = OSTCBPrioTbl[prio];
300072dc:	e55b3015 	ldrb	r3, [fp, #-21]	@ 0xffffffeb
300072e0:	e59f2114 	ldr	r2, [pc, #276]	@ 300073fc <OSTaskSuspend+0x1c4>
300072e4:	e7923103 	ldr	r3, [r2, r3, lsl #2]
300072e8:	e50b3010 	str	r3, [fp, #-16]
    if(ptcb == (OS_TCB *)0){
300072ec:	e51b3010 	ldr	r3, [fp, #-16]
300072f0:	e3530000 	cmp	r3, #0
300072f4:	1a000003 	bne	30007308 <OSTaskSuspend+0xd0>
        OS_EXIT_CRITICAL();
300072f8:	e51b000c 	ldr	r0, [fp, #-12]
300072fc:	ebffe408 	bl	30000324 <OS_CPU_SR_Restore>
        return (OS_TASK_SUSPEND_PRIO);
30007300:	e3a0305a 	mov	r3, #90	@ 0x5a
30007304:	ea000037 	b	300073e8 <OSTaskSuspend+0x1b0>
    }
    if((OSRdyTbl[ptcb->OSTCBY] &= ~ptcb->OSTCBBitX) == 0x00){
30007308:	e51b3010 	ldr	r3, [fp, #-16]
3000730c:	e5d33021 	ldrb	r3, [r3, #33]	@ 0x21
30007310:	e1a02003 	mov	r2, r3
30007314:	e59f30e4 	ldr	r3, [pc, #228]	@ 30007400 <OSTaskSuspend+0x1c8>
30007318:	e7d33002 	ldrb	r3, [r3, r2]
3000731c:	e1a03c03 	lsl	r3, r3, #24
30007320:	e1a02c43 	asr	r2, r3, #24
30007324:	e51b3010 	ldr	r3, [fp, #-16]
30007328:	e5d33022 	ldrb	r3, [r3, #34]	@ 0x22
3000732c:	e1a03c03 	lsl	r3, r3, #24
30007330:	e1a03c43 	asr	r3, r3, #24
30007334:	e1e03003 	mvn	r3, r3
30007338:	e1a03c03 	lsl	r3, r3, #24
3000733c:	e1a03c43 	asr	r3, r3, #24
30007340:	e0033002 	and	r3, r3, r2
30007344:	e1a03c03 	lsl	r3, r3, #24
30007348:	e1a02c43 	asr	r2, r3, #24
3000734c:	e51b3010 	ldr	r3, [fp, #-16]
30007350:	e5d33021 	ldrb	r3, [r3, #33]	@ 0x21
30007354:	e20210ff 	and	r1, r2, #255	@ 0xff
30007358:	e59f20a0 	ldr	r2, [pc, #160]	@ 30007400 <OSTaskSuspend+0x1c8>
3000735c:	e7c21003 	strb	r1, [r2, r3]
30007360:	e59f2098 	ldr	r2, [pc, #152]	@ 30007400 <OSTaskSuspend+0x1c8>
30007364:	e7d23003 	ldrb	r3, [r2, r3]
30007368:	e3530000 	cmp	r3, #0
3000736c:	1a000010 	bne	300073b4 <OSTaskSuspend+0x17c>
        OSRdyGrp &= ~ptcb->OSTCBBitY;
30007370:	e51b3010 	ldr	r3, [fp, #-16]
30007374:	e5d33023 	ldrb	r3, [r3, #35]	@ 0x23
30007378:	e1a03c03 	lsl	r3, r3, #24
3000737c:	e1a03c43 	asr	r3, r3, #24
30007380:	e1e03003 	mvn	r3, r3
30007384:	e1a03c03 	lsl	r3, r3, #24
30007388:	e1a02c43 	asr	r2, r3, #24
3000738c:	e59f3070 	ldr	r3, [pc, #112]	@ 30007404 <OSTaskSuspend+0x1cc>
30007390:	e5d33000 	ldrb	r3, [r3]
30007394:	e1a03c03 	lsl	r3, r3, #24
30007398:	e1a03c43 	asr	r3, r3, #24
3000739c:	e0033002 	and	r3, r3, r2
300073a0:	e1a03c03 	lsl	r3, r3, #24
300073a4:	e1a03c43 	asr	r3, r3, #24
300073a8:	e20320ff 	and	r2, r3, #255	@ 0xff
300073ac:	e59f3050 	ldr	r3, [pc, #80]	@ 30007404 <OSTaskSuspend+0x1cc>
300073b0:	e5c32000 	strb	r2, [r3]
    }
    ptcb->OSTCBStat |= OS_STAT_SUSPEND;
300073b4:	e51b3010 	ldr	r3, [fp, #-16]
300073b8:	e5d3301f 	ldrb	r3, [r3, #31]
300073bc:	e3833008 	orr	r3, r3, #8
300073c0:	e20320ff 	and	r2, r3, #255	@ 0xff
300073c4:	e51b3010 	ldr	r3, [fp, #-16]
300073c8:	e5c3201f 	strb	r2, [r3, #31]
    OS_EXIT_CRITICAL();
300073cc:	e51b000c 	ldr	r0, [fp, #-12]
300073d0:	ebffe3d3 	bl	30000324 <OS_CPU_SR_Restore>
    if(self == TRUE){
300073d4:	e55b3005 	ldrb	r3, [fp, #-5]
300073d8:	e3530001 	cmp	r3, #1
300073dc:	1a000000 	bne	300073e4 <OSTaskSuspend+0x1ac>
        OS_Sched();
300073e0:	ebffed19 	bl	3000284c <OS_Sched>
    }
    return (OS_NO_ERR);
300073e4:	e3a03000 	mov	r3, #0
}
300073e8:	e1a00003 	mov	r0, r3
300073ec:	e24bd004 	sub	sp, fp, #4
300073f0:	e8bd4800 	pop	{fp, lr}
300073f4:	e12fff1e 	bx	lr
300073f8:	3000b394 	.word	0x3000b394
300073fc:	3000b3a4 	.word	0x3000b3a4
30007400:	3000aa74 	.word	0x3000aa74
30007404:	3000aa71 	.word	0x3000aa71

30007408 <OSTaskQuery>:
* :
* - 
*********************************************************************************************************
*/
INT8U  OSTaskQuery (INT8U prio, OS_TCB *pdata)
{
30007408:	e92d4800 	push	{fp, lr}
3000740c:	e28db004 	add	fp, sp, #4
30007410:	e24dd010 	sub	sp, sp, #16
30007414:	e1a03000 	mov	r3, r0
30007418:	e50b1014 	str	r1, [fp, #-20]	@ 0xffffffec
3000741c:	e54b300d 	strb	r3, [fp, #-13]
    OS_CPU_SR  cpu_sr;
    OS_TCB    *ptcb;

    if (prio > OS_LOWEST_PRIO && prio != OS_PRIO_SELF) {   
30007420:	e55b300d 	ldrb	r3, [fp, #-13]
30007424:	e353003e 	cmp	r3, #62	@ 0x3e
30007428:	9a000004 	bls	30007440 <OSTaskQuery+0x38>
3000742c:	e55b300d 	ldrb	r3, [fp, #-13]
30007430:	e35300ff 	cmp	r3, #255	@ 0xff
30007434:	0a000001 	beq	30007440 <OSTaskQuery+0x38>
        return (OS_PRIO_INVALID);
30007438:	e3a0302a 	mov	r3, #42	@ 0x2a
3000743c:	ea000018 	b	300074a4 <OSTaskQuery+0x9c>
    }
    OS_ENTER_CRITICAL();
30007440:	ebffe3b3 	bl	30000314 <OS_CPU_SR_Save>
30007444:	e50b0008 	str	r0, [fp, #-8]
    if (prio == OS_PRIO_SELF) {                            
30007448:	e55b300d 	ldrb	r3, [fp, #-13]
3000744c:	e35300ff 	cmp	r3, #255	@ 0xff
30007450:	1a000003 	bne	30007464 <OSTaskQuery+0x5c>
        prio = OSTCBCur->OSTCBPrio;
30007454:	e59f3058 	ldr	r3, [pc, #88]	@ 300074b4 <OSTaskQuery+0xac>
30007458:	e5933000 	ldr	r3, [r3]
3000745c:	e5d3301e 	ldrb	r3, [r3, #30]
30007460:	e54b300d 	strb	r3, [fp, #-13]
    }
    ptcb = OSTCBPrioTbl[prio];
30007464:	e55b300d 	ldrb	r3, [fp, #-13]
30007468:	e59f2048 	ldr	r2, [pc, #72]	@ 300074b8 <OSTaskQuery+0xb0>
3000746c:	e7923103 	ldr	r3, [r2, r3, lsl #2]
30007470:	e50b300c 	str	r3, [fp, #-12]
    if (ptcb == (OS_TCB *)0) {                             
30007474:	e51b300c 	ldr	r3, [fp, #-12]
30007478:	e3530000 	cmp	r3, #0
3000747c:	1a000003 	bne	30007490 <OSTaskQuery+0x88>
        OS_EXIT_CRITICAL();
30007480:	e51b0008 	ldr	r0, [fp, #-8]
30007484:	ebffe3a6 	bl	30000324 <OS_CPU_SR_Restore>
        return (OS_PRIO_ERR);
30007488:	e3a03029 	mov	r3, #41	@ 0x29
3000748c:	ea000004 	b	300074a4 <OSTaskQuery+0x9c>
    }
    memcpy(pdata, ptcb, sizeof(OS_TCB));                   
30007490:	e3a02028 	mov	r2, #40	@ 0x28
30007494:	e51b100c 	ldr	r1, [fp, #-12]
30007498:	e51b0014 	ldr	r0, [fp, #-20]	@ 0xffffffec
3000749c:	eb00013e 	bl	3000799c <memcpy>
    return (OS_NO_ERR);
300074a0:	e3a03000 	mov	r3, #0
300074a4:	e1a00003 	mov	r0, r3
300074a8:	e24bd004 	sub	sp, fp, #4
300074ac:	e8bd4800 	pop	{fp, lr}
300074b0:	e12fff1e 	bx	lr
300074b4:	3000b394 	.word	0x3000b394
300074b8:	3000b3a4 	.word	0x3000b3a4

300074bc <OSTimeDly>:
* :
* - 
*********************************************************************************************************
*/
void  OSTimeDly (INT16U ticks)
{
300074bc:	e92d4800 	push	{fp, lr}
300074c0:	e28db004 	add	fp, sp, #4
300074c4:	e24dd010 	sub	sp, sp, #16
300074c8:	e1a03000 	mov	r3, r0
300074cc:	e14b30be 	strh	r3, [fp, #-14]
    OS_CPU_SR cpu_sr;
    if(ticks > 0){
300074d0:	e15b30be 	ldrh	r3, [fp, #-14]
300074d4:	e3530000 	cmp	r3, #0
300074d8:	0a000037 	beq	300075bc <OSTimeDly+0x100>
        OS_ENTER_CRITICAL();
300074dc:	ebffe38c 	bl	30000314 <OS_CPU_SR_Save>
300074e0:	e50b0008 	str	r0, [fp, #-8]
        if((OSRdyTbl[OSTCBCur->OSTCBY] &= ~(OSTCBCur->OSTCBBitX)) == 0){
300074e4:	e59f30e0 	ldr	r3, [pc, #224]	@ 300075cc <OSTimeDly+0x110>
300074e8:	e5933000 	ldr	r3, [r3]
300074ec:	e5d33021 	ldrb	r3, [r3, #33]	@ 0x21
300074f0:	e1a02003 	mov	r2, r3
300074f4:	e59f30d4 	ldr	r3, [pc, #212]	@ 300075d0 <OSTimeDly+0x114>
300074f8:	e7d33002 	ldrb	r3, [r3, r2]
300074fc:	e1a03c03 	lsl	r3, r3, #24
30007500:	e1a02c43 	asr	r2, r3, #24
30007504:	e59f30c0 	ldr	r3, [pc, #192]	@ 300075cc <OSTimeDly+0x110>
30007508:	e5933000 	ldr	r3, [r3]
3000750c:	e5d33022 	ldrb	r3, [r3, #34]	@ 0x22
30007510:	e1a03c03 	lsl	r3, r3, #24
30007514:	e1a03c43 	asr	r3, r3, #24
30007518:	e1e03003 	mvn	r3, r3
3000751c:	e1a03c03 	lsl	r3, r3, #24
30007520:	e1a03c43 	asr	r3, r3, #24
30007524:	e0033002 	and	r3, r3, r2
30007528:	e1a03c03 	lsl	r3, r3, #24
3000752c:	e1a02c43 	asr	r2, r3, #24
30007530:	e59f3094 	ldr	r3, [pc, #148]	@ 300075cc <OSTimeDly+0x110>
30007534:	e5933000 	ldr	r3, [r3]
30007538:	e5d33021 	ldrb	r3, [r3, #33]	@ 0x21
3000753c:	e20210ff 	and	r1, r2, #255	@ 0xff
30007540:	e59f2088 	ldr	r2, [pc, #136]	@ 300075d0 <OSTimeDly+0x114>
30007544:	e7c21003 	strb	r1, [r2, r3]
30007548:	e59f2080 	ldr	r2, [pc, #128]	@ 300075d0 <OSTimeDly+0x114>
3000754c:	e7d23003 	ldrb	r3, [r2, r3]
30007550:	e3530000 	cmp	r3, #0
30007554:	1a000011 	bne	300075a0 <OSTimeDly+0xe4>
            OSRdyGrp &= ~(OSTCBCur->OSTCBBitY);
30007558:	e59f306c 	ldr	r3, [pc, #108]	@ 300075cc <OSTimeDly+0x110>
3000755c:	e5933000 	ldr	r3, [r3]
30007560:	e5d33023 	ldrb	r3, [r3, #35]	@ 0x23
30007564:	e1a03c03 	lsl	r3, r3, #24
30007568:	e1a03c43 	asr	r3, r3, #24
3000756c:	e1e03003 	mvn	r3, r3
30007570:	e1a03c03 	lsl	r3, r3, #24
30007574:	e1a02c43 	asr	r2, r3, #24
30007578:	e59f3054 	ldr	r3, [pc, #84]	@ 300075d4 <OSTimeDly+0x118>
3000757c:	e5d33000 	ldrb	r3, [r3]
30007580:	e1a03c03 	lsl	r3, r3, #24
30007584:	e1a03c43 	asr	r3, r3, #24
30007588:	e0033002 	and	r3, r3, r2
3000758c:	e1a03c03 	lsl	r3, r3, #24
30007590:	e1a03c43 	asr	r3, r3, #24
30007594:	e20320ff 	and	r2, r3, #255	@ 0xff
30007598:	e59f3034 	ldr	r3, [pc, #52]	@ 300075d4 <OSTimeDly+0x118>
3000759c:	e5c32000 	strb	r2, [r3]
        }
        OSTCBCur->OSTCBDly = ticks;
300075a0:	e59f3024 	ldr	r3, [pc, #36]	@ 300075cc <OSTimeDly+0x110>
300075a4:	e5933000 	ldr	r3, [r3]
300075a8:	e15b20be 	ldrh	r2, [fp, #-14]
300075ac:	e1c321bc 	strh	r2, [r3, #28]
        OS_EXIT_CRITICAL();
300075b0:	e51b0008 	ldr	r0, [fp, #-8]
300075b4:	ebffe35a 	bl	30000324 <OS_CPU_SR_Restore>
        OS_Sched();
300075b8:	ebffeca3 	bl	3000284c <OS_Sched>
    }
}
300075bc:	e1a00000 	nop			@ (mov r0, r0)
300075c0:	e24bd004 	sub	sp, fp, #4
300075c4:	e8bd4800 	pop	{fp, lr}
300075c8:	e12fff1e 	bx	lr
300075cc:	3000b394 	.word	0x3000b394
300075d0:	3000aa74 	.word	0x3000aa74
300075d4:	3000aa71 	.word	0x3000aa71

300075d8 <OSTimeDlyHMSM>:
* :
* -  32 Mini2440 (ARM9) 
*********************************************************************************************************
*/
INT8U  OSTimeDlyHMSM (INT8U hours, INT8U minutes, INT8U seconds, INT16U milli)
{
300075d8:	e92d4800 	push	{fp, lr}
300075dc:	e28db004 	add	fp, sp, #4
300075e0:	e24dd010 	sub	sp, sp, #16
300075e4:	e1a0c000 	mov	ip, r0
300075e8:	e1a00001 	mov	r0, r1
300075ec:	e1a01002 	mov	r1, r2
300075f0:	e1a02003 	mov	r2, r3
300075f4:	e1a0300c 	mov	r3, ip
300075f8:	e54b300d 	strb	r3, [fp, #-13]
300075fc:	e1a03000 	mov	r3, r0
30007600:	e54b300e 	strb	r3, [fp, #-14]
30007604:	e1a03001 	mov	r3, r1
30007608:	e54b300f 	strb	r3, [fp, #-15]
3000760c:	e1a03002 	mov	r3, r2
30007610:	e14b31b2 	strh	r3, [fp, #-18]	@ 0xffffffee
    // 
    INT32U ticks;
    INT16U loops;

    if (hours > 0 || minutes > 0 || seconds > 0 || milli > 0) {
30007614:	e55b300d 	ldrb	r3, [fp, #-13]
30007618:	e3530000 	cmp	r3, #0
3000761c:	1a000008 	bne	30007644 <OSTimeDlyHMSM+0x6c>
30007620:	e55b300e 	ldrb	r3, [fp, #-14]
30007624:	e3530000 	cmp	r3, #0
30007628:	1a000005 	bne	30007644 <OSTimeDlyHMSM+0x6c>
3000762c:	e55b300f 	ldrb	r3, [fp, #-15]
30007630:	e3530000 	cmp	r3, #0
30007634:	1a000002 	bne	30007644 <OSTimeDlyHMSM+0x6c>
30007638:	e15b31b2 	ldrh	r3, [fp, #-18]	@ 0xffffffee
3000763c:	e3530000 	cmp	r3, #0
30007640:	0a00004c 	beq	30007778 <OSTimeDlyHMSM+0x1a0>
        if (minutes > 59) {
30007644:	e55b300e 	ldrb	r3, [fp, #-14]
30007648:	e353003b 	cmp	r3, #59	@ 0x3b
3000764c:	9a000001 	bls	30007658 <OSTimeDlyHMSM+0x80>
            return (OS_TIME_INVALID_MINUTES);    /* Validate arguments to be within range              */
30007650:	e3a03051 	mov	r3, #81	@ 0x51
30007654:	ea000048 	b	3000777c <OSTimeDlyHMSM+0x1a4>
        }
        if (seconds > 59) {
30007658:	e55b300f 	ldrb	r3, [fp, #-15]
3000765c:	e353003b 	cmp	r3, #59	@ 0x3b
30007660:	9a000001 	bls	3000766c <OSTimeDlyHMSM+0x94>
            return (OS_TIME_INVALID_SECONDS);
30007664:	e3a03052 	mov	r3, #82	@ 0x52
30007668:	ea000043 	b	3000777c <OSTimeDlyHMSM+0x1a4>
        }
        if (milli > 999) {
3000766c:	e15b31b2 	ldrh	r3, [fp, #-18]	@ 0xffffffee
30007670:	e3530ffa 	cmp	r3, #1000	@ 0x3e8
30007674:	3a000001 	bcc	30007680 <OSTimeDlyHMSM+0xa8>
            return (OS_TIME_INVALID_MILLI);
30007678:	e3a03053 	mov	r3, #83	@ 0x53
3000767c:	ea00003e 	b	3000777c <OSTimeDlyHMSM+0x1a4>
        }
                                                /* Compute the total number of clock ticks required.. */
                                                /* .. (rounded to the nearest tick)                   */
        ticks = ((INT32U)hours * 3600L + (INT32U)minutes * 60L + (INT32U)seconds) * OS_TICKS_PER_SEC
30007680:	e55b200d 	ldrb	r2, [fp, #-13]
30007684:	e1a03002 	mov	r3, r2
30007688:	e1a03203 	lsl	r3, r3, #4
3000768c:	e0433002 	sub	r3, r3, r2
30007690:	e1a02203 	lsl	r2, r3, #4
30007694:	e0422003 	sub	r2, r2, r3
30007698:	e1a03202 	lsl	r3, r2, #4
3000769c:	e1a02003 	mov	r2, r3
300076a0:	e1a01002 	mov	r1, r2
300076a4:	e55b200e 	ldrb	r2, [fp, #-14]
300076a8:	e1a03002 	mov	r3, r2
300076ac:	e1a03203 	lsl	r3, r3, #4
300076b0:	e0433002 	sub	r3, r3, r2
300076b4:	e1a03103 	lsl	r3, r3, #2
300076b8:	e0812003 	add	r2, r1, r3
300076bc:	e55b300f 	ldrb	r3, [fp, #-15]
300076c0:	e0822003 	add	r2, r2, r3
300076c4:	e1a03002 	mov	r3, r2
300076c8:	e1a03103 	lsl	r3, r3, #2
300076cc:	e0833002 	add	r3, r3, r2
300076d0:	e1a02103 	lsl	r2, r3, #2
300076d4:	e0833002 	add	r3, r3, r2
300076d8:	e1a03083 	lsl	r3, r3, #1
300076dc:	e1a01003 	mov	r1, r3
            + OS_TICKS_PER_SEC * ((INT32U)milli + 500L / OS_TICKS_PER_SEC) / 1000L;
300076e0:	e15b21b2 	ldrh	r2, [fp, #-18]	@ 0xffffffee
300076e4:	e1a03002 	mov	r3, r2
300076e8:	e1a03103 	lsl	r3, r3, #2
300076ec:	e0833002 	add	r3, r3, r2
300076f0:	e1a02103 	lsl	r2, r3, #2
300076f4:	e0833002 	add	r3, r3, r2
300076f8:	e1a03083 	lsl	r3, r3, #1
300076fc:	e2833f7d 	add	r3, r3, #500	@ 0x1f4
30007700:	e59f2084 	ldr	r2, [pc, #132]	@ 3000778c <OSTimeDlyHMSM+0x1b4>
30007704:	e0830392 	umull	r0, r3, r2, r3
30007708:	e1a03323 	lsr	r3, r3, #6
        ticks = ((INT32U)hours * 3600L + (INT32U)minutes * 60L + (INT32U)seconds) * OS_TICKS_PER_SEC
3000770c:	e0813003 	add	r3, r1, r3
30007710:	e50b300c 	str	r3, [fp, #-12]
        loops = (INT16U)(ticks / 65536L);        /* Compute the integral number of 65536 tick delays   */
30007714:	e51b300c 	ldr	r3, [fp, #-12]
30007718:	e1a03823 	lsr	r3, r3, #16
3000771c:	e14b30b6 	strh	r3, [fp, #-6]
        ticks = ticks % 65536L;                  /* Obtain  the fractional number of ticks             */
30007720:	e51b300c 	ldr	r3, [fp, #-12]
30007724:	e1a03803 	lsl	r3, r3, #16
30007728:	e1a03823 	lsr	r3, r3, #16
3000772c:	e50b300c 	str	r3, [fp, #-12]
        OSTimeDly((INT16U)ticks);
30007730:	e51b300c 	ldr	r3, [fp, #-12]
30007734:	e1a03803 	lsl	r3, r3, #16
30007738:	e1a03823 	lsr	r3, r3, #16
3000773c:	e1a00003 	mov	r0, r3
30007740:	ebffff5d 	bl	300074bc <OSTimeDly>
        while (loops > 0) {
30007744:	ea000006 	b	30007764 <OSTimeDlyHMSM+0x18c>
            OSTimeDly(32768);
30007748:	e3a00902 	mov	r0, #32768	@ 0x8000
3000774c:	ebffff5a 	bl	300074bc <OSTimeDly>
            OSTimeDly(32768);
30007750:	e3a00902 	mov	r0, #32768	@ 0x8000
30007754:	ebffff58 	bl	300074bc <OSTimeDly>
            loops--;
30007758:	e15b30b6 	ldrh	r3, [fp, #-6]
3000775c:	e2433001 	sub	r3, r3, #1
30007760:	e14b30b6 	strh	r3, [fp, #-6]
        while (loops > 0) {
30007764:	e15b30b6 	ldrh	r3, [fp, #-6]
30007768:	e3530000 	cmp	r3, #0
3000776c:	1afffff5 	bne	30007748 <OSTimeDlyHMSM+0x170>
        }
        return (OS_NO_ERR);
30007770:	e3a03000 	mov	r3, #0
30007774:	ea000000 	b	3000777c <OSTimeDlyHMSM+0x1a4>
    }
    return (OS_TIME_ZERO_DLY);
30007778:	e3a03054 	mov	r3, #84	@ 0x54
}
3000777c:	e1a00003 	mov	r0, r3
30007780:	e24bd004 	sub	sp, fp, #4
30007784:	e8bd4800 	pop	{fp, lr}
30007788:	e12fff1e 	bx	lr
3000778c:	10624dd3 	.word	0x10624dd3

30007790 <OSTimeDlyResume>:
* :
* - 
*********************************************************************************************************
*/
INT8U  OSTimeDlyResume (INT8U prio)
{
30007790:	e92d4800 	push	{fp, lr}
30007794:	e28db004 	add	fp, sp, #4
30007798:	e24dd010 	sub	sp, sp, #16
3000779c:	e1a03000 	mov	r3, r0
300077a0:	e54b300d 	strb	r3, [fp, #-13]
    OS_CPU_SR  cpu_sr; 
    OS_TCB    *ptcb;

    if (prio >= OS_LOWEST_PRIO) {
300077a4:	e55b300d 	ldrb	r3, [fp, #-13]
300077a8:	e353003d 	cmp	r3, #61	@ 0x3d
300077ac:	9a000001 	bls	300077b8 <OSTimeDlyResume+0x28>
        return (OS_PRIO_INVALID);
300077b0:	e3a0302a 	mov	r3, #42	@ 0x2a
300077b4:	ea000038 	b	3000789c <OSTimeDlyResume+0x10c>
    }
    OS_ENTER_CRITICAL();
300077b8:	ebffe2d5 	bl	30000314 <OS_CPU_SR_Save>
300077bc:	e50b0008 	str	r0, [fp, #-8]
    ptcb = (OS_TCB *)OSTCBPrioTbl[prio];                   /* Make sure that task exist                */
300077c0:	e55b300d 	ldrb	r3, [fp, #-13]
300077c4:	e59f20e0 	ldr	r2, [pc, #224]	@ 300078ac <OSTimeDlyResume+0x11c>
300077c8:	e7923103 	ldr	r3, [r2, r3, lsl #2]
300077cc:	e50b300c 	str	r3, [fp, #-12]
    if (ptcb != (OS_TCB *)0) {
300077d0:	e51b300c 	ldr	r3, [fp, #-12]
300077d4:	e3530000 	cmp	r3, #0
300077d8:	0a00002c 	beq	30007890 <OSTimeDlyResume+0x100>
        if (ptcb->OSTCBDly != 0) {                         /* See if task is delayed                   */
300077dc:	e51b300c 	ldr	r3, [fp, #-12]
300077e0:	e1d331bc 	ldrh	r3, [r3, #28]
300077e4:	e3530000 	cmp	r3, #0
300077e8:	0a000024 	beq	30007880 <OSTimeDlyResume+0xf0>
            ptcb->OSTCBDly  = 0;                           /* Clear the time delay                     */
300077ec:	e51b300c 	ldr	r3, [fp, #-12]
300077f0:	e3a02000 	mov	r2, #0
300077f4:	e1c321bc 	strh	r2, [r3, #28]
            if ((ptcb->OSTCBStat & OS_STAT_SUSPEND) == OS_STAT_RDY) {  /* See if task is ready to run  */
300077f8:	e51b300c 	ldr	r3, [fp, #-12]
300077fc:	e5d3301f 	ldrb	r3, [r3, #31]
30007800:	e2033008 	and	r3, r3, #8
30007804:	e3530000 	cmp	r3, #0
30007808:	1a000018 	bne	30007870 <OSTimeDlyResume+0xe0>
                OSRdyGrp               |= ptcb->OSTCBBitY;             /* Make task ready to run       */
3000780c:	e51b300c 	ldr	r3, [fp, #-12]
30007810:	e5d32023 	ldrb	r2, [r3, #35]	@ 0x23
30007814:	e59f3094 	ldr	r3, [pc, #148]	@ 300078b0 <OSTimeDlyResume+0x120>
30007818:	e5d33000 	ldrb	r3, [r3]
3000781c:	e1823003 	orr	r3, r2, r3
30007820:	e20320ff 	and	r2, r3, #255	@ 0xff
30007824:	e59f3084 	ldr	r3, [pc, #132]	@ 300078b0 <OSTimeDlyResume+0x120>
30007828:	e5c32000 	strb	r2, [r3]
                OSRdyTbl[ptcb->OSTCBY] |= ptcb->OSTCBBitX;
3000782c:	e51b300c 	ldr	r3, [fp, #-12]
30007830:	e5d33021 	ldrb	r3, [r3, #33]	@ 0x21
30007834:	e1a02003 	mov	r2, r3
30007838:	e59f3074 	ldr	r3, [pc, #116]	@ 300078b4 <OSTimeDlyResume+0x124>
3000783c:	e7d32002 	ldrb	r2, [r3, r2]
30007840:	e51b300c 	ldr	r3, [fp, #-12]
30007844:	e5d33022 	ldrb	r3, [r3, #34]	@ 0x22
30007848:	e51b100c 	ldr	r1, [fp, #-12]
3000784c:	e5d11021 	ldrb	r1, [r1, #33]	@ 0x21
30007850:	e1823003 	orr	r3, r2, r3
30007854:	e20320ff 	and	r2, r3, #255	@ 0xff
30007858:	e59f3054 	ldr	r3, [pc, #84]	@ 300078b4 <OSTimeDlyResume+0x124>
3000785c:	e7c32001 	strb	r2, [r3, r1]
                OS_EXIT_CRITICAL();
30007860:	e51b0008 	ldr	r0, [fp, #-8]
30007864:	ebffe2ae 	bl	30000324 <OS_CPU_SR_Restore>
                OS_Sched();                                /* See if this is new highest priority      */
30007868:	ebffebf7 	bl	3000284c <OS_Sched>
3000786c:	ea000001 	b	30007878 <OSTimeDlyResume+0xe8>
            } else {
                OS_EXIT_CRITICAL();                        /* Task may be suspended                    */
30007870:	e51b0008 	ldr	r0, [fp, #-8]
30007874:	ebffe2aa 	bl	30000324 <OS_CPU_SR_Restore>
            }
            return (OS_NO_ERR);
30007878:	e3a03000 	mov	r3, #0
3000787c:	ea000006 	b	3000789c <OSTimeDlyResume+0x10c>
        } else {
            OS_EXIT_CRITICAL();
30007880:	e51b0008 	ldr	r0, [fp, #-8]
30007884:	ebffe2a6 	bl	30000324 <OS_CPU_SR_Restore>
            return (OS_TIME_NOT_DLY);                      /* Indicate that task was not delayed       */
30007888:	e3a03050 	mov	r3, #80	@ 0x50
3000788c:	ea000002 	b	3000789c <OSTimeDlyResume+0x10c>
        }
    }
    OS_EXIT_CRITICAL();
30007890:	e51b0008 	ldr	r0, [fp, #-8]
30007894:	ebffe2a2 	bl	30000324 <OS_CPU_SR_Restore>
    return (OS_TASK_NOT_EXIST);                            /* The task does not exist                  */
30007898:	e3a0300b 	mov	r3, #11
}
3000789c:	e1a00003 	mov	r0, r3
300078a0:	e24bd004 	sub	sp, fp, #4
300078a4:	e8bd4800 	pop	{fp, lr}
300078a8:	e12fff1e 	bx	lr
300078ac:	3000b3a4 	.word	0x3000b3a4
300078b0:	3000aa71 	.word	0x3000aa71
300078b4:	3000aa74 	.word	0x3000aa74

300078b8 <OSTimeGet>:
* :
* -  32  (Mini2440)  32 
*********************************************************************************************************
*/
INT32U  OSTimeGet (void)
{
300078b8:	e92d4800 	push	{fp, lr}
300078bc:	e28db004 	add	fp, sp, #4
300078c0:	e24dd008 	sub	sp, sp, #8
    // 
    OS_CPU_SR cpu_sr;
    INT32U ticks;
    OS_ENTER_CRITICAL();
300078c4:	ebffe292 	bl	30000314 <OS_CPU_SR_Save>
300078c8:	e50b0008 	str	r0, [fp, #-8]
    ticks = OSTime;
300078cc:	e59f3020 	ldr	r3, [pc, #32]	@ 300078f4 <OSTimeGet+0x3c>
300078d0:	e5933000 	ldr	r3, [r3]
300078d4:	e50b300c 	str	r3, [fp, #-12]
    OS_EXIT_CRITICAL();
300078d8:	e51b0008 	ldr	r0, [fp, #-8]
300078dc:	ebffe290 	bl	30000324 <OS_CPU_SR_Restore>
    return (ticks);
300078e0:	e51b300c 	ldr	r3, [fp, #-12]
}
300078e4:	e1a00003 	mov	r0, r3
300078e8:	e24bd004 	sub	sp, fp, #4
300078ec:	e8bd4800 	pop	{fp, lr}
300078f0:	e12fff1e 	bx	lr
300078f4:	3000aa68 	.word	0x3000aa68

300078f8 <OSTimeSet>:
* :
* -  OSTimeGet
*********************************************************************************************************
*/
void  OSTimeSet (INT32U ticks)
{
300078f8:	e92d4800 	push	{fp, lr}
300078fc:	e28db004 	add	fp, sp, #4
30007900:	e24dd010 	sub	sp, sp, #16
30007904:	e50b0010 	str	r0, [fp, #-16]
    OS_CPU_SR  cpu_sr;
    OS_ENTER_CRITICAL();
30007908:	ebffe281 	bl	30000314 <OS_CPU_SR_Save>
3000790c:	e50b0008 	str	r0, [fp, #-8]
    OSTime = ticks;
30007910:	e59f201c 	ldr	r2, [pc, #28]	@ 30007934 <OSTimeSet+0x3c>
30007914:	e51b3010 	ldr	r3, [fp, #-16]
30007918:	e5823000 	str	r3, [r2]
    OS_EXIT_CRITICAL();
3000791c:	e51b0008 	ldr	r0, [fp, #-8]
30007920:	ebffe27f 	bl	30000324 <OS_CPU_SR_Restore>
30007924:	e1a00000 	nop			@ (mov r0, r0)
30007928:	e24bd004 	sub	sp, fp, #4
3000792c:	e8bd4800 	pop	{fp, lr}
30007930:	e12fff1e 	bx	lr
30007934:	3000aa68 	.word	0x3000aa68

30007938 <memset>:
* : 
* : OS_EventWaitListInit 
*********************************************************************************************************
*/
void *memset(void *s, int c, unsigned int count)
{
30007938:	e52db004 	push	{fp}		@ (str fp, [sp, #-4]!)
3000793c:	e28db000 	add	fp, sp, #0
30007940:	e24dd01c 	sub	sp, sp, #28
30007944:	e50b0010 	str	r0, [fp, #-16]
30007948:	e50b1014 	str	r1, [fp, #-20]	@ 0xffffffec
3000794c:	e50b2018 	str	r2, [fp, #-24]	@ 0xffffffe8
    char *xs = (char *)s; 
30007950:	e51b3010 	ldr	r3, [fp, #-16]
30007954:	e50b3008 	str	r3, [fp, #-8]
    while (count--) {
30007958:	ea000005 	b	30007974 <memset+0x3c>
        *xs++ = c;
3000795c:	e51b3008 	ldr	r3, [fp, #-8]
30007960:	e2832001 	add	r2, r3, #1
30007964:	e50b2008 	str	r2, [fp, #-8]
30007968:	e51b2014 	ldr	r2, [fp, #-20]	@ 0xffffffec
3000796c:	e20220ff 	and	r2, r2, #255	@ 0xff
30007970:	e5c32000 	strb	r2, [r3]
    while (count--) {
30007974:	e51b3018 	ldr	r3, [fp, #-24]	@ 0xffffffe8
30007978:	e2432001 	sub	r2, r3, #1
3000797c:	e50b2018 	str	r2, [fp, #-24]	@ 0xffffffe8
30007980:	e3530000 	cmp	r3, #0
30007984:	1afffff4 	bne	3000795c <memset+0x24>
    }
    return s;
30007988:	e51b3010 	ldr	r3, [fp, #-16]
}
3000798c:	e1a00003 	mov	r0, r3
30007990:	e28bd000 	add	sp, fp, #0
30007994:	e49db004 	pop	{fp}		@ (ldr fp, [sp], #4)
30007998:	e12fff1e 	bx	lr

3000799c <memcpy>:
* : OSTaskQuery  TCB
* :  ARM 32 4 
*********************************************************************************************************
*/
void *memcpy(void *dest, const void *src, unsigned int count)
{
3000799c:	e52db004 	push	{fp}		@ (str fp, [sp, #-4]!)
300079a0:	e28db000 	add	fp, sp, #0
300079a4:	e24dd024 	sub	sp, sp, #36	@ 0x24
300079a8:	e50b0018 	str	r0, [fp, #-24]	@ 0xffffffe8
300079ac:	e50b101c 	str	r1, [fp, #-28]	@ 0xffffffe4
300079b0:	e50b2020 	str	r2, [fp, #-32]	@ 0xffffffe0
    char *tmp = (char *)dest;
300079b4:	e51b3018 	ldr	r3, [fp, #-24]	@ 0xffffffe8
300079b8:	e50b3008 	str	r3, [fp, #-8]
    const char *s = (const char *)src;
300079bc:	e51b301c 	ldr	r3, [fp, #-28]	@ 0xffffffe4
300079c0:	e50b300c 	str	r3, [fp, #-12]

    // 1.  4  >= 4 int  (4)
    if ((((unsigned int)dest & 3) == 0) && 
300079c4:	e51b3018 	ldr	r3, [fp, #-24]	@ 0xffffffe8
300079c8:	e2033003 	and	r3, r3, #3
300079cc:	e3530000 	cmp	r3, #0
300079d0:	1a000026 	bne	30007a70 <memcpy+0xd4>
        (((unsigned int)src  & 3) == 0) && 
300079d4:	e51b301c 	ldr	r3, [fp, #-28]	@ 0xffffffe4
300079d8:	e2033003 	and	r3, r3, #3
    if ((((unsigned int)dest & 3) == 0) && 
300079dc:	e3530000 	cmp	r3, #0
300079e0:	1a000022 	bne	30007a70 <memcpy+0xd4>
        (((unsigned int)src  & 3) == 0) && 
300079e4:	e51b3020 	ldr	r3, [fp, #-32]	@ 0xffffffe0
300079e8:	e3530003 	cmp	r3, #3
300079ec:	9a00001f 	bls	30007a70 <memcpy+0xd4>
        (count >= 4)) 
    {
        unsigned int *d_32 = (unsigned int *)dest;
300079f0:	e51b3018 	ldr	r3, [fp, #-24]	@ 0xffffffe8
300079f4:	e50b3010 	str	r3, [fp, #-16]
        const unsigned int *s_32 = (const unsigned int *)src;
300079f8:	e51b301c 	ldr	r3, [fp, #-28]	@ 0xffffffe4
300079fc:	e50b3014 	str	r3, [fp, #-20]	@ 0xffffffec
        
        while (count >= 4) {
30007a00:	ea00000a 	b	30007a30 <memcpy+0x94>
            *d_32++ = *s_32++;
30007a04:	e51b2014 	ldr	r2, [fp, #-20]	@ 0xffffffec
30007a08:	e2823004 	add	r3, r2, #4
30007a0c:	e50b3014 	str	r3, [fp, #-20]	@ 0xffffffec
30007a10:	e51b3010 	ldr	r3, [fp, #-16]
30007a14:	e2831004 	add	r1, r3, #4
30007a18:	e50b1010 	str	r1, [fp, #-16]
30007a1c:	e5922000 	ldr	r2, [r2]
30007a20:	e5832000 	str	r2, [r3]
            count -= 4;
30007a24:	e51b3020 	ldr	r3, [fp, #-32]	@ 0xffffffe0
30007a28:	e2433004 	sub	r3, r3, #4
30007a2c:	e50b3020 	str	r3, [fp, #-32]	@ 0xffffffe0
        while (count >= 4) {
30007a30:	e51b3020 	ldr	r3, [fp, #-32]	@ 0xffffffe0
30007a34:	e3530003 	cmp	r3, #3
30007a38:	8afffff1 	bhi	30007a04 <memcpy+0x68>
        }
        
        // 
        tmp = (char *)d_32;
30007a3c:	e51b3010 	ldr	r3, [fp, #-16]
30007a40:	e50b3008 	str	r3, [fp, #-8]
        s   = (char *)s_32;
30007a44:	e51b3014 	ldr	r3, [fp, #-20]	@ 0xffffffec
30007a48:	e50b300c 	str	r3, [fp, #-12]
    }

    // 2.  ()
    while (count--) {
30007a4c:	ea000007 	b	30007a70 <memcpy+0xd4>
        *tmp++ = *s++;
30007a50:	e51b200c 	ldr	r2, [fp, #-12]
30007a54:	e2823001 	add	r3, r2, #1
30007a58:	e50b300c 	str	r3, [fp, #-12]
30007a5c:	e51b3008 	ldr	r3, [fp, #-8]
30007a60:	e2831001 	add	r1, r3, #1
30007a64:	e50b1008 	str	r1, [fp, #-8]
30007a68:	e5d22000 	ldrb	r2, [r2]
30007a6c:	e5c32000 	strb	r2, [r3]
    while (count--) {
30007a70:	e51b3020 	ldr	r3, [fp, #-32]	@ 0xffffffe0
30007a74:	e2432001 	sub	r2, r3, #1
30007a78:	e50b2020 	str	r2, [fp, #-32]	@ 0xffffffe0
30007a7c:	e3530000 	cmp	r3, #0
30007a80:	1afffff2 	bne	30007a50 <memcpy+0xb4>
    }

    return dest;
30007a84:	e51b3018 	ldr	r3, [fp, #-24]	@ 0xffffffe8
30007a88:	e1a00003 	mov	r0, r3
30007a8c:	e28bd000 	add	sp, fp, #0
30007a90:	e49db004 	pop	{fp}		@ (ldr fp, [sp], #4)
30007a94:	e12fff1e 	bx	lr

30007a98 <__udivsi3>:
30007a98:	e2512001 	subs	r2, r1, #1
30007a9c:	012fff1e 	bxeq	lr
30007aa0:	3a000036 	bcc	30007b80 <__udivsi3+0xe8>
30007aa4:	e1500001 	cmp	r0, r1
30007aa8:	9a000022 	bls	30007b38 <__udivsi3+0xa0>
30007aac:	e1110002 	tst	r1, r2
30007ab0:	0a000023 	beq	30007b44 <__udivsi3+0xac>
30007ab4:	e311020e 	tst	r1, #-536870912	@ 0xe0000000
30007ab8:	01a01181 	lsleq	r1, r1, #3
30007abc:	03a03008 	moveq	r3, #8
30007ac0:	13a03001 	movne	r3, #1
30007ac4:	e3510201 	cmp	r1, #268435456	@ 0x10000000
30007ac8:	31510000 	cmpcc	r1, r0
30007acc:	31a01201 	lslcc	r1, r1, #4
30007ad0:	31a03203 	lslcc	r3, r3, #4
30007ad4:	3afffffa 	bcc	30007ac4 <__udivsi3+0x2c>
30007ad8:	e3510102 	cmp	r1, #-2147483648	@ 0x80000000
30007adc:	31510000 	cmpcc	r1, r0
30007ae0:	31a01081 	lslcc	r1, r1, #1
30007ae4:	31a03083 	lslcc	r3, r3, #1
30007ae8:	3afffffa 	bcc	30007ad8 <__udivsi3+0x40>
30007aec:	e3a02000 	mov	r2, #0
30007af0:	e1500001 	cmp	r0, r1
30007af4:	20400001 	subcs	r0, r0, r1
30007af8:	21822003 	orrcs	r2, r2, r3
30007afc:	e15000a1 	cmp	r0, r1, lsr #1
30007b00:	204000a1 	subcs	r0, r0, r1, lsr #1
30007b04:	218220a3 	orrcs	r2, r2, r3, lsr #1
30007b08:	e1500121 	cmp	r0, r1, lsr #2
30007b0c:	20400121 	subcs	r0, r0, r1, lsr #2
30007b10:	21822123 	orrcs	r2, r2, r3, lsr #2
30007b14:	e15001a1 	cmp	r0, r1, lsr #3
30007b18:	204001a1 	subcs	r0, r0, r1, lsr #3
30007b1c:	218221a3 	orrcs	r2, r2, r3, lsr #3
30007b20:	e3500000 	cmp	r0, #0
30007b24:	11b03223 	lsrsne	r3, r3, #4
30007b28:	11a01221 	lsrne	r1, r1, #4
30007b2c:	1affffef 	bne	30007af0 <__udivsi3+0x58>
30007b30:	e1a00002 	mov	r0, r2
30007b34:	e12fff1e 	bx	lr
30007b38:	03a00001 	moveq	r0, #1
30007b3c:	13a00000 	movne	r0, #0
30007b40:	e12fff1e 	bx	lr
30007b44:	e3510801 	cmp	r1, #65536	@ 0x10000
30007b48:	21a01821 	lsrcs	r1, r1, #16
30007b4c:	23a02010 	movcs	r2, #16
30007b50:	33a02000 	movcc	r2, #0
30007b54:	e3510c01 	cmp	r1, #256	@ 0x100
30007b58:	21a01421 	lsrcs	r1, r1, #8
30007b5c:	22822008 	addcs	r2, r2, #8
30007b60:	e3510010 	cmp	r1, #16
30007b64:	21a01221 	lsrcs	r1, r1, #4
30007b68:	22822004 	addcs	r2, r2, #4
30007b6c:	e3510004 	cmp	r1, #4
30007b70:	82822003 	addhi	r2, r2, #3
30007b74:	908220a1 	addls	r2, r2, r1, lsr #1
30007b78:	e1a00230 	lsr	r0, r0, r2
30007b7c:	e12fff1e 	bx	lr
30007b80:	e3500000 	cmp	r0, #0
30007b84:	13e00000 	mvnne	r0, #0
30007b88:	ea000059 	b	30007cf4 <__aeabi_idiv0>

30007b8c <__aeabi_uidivmod>:
30007b8c:	e3510000 	cmp	r1, #0
30007b90:	0afffffa 	beq	30007b80 <__udivsi3+0xe8>
30007b94:	e92d4003 	push	{r0, r1, lr}
30007b98:	ebffffbe 	bl	30007a98 <__udivsi3>
30007b9c:	e8bd4006 	pop	{r1, r2, lr}
30007ba0:	e0030092 	mul	r3, r2, r0
30007ba4:	e0411003 	sub	r1, r1, r3
30007ba8:	e12fff1e 	bx	lr

30007bac <__divsi3>:
30007bac:	e3510000 	cmp	r1, #0
30007bb0:	0a000043 	beq	30007cc4 <.divsi3_skip_div0_test+0x110>

30007bb4 <.divsi3_skip_div0_test>:
30007bb4:	e020c001 	eor	ip, r0, r1
30007bb8:	42611000 	rsbmi	r1, r1, #0
30007bbc:	e2512001 	subs	r2, r1, #1
30007bc0:	0a000027 	beq	30007c64 <.divsi3_skip_div0_test+0xb0>
30007bc4:	e1b03000 	movs	r3, r0
30007bc8:	42603000 	rsbmi	r3, r0, #0
30007bcc:	e1530001 	cmp	r3, r1
30007bd0:	9a000026 	bls	30007c70 <.divsi3_skip_div0_test+0xbc>
30007bd4:	e1110002 	tst	r1, r2
30007bd8:	0a000028 	beq	30007c80 <.divsi3_skip_div0_test+0xcc>
30007bdc:	e311020e 	tst	r1, #-536870912	@ 0xe0000000
30007be0:	01a01181 	lsleq	r1, r1, #3
30007be4:	03a02008 	moveq	r2, #8
30007be8:	13a02001 	movne	r2, #1
30007bec:	e3510201 	cmp	r1, #268435456	@ 0x10000000
30007bf0:	31510003 	cmpcc	r1, r3
30007bf4:	31a01201 	lslcc	r1, r1, #4
30007bf8:	31a02202 	lslcc	r2, r2, #4
30007bfc:	3afffffa 	bcc	30007bec <.divsi3_skip_div0_test+0x38>
30007c00:	e3510102 	cmp	r1, #-2147483648	@ 0x80000000
30007c04:	31510003 	cmpcc	r1, r3
30007c08:	31a01081 	lslcc	r1, r1, #1
30007c0c:	31a02082 	lslcc	r2, r2, #1
30007c10:	3afffffa 	bcc	30007c00 <.divsi3_skip_div0_test+0x4c>
30007c14:	e3a00000 	mov	r0, #0
30007c18:	e1530001 	cmp	r3, r1
30007c1c:	20433001 	subcs	r3, r3, r1
30007c20:	21800002 	orrcs	r0, r0, r2
30007c24:	e15300a1 	cmp	r3, r1, lsr #1
30007c28:	204330a1 	subcs	r3, r3, r1, lsr #1
30007c2c:	218000a2 	orrcs	r0, r0, r2, lsr #1
30007c30:	e1530121 	cmp	r3, r1, lsr #2
30007c34:	20433121 	subcs	r3, r3, r1, lsr #2
30007c38:	21800122 	orrcs	r0, r0, r2, lsr #2
30007c3c:	e15301a1 	cmp	r3, r1, lsr #3
30007c40:	204331a1 	subcs	r3, r3, r1, lsr #3
30007c44:	218001a2 	orrcs	r0, r0, r2, lsr #3
30007c48:	e3530000 	cmp	r3, #0
30007c4c:	11b02222 	lsrsne	r2, r2, #4
30007c50:	11a01221 	lsrne	r1, r1, #4
30007c54:	1affffef 	bne	30007c18 <.divsi3_skip_div0_test+0x64>
30007c58:	e35c0000 	cmp	ip, #0
30007c5c:	42600000 	rsbmi	r0, r0, #0
30007c60:	e12fff1e 	bx	lr
30007c64:	e13c0000 	teq	ip, r0
30007c68:	42600000 	rsbmi	r0, r0, #0
30007c6c:	e12fff1e 	bx	lr
30007c70:	33a00000 	movcc	r0, #0
30007c74:	01a00fcc 	asreq	r0, ip, #31
30007c78:	03800001 	orreq	r0, r0, #1
30007c7c:	e12fff1e 	bx	lr
30007c80:	e3510801 	cmp	r1, #65536	@ 0x10000
30007c84:	21a01821 	lsrcs	r1, r1, #16
30007c88:	23a02010 	movcs	r2, #16
30007c8c:	33a02000 	movcc	r2, #0
30007c90:	e3510c01 	cmp	r1, #256	@ 0x100
30007c94:	21a01421 	lsrcs	r1, r1, #8
30007c98:	22822008 	addcs	r2, r2, #8
30007c9c:	e3510010 	cmp	r1, #16
30007ca0:	21a01221 	lsrcs	r1, r1, #4
30007ca4:	22822004 	addcs	r2, r2, #4
30007ca8:	e3510004 	cmp	r1, #4
30007cac:	82822003 	addhi	r2, r2, #3
30007cb0:	908220a1 	addls	r2, r2, r1, lsr #1
30007cb4:	e35c0000 	cmp	ip, #0
30007cb8:	e1a00233 	lsr	r0, r3, r2
30007cbc:	42600000 	rsbmi	r0, r0, #0
30007cc0:	e12fff1e 	bx	lr
30007cc4:	e3500000 	cmp	r0, #0
30007cc8:	c3e00102 	mvngt	r0, #-2147483648	@ 0x80000000
30007ccc:	b3a00102 	movlt	r0, #-2147483648	@ 0x80000000
30007cd0:	ea000007 	b	30007cf4 <__aeabi_idiv0>

30007cd4 <__aeabi_idivmod>:
30007cd4:	e3510000 	cmp	r1, #0
30007cd8:	0afffff9 	beq	30007cc4 <.divsi3_skip_div0_test+0x110>
30007cdc:	e92d4003 	push	{r0, r1, lr}
30007ce0:	ebffffb3 	bl	30007bb4 <.divsi3_skip_div0_test>
30007ce4:	e8bd4006 	pop	{r1, r2, lr}
30007ce8:	e0030092 	mul	r3, r2, r0
30007cec:	e0411003 	sub	r1, r1, r3
30007cf0:	e12fff1e 	bx	lr

30007cf4 <__aeabi_idiv0>:
30007cf4:	e12fff1e 	bx	lr
30007cf8:	4375200a 	.word	0x4375200a
30007cfc:	2d534f2f 	.word	0x2d534f2f
30007d00:	53204949 	.word	0x53204949
30007d04:	74726174 	.word	0x74726174
30007d08:	6f206465 	.word	0x6f206465
30007d0c:	694d206e 	.word	0x694d206e
30007d10:	3432696e 	.word	0x3432696e
30007d14:	202e3034 	.word	0x202e3034
30007d18:	0000000a 	.word	0x0000000a
30007d1c:	59454b5b 	.word	0x59454b5b
30007d20:	254b205d 	.word	0x254b205d
30007d24:	72502064 	.word	0x72502064
30007d28:	65737365 	.word	0x65737365
30007d2c:	3e2d2064 	.word	0x3e2d2064
30007d30:	00000020 	.word	0x00000020
30007d34:	6e676953 	.word	0x6e676953
30007d38:	42206c61 	.word	0x42206c61
30007d3c:	0a706565 	.word	0x0a706565
30007d40:	00000000 	.word	0x00000000
30007d44:	646e6553 	.word	0x646e6553
30007d48:	6f624d20 	.word	0x6f624d20
30007d4c:	6f742078 	.word	0x6f742078
30007d50:	44454c20 	.word	0x44454c20
30007d54:	0000000a 	.word	0x0000000a
30007d58:	646e6553 	.word	0x646e6553
30007d5c:	61745320 	.word	0x61745320
30007d60:	20636974 	.word	0x20636974
30007d64:	75657551 	.word	0x75657551
30007d68:	00000a65 	.word	0x00000a65
30007d6c:	6f6c6c41 	.word	0x6f6c6c41
30007d70:	654d2063 	.word	0x654d2063
30007d74:	2026206d 	.word	0x2026206d
30007d78:	646e6553 	.word	0x646e6553
30007d7c:	0000000a 	.word	0x0000000a
30007d80:	206d654d 	.word	0x206d654d
30007d84:	6c6c7546 	.word	0x6c6c7546
30007d88:	00000a21 	.word	0x00000a21
30007d8c:	75736552 	.word	0x75736552
30007d90:	5720656d 	.word	0x5720656d
30007d94:	206b726f 	.word	0x206b726f
30007d98:	6b736154 	.word	0x6b736154
30007d9c:	0000000a 	.word	0x0000000a
30007da0:	70737553 	.word	0x70737553
30007da4:	20646e65 	.word	0x20646e65
30007da8:	6b726f57 	.word	0x6b726f57
30007dac:	73615420 	.word	0x73615420
30007db0:	00000a6b 	.word	0x00000a6b
30007db4:	20746553 	.word	0x20746553
30007db8:	65646f4d 	.word	0x65646f4d
30007dbc:	5554203a 	.word	0x5554203a
30007dc0:	0a4f4252 	.word	0x0a4f4252
30007dc4:	00000000 	.word	0x00000000
30007dc8:	726f575b 	.word	0x726f575b
30007dcc:	52205d6b 	.word	0x52205d6b
30007dd0:	3a766365 	.word	0x3a766365
30007dd4:	70795420 	.word	0x70795420
30007dd8:	64253d65 	.word	0x64253d65
30007ddc:	6156202c 	.word	0x6156202c
30007de0:	78303d6c 	.word	0x78303d6c
30007de4:	000a5825 	.word	0x000a5825
30007de8:	726f575b 	.word	0x726f575b
30007dec:	4d205d6b 	.word	0x4d205d6b
30007df0:	46206d65 	.word	0x46206d65
30007df4:	64656572 	.word	0x64656572
30007df8:	00000a2e 	.word	0x00000a2e
30007dfc:	2d2d2d0a 	.word	0x2d2d2d0a
30007e00:	73795320 	.word	0x73795320
30007e04:	206d6574 	.word	0x206d6574
30007e08:	696e6f4d 	.word	0x696e6f4d
30007e0c:	20726f74 	.word	0x20726f74
30007e10:	0a2d2d2d 	.word	0x0a2d2d2d
30007e14:	00000000 	.word	0x00000000
30007e18:	20555043 	.word	0x20555043
30007e1c:	67617355 	.word	0x67617355
30007e20:	25203a65 	.word	0x25203a65
30007e24:	0a252564 	.word	0x0a252564
30007e28:	00000000 	.word	0x00000000
30007e2c:	206d654d 	.word	0x206d654d
30007e30:	65657246 	.word	0x65657246
30007e34:	25203a20 	.word	0x25203a20
30007e38:	6c622064 	.word	0x6c622064
30007e3c:	736b636f 	.word	0x736b636f
30007e40:	0000000a 	.word	0x0000000a
30007e44:	734d2051 	.word	0x734d2051
30007e48:	20202067 	.word	0x20202067
30007e4c:	25203a20 	.word	0x25203a20
30007e50:	61772064 	.word	0x61772064
30007e54:	6e697469 	.word	0x6e697469
30007e58:	00000a67 	.word	0x00000a67
30007e5c:	73616820 	.word	0x73616820
30007e60:	65656220 	.word	0x65656220
30007e64:	6564206e 	.word	0x6564206e
30007e68:	6574656c 	.word	0x6574656c
30007e6c:	6e2f2064 	.word	0x6e2f2064
30007e70:	00000000 	.word	0x00000000
30007e74:	74206e2f 	.word	0x74206e2f
30007e78:	206b7361 	.word	0x206b7361
30007e7c:	0000003a 	.word	0x0000003a
30007e80:	33323130 	.word	0x33323130
30007e84:	37363534 	.word	0x37363534
30007e88:	62613938 	.word	0x62613938
30007e8c:	66656463 	.word	0x66656463
	...
