
build/mini2440_rtos.elf:     file format elf32-littlearm


Disassembly of section .text:

30000000 <_start>:
    .code 32                // ARM state (16 is Thumb; using ARMv4 only)
    .align 2                // 4-byte alignment (2^n)

_start:                     // Standard entry label
my_entry:
    b   reset               // 0x00
30000000:	ea000042 	b	30000110 <reset>
    b   undef               // 0x04
30000004:	ea000005 	b	30000020 <undef>
    b   swi                 // 0x08
30000008:	ea00000c 	b	30000040 <swi>
    b   pabort              // 0x0C
3000000c:	ea000013 	b	30000060 <pabort>
    b   dabort              // 0x10
30000010:	ea00001a 	b	30000080 <dabort>
    b   .                   // 0x14 
30000014:	eafffffe 	b	30000014 <_start+0x14>
    b   OSTickISR           // Changed IRQ to OSTickISR; jumps to os_cpu_context_switch.S
30000018:	ea000115 	b	30000474 <OSTickISR>
    b   fiq                 // 0x1C
3000001c:	ea000033 	b	300000f0 <fiq>

30000020 <undef>:

// Exception handlers: turn on LEDs on errors; if the program hangs, add LED checks at various points to inspect runtime state

// undef: LED1 on
undef:
    ldr r0, =GPBDAT
30000020:	e59f02e0 	ldr	r0, [pc, #736]	@ 30000308 <skip_copy+0x7c>
    ldr r1, [r0]
30000024:	e5901000 	ldr	r1, [r0]
    ldr r2, =(0x0f<<5)
30000028:	e3a02e1e 	mov	r2, #480	@ 0x1e0
    orr r1, r1, r2
3000002c:	e1811002 	orr	r1, r1, r2
    ldr r2, =(0x01<<5)
30000030:	e3a02020 	mov	r2, #32
    bic r1, r1, r2
30000034:	e1c11002 	bic	r1, r1, r2
    str r1, [r0]
30000038:	e5801000 	str	r1, [r0]
    b   .
3000003c:	eafffffe 	b	3000003c <undef+0x1c>

30000040 <swi>:

// swi: LED2 on
swi:
    ldr r0, =GPBDAT
30000040:	e59f02c0 	ldr	r0, [pc, #704]	@ 30000308 <skip_copy+0x7c>
    ldr r1, [r0]
30000044:	e5901000 	ldr	r1, [r0]
    ldr r2, =(0x0f<<5)
30000048:	e3a02e1e 	mov	r2, #480	@ 0x1e0
    orr r1, r1, r2
3000004c:	e1811002 	orr	r1, r1, r2
    ldr r2, =(0x02<<5)
30000050:	e3a02040 	mov	r2, #64	@ 0x40
    bic r1, r1, r2
30000054:	e1c11002 	bic	r1, r1, r2
    str r1, [r0]
30000058:	e5801000 	str	r1, [r0]
    b   .
3000005c:	eafffffe 	b	3000005c <swi+0x1c>

30000060 <pabort>:

// pabort: LED1 and LED2 on
pabort:
    ldr r0, =GPBDAT
30000060:	e59f02a0 	ldr	r0, [pc, #672]	@ 30000308 <skip_copy+0x7c>
    ldr r1, [r0]
30000064:	e5901000 	ldr	r1, [r0]
    ldr r2, =(0x0f<<5)
30000068:	e3a02e1e 	mov	r2, #480	@ 0x1e0
    orr r1, r1, r2
3000006c:	e1811002 	orr	r1, r1, r2
    ldr r2, =(0x03<<5)
30000070:	e3a02060 	mov	r2, #96	@ 0x60
    bic r1, r1, r2
30000074:	e1c11002 	bic	r1, r1, r2
    str r1, [r0]
30000078:	e5801000 	str	r1, [r0]
    b   .
3000007c:	eafffffe 	b	3000007c <pabort+0x1c>

30000080 <dabort>:

// dabort: LED3 on
dabort:
    ldr r0, =GPBDAT
30000080:	e59f0280 	ldr	r0, [pc, #640]	@ 30000308 <skip_copy+0x7c>
    ldr r1, [r0]
30000084:	e5901000 	ldr	r1, [r0]
    ldr r2, =(0x0f<<5)
30000088:	e3a02e1e 	mov	r2, #480	@ 0x1e0
    orr r1, r1, r2
3000008c:	e1811002 	orr	r1, r1, r2
    ldr r2, =(0x04<<5)
30000090:	e3a02080 	mov	r2, #128	@ 0x80
    bic r1, r1, r2
30000094:	e1c11002 	bic	r1, r1, r2
    str r1, [r0]
30000098:	e5801000 	str	r1, [r0]
    b   .
3000009c:	eafffffe 	b	3000009c <dabort+0x1c>

300000a0 <irq>:

// irq: LED1 and LED3 on
irq:
    sub lr, lr, #4
300000a0:	e24ee004 	sub	lr, lr, #4
    stmfd sp!, {r0-r12, lr}
300000a4:	e92d5fff 	push	{r0, r1, r2, r3, r4, r5, r6, r7, r8, r9, sl, fp, ip, lr}
    mrs r0, spsr
300000a8:	e14f0000 	mrs	r0, SPSR
    stmfd sp!, {r0}
300000ac:	e92d0001 	stmfd	sp!, {r0}

    // LED indicator (optional)
    ldr r0, =GPBDAT
300000b0:	e59f0250 	ldr	r0, [pc, #592]	@ 30000308 <skip_copy+0x7c>
    ldr r1, [r0]
300000b4:	e5901000 	ldr	r1, [r0]
    ldr r2, =(0x05<<5)
300000b8:	e3a020a0 	mov	r2, #160	@ 0xa0
    bic r1, r1, r2
300000bc:	e1c11002 	bic	r1, r1, r2
    str r1, [r0]
300000c0:	e5801000 	str	r1, [r0]

    ldr r0, =INTOFFSET
300000c4:	e59f0240 	ldr	r0, [pc, #576]	@ 3000030c <skip_copy+0x80>
    ldr r0, [r0]
300000c8:	e5900000 	ldr	r0, [r0]
    ldr r1, =HandlerEINT0   // Address constant must be defined
300000cc:	e59f123c 	ldr	r1, [pc, #572]	@ 30000310 <skip_copy+0x84>
    add r1, r1, r0, lsl #2
300000d0:	e0811100 	add	r1, r1, r0, lsl #2
    ldr r1, [r1]
300000d4:	e5911000 	ldr	r1, [r1]
    mov lr, pc
300000d8:	e1a0e00f 	mov	lr, pc
    mov pc, r1
300000dc:	e1a0f001 	mov	pc, r1

    ldmfd sp!, {r0}
300000e0:	e8bd0001 	ldmfd	sp!, {r0}
    msr spsr_cxsf, r0
300000e4:	e16ff000 	msr	SPSR_fsxc, r0
    ldmfd sp!, {r0-r12, lr}
300000e8:	e8bd5fff 	pop	{r0, r1, r2, r3, r4, r5, r6, r7, r8, r9, sl, fp, ip, lr}
    movs pc, lr
300000ec:	e1b0f00e 	movs	pc, lr

300000f0 <fiq>:

// fiq: LED2 and LED3 on
fiq:
    ldr r0, =GPBDAT
300000f0:	e59f0210 	ldr	r0, [pc, #528]	@ 30000308 <skip_copy+0x7c>
    ldr r1, [r0]
300000f4:	e5901000 	ldr	r1, [r0]
    ldr r2, =(0x0f<<5)
300000f8:	e3a02e1e 	mov	r2, #480	@ 0x1e0
    orr r1, r1, r2
300000fc:	e1811002 	orr	r1, r1, r2
    ldr r2, =(0x06<<5)
30000100:	e3a020c0 	mov	r2, #192	@ 0xc0
    bic r1, r1, r2
30000104:	e1c11002 	bic	r1, r1, r2
    str r1, [r0]
30000108:	e5801000 	str	r1, [r0]
    b   .
3000010c:	eafffffe 	b	3000010c <fiq+0x1c>

30000110 <reset>:

// Reset handler

reset:
// 1. Disable watchdog
    ldr r0, =WTCON
30000110:	e3a00453 	mov	r0, #1392508928	@ 0x53000000
    mov r1, #0x0
30000114:	e3a01000 	mov	r1, #0
    str r1, [r0]
30000118:	e5801000 	str	r1, [r0]

// 2. Mask interrupts
    ldr r0, =INTMSK
3000011c:	e59f01f0 	ldr	r0, [pc, #496]	@ 30000314 <skip_copy+0x88>
    ldr r1, =0xffffffff
30000120:	e3e01000 	mvn	r1, #0
    str r1, [r0]
30000124:	e5801000 	str	r1, [r0]

    ldr r0, =INTSUBMSK
30000128:	e59f01e8 	ldr	r0, [pc, #488]	@ 30000318 <skip_copy+0x8c>
    ldr r1, =0x7fff
3000012c:	e59f11e8 	ldr	r1, [pc, #488]	@ 3000031c <skip_copy+0x90>
    str r1, [r0]
30000130:	e5801000 	str	r1, [r0]
    .equ M_MDIV, 127
    .equ M_PDIV, 2
    .equ M_SDIV, 1
    .equ CLKDIVN_VAL, 5 // Directly from datasheet table

    ldr r0, =LOCKTIME
30000134:	e3a00313 	mov	r0, #1275068416	@ 0x4c000000
    ldr r1, =0xffffffff
30000138:	e3e01000 	mvn	r1, #0
    str r1, [r0]
3000013c:	e5801000 	str	r1, [r0]

    // 3.1 Set divider CLKDIVN
    // Must be set before MPLLCON to prevent excessive frequency
    ldr r0, =CLKDIVN
30000140:	e59f01d8 	ldr	r0, [pc, #472]	@ 30000320 <skip_copy+0x94>
    ldr r1, =CLKDIVN_VAL
30000144:	e3a01005 	mov	r1, #5
    str r1, [r0]
30000148:	e5801000 	str	r1, [r0]

    // 3.2 Set asynchronous bus mode (Async Bus Mode)
    // Must be set when HDIVN != 0
    .if CLKDIVN_VAL > 1
        mrc p15,0,r0,c1,c0,0
3000014c:	ee110f10 	mrc	15, 0, r0, cr1, cr0, {0}
        orr r0,r0,#0xc0000000
30000150:	e3800103 	orr	r0, r0, #-1073741824	@ 0xc0000000
        mcr p15,0,r0,c1,c0,0
30000154:	ee010f10 	mcr	15, 0, r0, cr1, cr0, {0}
        bic r0,r0,#0xc0000000
        mcr p15,0,r0,c1,c0,0
    .endif

    // 3.3 Configure UPLLCON
    ldr r0, =UPLLCON
30000158:	e59f01c4 	ldr	r0, [pc, #452]	@ 30000324 <skip_copy+0x98>
    ldr r1, =((U_MDIV<<12)+(U_PDIV<<4)+U_SDIV)
3000015c:	e59f11c4 	ldr	r1, [pc, #452]	@ 30000328 <skip_copy+0x9c>
    str r1, [r0]
30000160:	e5801000 	str	r1, [r0]

    // 7 NOPs
    nop
30000164:	e1a00000 	nop			@ (mov r0, r0)
    nop
30000168:	e1a00000 	nop			@ (mov r0, r0)
    nop
3000016c:	e1a00000 	nop			@ (mov r0, r0)
    nop
30000170:	e1a00000 	nop			@ (mov r0, r0)
    nop
30000174:	e1a00000 	nop			@ (mov r0, r0)
    nop
30000178:	e1a00000 	nop			@ (mov r0, r0)
    nop
3000017c:	e1a00000 	nop			@ (mov r0, r0)

    // 3.4 Configure MPLLCON
    ldr r0, =MPLLCON
30000180:	e59f01a4 	ldr	r0, [pc, #420]	@ 3000032c <skip_copy+0xa0>
    ldr r1, =((M_MDIV<<12)+(M_PDIV<<4)+M_SDIV)
30000184:	e59f11a4 	ldr	r1, [pc, #420]	@ 30000330 <skip_copy+0xa4>
    str r1, [r0]
30000188:	e5801000 	str	r1, [r0]

// 4. Initialize memory controller
    ldr r0, =SMRDATA
3000018c:	e59f01a0 	ldr	r0, [pc, #416]	@ 30000334 <skip_copy+0xa8>
    ldr r1, =_start
30000190:	e59f11a0 	ldr	r1, [pc, #416]	@ 30000338 <skip_copy+0xac>
    sub r0, r0, r1          // r0 = offset of SMRDATA relative to _start
30000194:	e0400001 	sub	r0, r0, r1
    
    mov r2, pc              // Get current PC
30000198:	e1a0200f 	mov	r2, pc
    ldr r3, =0x30000000     // Threshold
3000019c:	e3a03203 	mov	r3, #805306368	@ 0x30000000
    cmp r2, r3
300001a0:	e1520003 	cmp	r2, r3
    blo 1f                  // If PC < 0x30000000, running at 0x0; offset equals physical address
300001a4:	3a000000 	bcc	300001ac <reset+0x9c>
    add r0, r0, r3          // If PC >= 0x30000000, running in SDRAM; add base address
300001a8:	e0800003 	add	r0, r0, r3
1:
    ldr r1, =BWSCON
300001ac:	e3a01312 	mov	r1, #1207959552	@ 0x48000000
    add r2, r0, #52         // SMRDATA length 13*4 = 52 bytes
300001b0:	e2802034 	add	r2, r0, #52	@ 0x34

0:                          // Local label
    ldr r3, [r0], #4
300001b4:	e4903004 	ldr	r3, [r0], #4
    str r3, [r1], #4
300001b8:	e4813004 	str	r3, [r1], #4
    cmp r2, r0
300001bc:	e1520000 	cmp	r2, r0
    bne 0b                  // Backward branch to label 0
300001c0:	1afffffb 	bne	300001b4 <reset+0xa4>
    .equ AbortStack, (STACK_BASE_ADDRESS-0x2000)
    .equ IRQStack,   (STACK_BASE_ADDRESS-0x1000)
    .equ FIQStack,   (STACK_BASE_ADDRESS-0x0)

    // 5.1 Undef
    mrs r0, cpsr
300001c4:	e10f0000 	mrs	r0, CPSR
    bic r0, r0, #MODEMASK
300001c8:	e3c0001f 	bic	r0, r0, #31
    orr r0, r0, #UNDEFMODE
300001cc:	e380001b 	orr	r0, r0, #27
    msr cpsr_c, r0
300001d0:	e121f000 	msr	CPSR_c, r0
    ldr sp, =UndefStack
300001d4:	e59fd160 	ldr	sp, [pc, #352]	@ 3000033c <skip_copy+0xb0>

    // 5.2 Abort
    mrs r0, cpsr
300001d8:	e10f0000 	mrs	r0, CPSR
    bic r0, r0, #MODEMASK
300001dc:	e3c0001f 	bic	r0, r0, #31
    orr r0, r0, #ABORTMODE
300001e0:	e3800017 	orr	r0, r0, #23
    msr cpsr_c, r0
300001e4:	e121f000 	msr	CPSR_c, r0
    ldr sp, =AbortStack
300001e8:	e59fd150 	ldr	sp, [pc, #336]	@ 30000340 <skip_copy+0xb4>

    // 5.3 IRQ
    mrs r0, cpsr
300001ec:	e10f0000 	mrs	r0, CPSR
    bic r0, r0, #MODEMASK
300001f0:	e3c0001f 	bic	r0, r0, #31
    orr r0, r0, #IRQMODE
300001f4:	e3800012 	orr	r0, r0, #18
    msr cpsr_c, r0
300001f8:	e121f000 	msr	CPSR_c, r0
    ldr sp, =IRQStack
300001fc:	e59fd140 	ldr	sp, [pc, #320]	@ 30000344 <skip_copy+0xb8>

    // 5.4 FIQ
    mrs r0, cpsr
30000200:	e10f0000 	mrs	r0, CPSR
    bic r0, r0, #MODEMASK
30000204:	e3c0001f 	bic	r0, r0, #31
    orr r0, r0, #FIQMODE
30000208:	e3800011 	orr	r0, r0, #17
    msr cpsr_c, r0
3000020c:	e121f000 	msr	CPSR_c, r0
    ldr sp, =FIQStack
30000210:	e59fd130 	ldr	sp, [pc, #304]	@ 30000348 <skip_copy+0xbc>
    
    // 5.5 SVC
    mrs r0, cpsr
30000214:	e10f0000 	mrs	r0, CPSR
    bic r0, r0, #MODEMASK
30000218:	e3c0001f 	bic	r0, r0, #31
    orr r0, r0, #SVCMODE
3000021c:	e3800013 	orr	r0, r0, #19
    msr cpsr_c, r0
30000220:	e121f000 	msr	CPSR_c, r0
    ldr sp, =SVCStack
30000224:	e59fd120 	ldr	sp, [pc, #288]	@ 3000034c <skip_copy+0xc0>
// Regardless of NAND or NOR boot, our code is at 0x00000000
// (NAND boot uses SRAM; NOR boot uses NOR Flash)
// Copy it to 0x30000000

    // Check current address; if in SDRAM (>=0x30000000), skip copying
    mov r0, pc
30000228:	e1a0000f 	mov	r0, pc
    ldr r1, =0x30000000
3000022c:	e3a01203 	mov	r1, #805306368	@ 0x30000000
    cmp r0, r1
30000230:	e1500001 	cmp	r0, r1
    bhs on_sdram            // If PC >= 0x30000000, jump directly to on_sdram
30000234:	2a000008 	bcs	3000025c <on_sdram>

    mov r0, #0                  // Source address 0x00000000
30000238:	e3a00000 	mov	r0, #0
    ldr r1, =_start             // Destination address 0x30000000 (defined in linker.ld)
3000023c:	e59f10f4 	ldr	r1, [pc, #244]	@ 30000338 <skip_copy+0xac>
    ldr r2, =_bss_start_      // End address (BSS segment is empty)
30000240:	e59f2108 	ldr	r2, [pc, #264]	@ 30000350 <skip_copy+0xc4>
    
    sub r2, r2, r1              // Compute code size (r2 = _bss_start_ - _start)
30000244:	e0422001 	sub	r2, r2, r1

30000248 <copy_loop>:
    
copy_loop:
    ldr r3, [r0], #4
30000248:	e4903004 	ldr	r3, [r0], #4
    str r3, [r1], #4
3000024c:	e4813004 	str	r3, [r1], #4
    subs r2, r2, #4
30000250:	e2522004 	subs	r2, r2, #4
    bgt copy_loop               // Loop until copy completes
30000254:	cafffffb 	bgt	30000248 <copy_loop>

    // Jump to code in SDRAM to continue
    ldr pc, =on_sdram
30000258:	e59ff0f4 	ldr	pc, [pc, #244]	@ 30000354 <skip_copy+0xc8>

3000025c <on_sdram>:
on_sdram:

// 7. Copy initialized data (.data) from ROM image to RAM
    ldr r0, TopOfROM        // r0 = &_etext
3000025c:	e59f0148 	ldr	r0, [pc, #328]	@ 300003ac <TopOfROM>
    ldr r0, [r0]            // r0 = _etext (source)
30000260:	e5900000 	ldr	r0, [r0]
    ldr r1, BaseOfBSS       // r1 = &_data
30000264:	e59f1144 	ldr	r1, [pc, #324]	@ 300003b0 <BaseOfBSS>
    ldr r1, [r1]            // r1 = _data (destination)
30000268:	e5911000 	ldr	r1, [r1]
    ldr r2, BaseOfZero      // r2 = &_bss_start_
3000026c:	e59f2140 	ldr	r2, [pc, #320]	@ 300003b4 <BaseOfZero>
    ldr r2, [r2]            // r2 = _bss_start_ (end of data)
30000270:	e5922000 	ldr	r2, [r2]

    cmp r0, r1
30000274:	e1500001 	cmp	r0, r1
    beq skip_copy
30000278:	0a000003 	beq	3000028c <skip_copy>
1:
    cmp r1, r2
3000027c:	e1510002 	cmp	r1, r2
    ldrcc r3, [r0], #4
30000280:	34903004 	ldrcc	r3, [r0], #4
    strcc r3, [r1], #4
30000284:	34813004 	strcc	r3, [r1], #4
    bcc 1b
30000288:	3afffffb 	bcc	3000027c <on_sdram+0x20>

3000028c <skip_copy>:

skip_copy:
// 8. Zero BSS
    mov r0, #0
3000028c:	e3a00000 	mov	r0, #0
    ldr r2, BaseOfZero
30000290:	e59f211c 	ldr	r2, [pc, #284]	@ 300003b4 <BaseOfZero>
    ldr r3, EndOfBSS
30000294:	e59f311c 	ldr	r3, [pc, #284]	@ 300003b8 <EndOfBSS>
0:
    cmp r2, r3
30000298:	e1520003 	cmp	r2, r3
    strcc r0, [r2], #4
3000029c:	34820004 	strcc	r0, [r2], #4
    bcc 0b
300002a0:	3afffffc 	bcc	30000298 <skip_copy+0xc>

// 9. Install exception vector table to physical 0x00000000
//    Match Keil flow: write 8x 'LDR PC, [PC, #24]' then fill handler addresses at 0x20
    ldr r0, =0x00000000
300002a4:	e3a00000 	mov	r0, #0
    ldr r1, =0xE59FF018        // LDR PC, [PC, #24]
300002a8:	e59f10a8 	ldr	r1, [pc, #168]	@ 30000358 <skip_copy+0xcc>
    mov r2, #8
300002ac:	e3a02008 	mov	r2, #8
1:
    str r1, [r0], #4
300002b0:	e4801004 	str	r1, [r0], #4
    subs r2, r2, #1
300002b4:	e2522001 	subs	r2, r2, #1
    bgt 1b
300002b8:	cafffffc 	bgt	300002b0 <skip_copy+0x24>

    ldr r0, =0x00000020
300002bc:	e3a00020 	mov	r0, #32
    ldr r1, =_start            // Reset entry points to vector table start
300002c0:	e59f1070 	ldr	r1, [pc, #112]	@ 30000338 <skip_copy+0xac>
    str r1, [r0], #4
300002c4:	e4801004 	str	r1, [r0], #4
    ldr r1, =undef
300002c8:	e59f108c 	ldr	r1, [pc, #140]	@ 3000035c <skip_copy+0xd0>
    str r1, [r0], #4
300002cc:	e4801004 	str	r1, [r0], #4
    ldr r1, =swi
300002d0:	e59f1088 	ldr	r1, [pc, #136]	@ 30000360 <skip_copy+0xd4>
    str r1, [r0], #4
300002d4:	e4801004 	str	r1, [r0], #4
    ldr r1, =pabort
300002d8:	e59f1084 	ldr	r1, [pc, #132]	@ 30000364 <skip_copy+0xd8>
    str r1, [r0], #4
300002dc:	e4801004 	str	r1, [r0], #4
    ldr r1, =dabort
300002e0:	e59f1080 	ldr	r1, [pc, #128]	@ 30000368 <skip_copy+0xdc>
    str r1, [r0], #4
300002e4:	e4801004 	str	r1, [r0], #4
    mov r1, #0                 // Reserved
300002e8:	e3a01000 	mov	r1, #0
    str r1, [r0], #4
300002ec:	e4801004 	str	r1, [r0], #4
    ldr r1, =OSTickISR         // IRQ handler: direct to OS tick ISR
300002f0:	e59f1074 	ldr	r1, [pc, #116]	@ 3000036c <skip_copy+0xe0>
    str r1, [r0], #4
300002f4:	e4801004 	str	r1, [r0], #4
    ldr r1, =fiq
300002f8:	e59f1070 	ldr	r1, [pc, #112]	@ 30000370 <skip_copy+0xe4>
    str r1, [r0], #4
300002fc:	e4801004 	str	r1, [r0], #4

// 10. Jump to main
    bl main
30000300:	eb00007e 	bl	30000500 <main>
    b .
30000304:	eafffffe 	b	30000304 <skip_copy+0x78>
    ldr r0, =GPBDAT
30000308:	56000014 	.word	0x56000014
    ldr r0, =INTOFFSET
3000030c:	4a000014 	.word	0x4a000014
    ldr r1, =HandlerEINT0   // Address constant must be defined
30000310:	33ffff20 	.word	0x33ffff20
    ldr r0, =INTMSK
30000314:	4a000008 	.word	0x4a000008
    ldr r0, =INTSUBMSK
30000318:	4a00001c 	.word	0x4a00001c
    ldr r1, =0x7fff
3000031c:	00007fff 	.word	0x00007fff
    ldr r0, =CLKDIVN
30000320:	4c000014 	.word	0x4c000014
    ldr r0, =UPLLCON
30000324:	4c000008 	.word	0x4c000008
    ldr r1, =((U_MDIV<<12)+(U_PDIV<<4)+U_SDIV)
30000328:	00038022 	.word	0x00038022
    ldr r0, =MPLLCON
3000032c:	4c000004 	.word	0x4c000004
    ldr r1, =((M_MDIV<<12)+(M_PDIV<<4)+M_SDIV)
30000330:	0007f021 	.word	0x0007f021
    ldr r0, =SMRDATA
30000334:	30000374 	.word	0x30000374
    ldr r1, =_start
30000338:	30000000 	.word	0x30000000
    ldr sp, =UndefStack
3000033c:	33ff5c00 	.word	0x33ff5c00
    ldr sp, =AbortStack
30000340:	33ff6000 	.word	0x33ff6000
    ldr sp, =IRQStack
30000344:	33ff7000 	.word	0x33ff7000
    ldr sp, =FIQStack
30000348:	33ff8000 	.word	0x33ff8000
    ldr sp, =SVCStack
3000034c:	33ff5800 	.word	0x33ff5800
    ldr r2, =_bss_start_      // End address (BSS segment is empty)
30000350:	300081c0 	.word	0x300081c0
    ldr pc, =on_sdram
30000354:	3000025c 	.word	0x3000025c
    ldr r1, =0xE59FF018        // LDR PC, [PC, #24]
30000358:	e59ff018 	.word	0xe59ff018
    ldr r1, =undef
3000035c:	30000020 	.word	0x30000020
    ldr r1, =swi
30000360:	30000040 	.word	0x30000040
    ldr r1, =pabort
30000364:	30000060 	.word	0x30000060
    ldr r1, =dabort
30000368:	30000080 	.word	0x30000080
    ldr r1, =OSTickISR         // IRQ handler: direct to OS tick ISR
3000036c:	30000474 	.word	0x30000474
    ldr r1, =fiq
30000370:	300000f0 	.word	0x300000f0

30000374 <SMRDATA>:
30000374:	22121110 	.word	0x22121110
30000378:	00007ff4 	.word	0x00007ff4
3000037c:	00002e50 	.word	0x00002e50
30000380:	00002e50 	.word	0x00002e50
30000384:	00002e50 	.word	0x00002e50
30000388:	00002e50 	.word	0x00002e50
3000038c:	00002e50 	.word	0x00002e50
30000390:	00018005 	.word	0x00018005
30000394:	00018005 	.word	0x00018005
30000398:	009604f4 	.word	0x009604f4
3000039c:	00000032 	.word	0x00000032
300003a0:	00000030 	.word	0x00000030
300003a4:	00000030 	.word	0x00000030

300003a8 <BaseOfROM>:
300003a8:	30000000 	.word	0x30000000

300003ac <TopOfROM>:
300003ac:	300080b8 	.word	0x300080b8

300003b0 <BaseOfBSS>:
300003b0:	300080b8 	.word	0x300080b8

300003b4 <BaseOfZero>:
300003b4:	300081c0 	.word	0x300081c0

300003b8 <EndOfBSS>:
300003b8:	3000b990 	.word	0x3000b990

300003bc <OS_CPU_SR_Save>:



// OS_CPU_SR OS_CPU_SR_Save(void);
OS_CPU_SR_Save:
    mrs     r0, cpsr            // Read CPSR into r0
300003bc:	e10f0000 	mrs	r0, CPSR
    orr     r1, r0, #NO_IRQ_FIQ 
300003c0:	e38010c0 	orr	r1, r0, #192	@ 0xc0
    msr     cpsr_c, r1          // Write back CPSR
300003c4:	e121f001 	msr	CPSR_c, r1
    mov     pc, lr              // Return
300003c8:	e1a0f00e 	mov	pc, lr

300003cc <OS_CPU_SR_Restore>:

// OS_CPU_SR_Restore(OS_CPU_SR cpu_sr);
OS_CPU_SR_Restore:
    msr     cpsr_c, r0          // Restore passed cpu_sr (r0) to CPSR
300003cc:	e121f000 	msr	CPSR_c, r0
    mov     pc, lr              // Return
300003d0:	e1a0f00e 	mov	pc, lr

300003d4 <OSStartHighRdy>:
OSStartHighRdy:
    // 1. Hook function
    // bl OSTaskSwHook

    // 2. OSRunning = true
    ldr     r0, =OSRunning
300003d4:	e59f0108 	ldr	r0, [pc, #264]	@ 300004e4 <_Int_Nested+0x28>
    mov     r1, #1
300003d8:	e3a01001 	mov	r1, #1
    strb    r1, [r0]
300003dc:	e5c01000 	strb	r1, [r0]

    // 3. Get TCB address of highest-priority task
    ldr     r0, =OSTCBHighRdy
300003e0:	e59f0100 	ldr	r0, [pc, #256]	@ 300004e8 <_Int_Nested+0x2c>
    ldr     r0, [r0]            // r0 = ptcb
300003e4:	e5900000 	ldr	r0, [r0]
    ldr     sp, [r0]            // sp = ptcb->OSTCBStackPtr
300003e8:	e590d000 	ldr	sp, [r0]

    // 4. Restore full context
    ldmfd   sp!, {r0}           // Pop SPSR 
300003ec:	e8bd0001 	ldmfd	sp!, {r0}
    msr     cpsr_c, r0          // Restore CPSR 
300003f0:	e121f000 	msr	CPSR_c, r0
    
    ldmfd   sp!, {r0-r12, lr, pc} // Pop registers and jump to task entry
300003f4:	e8bddfff 	pop	{r0, r1, r2, r3, r4, r5, r6, r7, r8, r9, sl, fp, ip, lr, pc}

300003f8 <OSCtxSw>:


OSCtxSw:
    // 1. Save current task context
    stmfd   sp!, {lr}           // Push PC
300003f8:	e92d4000 	stmfd	sp!, {lr}
    stmfd   sp!, {lr}           // Push LR
300003fc:	e92d4000 	stmfd	sp!, {lr}
    stmfd   sp!, {r0-r12}       // Push general-purpose registers
30000400:	e92d1fff 	push	{r0, r1, r2, r3, r4, r5, r6, r7, r8, r9, sl, fp, ip}
    mrs     r0, cpsr            // Read CPSR
30000404:	e10f0000 	mrs	r0, CPSR
    stmfd   sp!, {r0}           // Push CPSR
30000408:	e92d0001 	stmfd	sp!, {r0}

    // 2. Save SP to current TCB
    ldr     r0, =OSTCBCur       // Load address of OSTCBCur
3000040c:	e59f00d8 	ldr	r0, [pc, #216]	@ 300004ec <_Int_Nested+0x30>
    ldr     r1, [r0]            // r1 = OSTCBCur
30000410:	e5901000 	ldr	r1, [r0]
    str     sp, [r1]            // OSTCBCur->OSTCBStackPtr = sp
30000414:	e581d000 	str	sp, [r1]

    // 3. Hook function
    // bl OSTaskSwHook

    // 4. Switch TCB pointer: OSTCBCur = OSTCBHighRdy
    ldr     r2, =OSTCBHighRdy
30000418:	e59f20c8 	ldr	r2, [pc, #200]	@ 300004e8 <_Int_Nested+0x2c>
    ldr     r3, [r2]            // r3 = OSTCBHighRdy
3000041c:	e5923000 	ldr	r3, [r2]
    str     r3, [r0]            // OSTCBCur = r3
30000420:	e5803000 	str	r3, [r0]

    // 5. Switch priority variables
    ldr     r0, =OSPrioCur
30000424:	e59f00c4 	ldr	r0, [pc, #196]	@ 300004f0 <_Int_Nested+0x34>
    ldr     r1, =OSPrioHighRdy
30000428:	e59f10c4 	ldr	r1, [pc, #196]	@ 300004f4 <_Int_Nested+0x38>
    ldrb    r2, [r1]
3000042c:	e5d12000 	ldrb	r2, [r1]
    strb    r2, [r0]
30000430:	e5c02000 	strb	r2, [r0]

    // 6. Get new task SP
    ldr     sp, [r3]            // sp = OSTCBHighRdy->OSTCBStackPtr
30000434:	e593d000 	ldr	sp, [r3]

    // 7. Restore new task context
    ldmfd   sp!, {r0}           // Pop CPSR
30000438:	e8bd0001 	ldmfd	sp!, {r0}
    msr     cpsr_c, r0          // Restore state
3000043c:	e121f000 	msr	CPSR_c, r0
    ldmfd   sp!, {r0-r12, lr, pc} // Switch to task
30000440:	e8bddfff 	pop	{r0, r1, r2, r3, r4, r5, r6, r7, r8, r9, sl, fp, ip, lr, pc}

30000444 <OSIntCtxSw>:
OSIntCtxSw:
    // 1. Call hook
    // bl OSTaskSwHook

    // 2. Switch TCB pointer
    ldr     r0, =OSTCBCur
30000444:	e59f00a0 	ldr	r0, [pc, #160]	@ 300004ec <_Int_Nested+0x30>
    ldr     r1, =OSTCBHighRdy
30000448:	e59f1098 	ldr	r1, [pc, #152]	@ 300004e8 <_Int_Nested+0x2c>
    ldr     r2, [r1]
3000044c:	e5912000 	ldr	r2, [r1]
    str     r2, [r0]            // OSTCBCur = OSTCBHighRdy
30000450:	e5802000 	str	r2, [r0]

    // 3. Switch priority variables
    ldr     r0, =OSPrioCur
30000454:	e59f0094 	ldr	r0, [pc, #148]	@ 300004f0 <_Int_Nested+0x34>
    ldr     r1, =OSPrioHighRdy
30000458:	e59f1094 	ldr	r1, [pc, #148]	@ 300004f4 <_Int_Nested+0x38>
    ldrb    r2, [r1]
3000045c:	e5d12000 	ldrb	r2, [r1]
    strb    r2, [r0]
30000460:	e5c02000 	strb	r2, [r0]

    // 4. Switch stack pointer
    ldr     sp, [r2]            // sp = OSTCBHighRdy->OSTCBStackPtr
30000464:	e592d000 	ldr	sp, [r2]

    // 5. Restore new task context
    ldmfd   sp!, {r0}           // Pop CPSR
30000468:	e8bd0001 	ldmfd	sp!, {r0}
    msr     cpsr_c, r0          
3000046c:	e121f000 	msr	CPSR_c, r0
    ldmfd   sp!, {r0-r12, lr, pc} // Switch to task
30000470:	e8bddfff 	pop	{r0, r1, r2, r3, r4, r5, r6, r7, r8, r9, sl, fp, ip, lr, pc}

30000474 <OSTickISR>:


OSTickISR:
    
    // 1. Adjust return address
    sub     lr, lr, #4
30000474:	e24ee004 	sub	lr, lr, #4

    // 2. Temporarily save registers to IRQ stack
    stmfd   sp!, {r0-r3, r12, lr}
30000478:	e92d500f 	push	{r0, r1, r2, r3, ip, lr}
    
    // 3. Save SPSR (the CPSR before interrupt)
    mrs     r0, spsr
3000047c:	e14f0000 	mrs	r0, SPSR
    
    // 4. Prepare to switch to SVC mode
    add     sp, sp, #(6*4)      // Restore IRQ stack pointer
30000480:	e28dd018 	add	sp, sp, #24
    
    // 5. Switch to SVC mode
    msr     cpsr_c, #(SVC_MODE | NO_IRQ_FIQ) 
30000484:	e321f0d3 	msr	CPSR_c, #211	@ 0xd3
    
    // 6. Re-push those registers
    stmfd   sp!, {lr}           // Save LR in SVC mode
30000488:	e92d4000 	stmfd	sp!, {lr}
    stmfd   sp!, {lr}           // Placeholder
3000048c:	e92d4000 	stmfd	sp!, {lr}
    stmfd   sp!, {r0-r12}       // Save general-purpose registers
30000490:	e92d1fff 	push	{r0, r1, r2, r3, r4, r5, r6, r7, r8, r9, sl, fp, ip}
    stmfd   sp!, {r0}           // Save SPSR
30000494:	e92d0001 	stmfd	sp!, {r0}

    
    ldr     r0, =OSIntNesting   // OSIntNesting++
30000498:	e59f0058 	ldr	r0, [pc, #88]	@ 300004f8 <_Int_Nested+0x3c>
    ldrb    r1, [r0]
3000049c:	e5d01000 	ldrb	r1, [r0]
    add     r1, r1, #1
300004a0:	e2811001 	add	r1, r1, #1
    strb    r1, [r0]
300004a4:	e5c01000 	strb	r1, [r0]

    cmp     r1, #1              // If nesting level > 1, it's a nested interrupt
300004a8:	e3510001 	cmp	r1, #1
    bne     _Int_Nested
300004ac:	1a000002 	bne	300004bc <_Int_Nested>

    // If it's the first-level interrupt, save current SP to TCB
    ldr     r0, =OSTCBCur
300004b0:	e59f0034 	ldr	r0, [pc, #52]	@ 300004ec <_Int_Nested+0x30>
    ldr     r1, [r0]
300004b4:	e5901000 	ldr	r1, [r0]
    str     sp, [r1]
300004b8:	e581d000 	str	sp, [r1]

300004bc <_Int_Nested>:

_Int_Nested:
    // Clear Timer4 interrupt
    ldr     r0, =SRCPND     // rSRCPND
300004bc:	e3a0044a 	mov	r0, #1241513984	@ 0x4a000000
    ldr     r1, =(1<<14)
300004c0:	e3a01901 	mov	r1, #16384	@ 0x4000
    str     r1, [r0]
300004c4:	e5801000 	str	r1, [r0]
    ldr     r0, =INTPND     // rINTPND
300004c8:	e59f002c 	ldr	r0, [pc, #44]	@ 300004fc <_Int_Nested+0x40>
    str     r1, [r0]
300004cc:	e5801000 	str	r1, [r0]

    bl      OSTimeTick
300004d0:	eb000757 	bl	30002234 <OSTimeTick>
    bl      OSIntExit
300004d4:	eb00065f 	bl	30001e58 <OSIntExit>
    
    ldmfd   sp!, {r0}              // Restore SPSR
300004d8:	e8bd0001 	ldmfd	sp!, {r0}
    msr     spsr_cxsf, r0       
300004dc:	e16ff000 	msr	SPSR_fsxc, r0
300004e0:	e8fddfff 	ldm	sp!, {r0, r1, r2, r3, r4, r5, r6, r7, r8, r9, sl, fp, ip, lr, pc}^
    ldr     r0, =OSRunning
300004e4:	3000aca0 	.word	0x3000aca0
    ldr     r0, =OSTCBHighRdy
300004e8:	3000b5c0 	.word	0x3000b5c0
    ldr     r0, =OSTCBCur       // Load address of OSTCBCur
300004ec:	3000b5b8 	.word	0x3000b5b8
    ldr     r0, =OSPrioCur
300004f0:	3000ac93 	.word	0x3000ac93
    ldr     r1, =OSPrioHighRdy
300004f4:	3000ac94 	.word	0x3000ac94
    ldr     r0, =OSIntNesting   // OSIntNesting++
300004f8:	3000ac90 	.word	0x3000ac90
    ldr     r0, =INTPND     // rINTPND
300004fc:	4a000010 	.word	0x4a000010

30000500 <main>:
*********************************************************************************************************
* 主函数
*********************************************************************************************************
*/
int main(void)
{
30000500:	e92d4800 	push	{fp, lr}
30000504:	e28db004 	add	fp, sp, #4
    OSInit();      // 初始化内核
30000508:	eb00062c 	bl	30001dc0 <OSInit>
    BSP_Init();    // 初始化硬件
3000050c:	eb000332 	bl	300011dc <BSP_Init>
    OSTaskCreate(Task_Start, (void *)0, &StartStk[TASK_STK_SIZE - 1], 2);
30000510:	e3a03002 	mov	r3, #2
30000514:	e59f2020 	ldr	r2, [pc, #32]	@ 3000053c <main+0x3c>
30000518:	e3a01000 	mov	r1, #0
3000051c:	e59f001c 	ldr	r0, [pc, #28]	@ 30000540 <main+0x40>
30000520:	eb0019ec 	bl	30006cd8 <OSTaskCreate>
    OSStart();     // 多任务启动
30000524:	eb0006e9 	bl	300020d0 <OSStart>
    return 0;
30000528:	e3a03000 	mov	r3, #0
}
3000052c:	e1a00003 	mov	r0, r3
30000530:	e24bd004 	sub	sp, fp, #4
30000534:	e8bd4800 	pop	{fp, lr}
30000538:	e12fff1e 	bx	lr
3000053c:	300089bc 	.word	0x300089bc
30000540:	30000544 	.word	0x30000544

30000544 <Task_Start>:
*********************************************************************************************************
* 开始任务 (Prio 2)
*********************************************************************************************************
*/
void Task_Start(void *pdata)
{
30000544:	e92d4800 	push	{fp, lr}
30000548:	e28db004 	add	fp, sp, #4
3000054c:	e24dd010 	sub	sp, sp, #16
30000550:	e50b0010 	str	r0, [fp, #-16]
    INT8U err;
    (void)pdata;

    // 1. 创建所有 OS 对象
    SemBeep      = OSSemCreate(0);                  // 初始0，按键触发
30000554:	e3a00000 	mov	r0, #0
30000558:	eb001780 	bl	30006360 <OSSemCreate>
3000055c:	e1a03000 	mov	r3, r0
30000560:	e59f2120 	ldr	r2, [pc, #288]	@ 30000688 <Task_Start+0x144>
30000564:	e5823000 	str	r3, [r2]
    MboxLed      = OSMboxCreate((void *)0);         // 邮箱
30000568:	e3a00000 	mov	r0, #0
3000056c:	eb000e95 	bl	30003fc8 <OSMboxCreate>
30000570:	e1a03000 	mov	r3, r0
30000574:	e59f2110 	ldr	r2, [pc, #272]	@ 3000068c <Task_Start+0x148>
30000578:	e5823000 	str	r3, [r2]
    DataQueue    = OSQCreate(&QMsgTbl[0], 10);      // 队列
3000057c:	e3a0100a 	mov	r1, #10
30000580:	e59f0108 	ldr	r0, [pc, #264]	@ 30000690 <Task_Start+0x14c>
30000584:	eb0014ab 	bl	30005838 <OSQCreate>
30000588:	e1a03000 	mov	r3, r0
3000058c:	e59f2100 	ldr	r2, [pc, #256]	@ 30000694 <Task_Start+0x150>
30000590:	e5823000 	str	r3, [r2]
    UartMutex    = OSMutexCreate(1, &err);          // 互斥锁 (PIP=1)
30000594:	e24b3005 	sub	r3, fp, #5
30000598:	e1a01003 	mov	r1, r3
3000059c:	e3a00001 	mov	r0, #1
300005a0:	eb001188 	bl	30004bc8 <OSMutexCreate>
300005a4:	e1a03000 	mov	r3, r0
300005a8:	e59f20e8 	ldr	r2, [pc, #232]	@ 30000698 <Task_Start+0x154>
300005ac:	e5823000 	str	r3, [r2]
    SysModeFlag  = OSFlagCreate(MODE_NORMAL, &err); // 默认普通模式
300005b0:	e24b3005 	sub	r3, fp, #5
300005b4:	e1a01003 	mov	r1, r3
300005b8:	e3a00001 	mov	r0, #1
300005bc:	eb000ab4 	bl	30003094 <OSFlagCreate>
300005c0:	e1a03000 	mov	r3, r0
300005c4:	e59f20d0 	ldr	r2, [pc, #208]	@ 3000069c <Task_Start+0x158>
300005c8:	e5823000 	str	r3, [r2]
    MemPartition = OSMemCreate(&MemStorage[0][0], 10, 64, &err); // 内存池
300005cc:	e24b3005 	sub	r3, fp, #5
300005d0:	e3a02040 	mov	r2, #64	@ 0x40
300005d4:	e3a0100a 	mov	r1, #10
300005d8:	e59f00c0 	ldr	r0, [pc, #192]	@ 300006a0 <Task_Start+0x15c>
300005dc:	eb000ff6 	bl	300045bc <OSMemCreate>
300005e0:	e1a03000 	mov	r3, r0
300005e4:	e59f20b8 	ldr	r2, [pc, #184]	@ 300006a4 <Task_Start+0x160>
300005e8:	e5823000 	str	r3, [r2]

    // 2. 初始化统计任务
    OSStatInit();
300005ec:	eb0006f0 	bl	300021b4 <OSStatInit>

    // 3. 打印启动 Log
    OSMutexPend(UartMutex, 0, &err);
300005f0:	e59f30a0 	ldr	r3, [pc, #160]	@ 30000698 <Task_Start+0x154>
300005f4:	e5933000 	ldr	r3, [r3]
300005f8:	e24b2005 	sub	r2, fp, #5
300005fc:	e3a01000 	mov	r1, #0
30000600:	e1a00003 	mov	r0, r3
30000604:	eb00124c 	bl	30004f3c <OSMutexPend>
    Uart_Printf("\n uC/OS-II Started on Mini2440. \n");
30000608:	e59f0098 	ldr	r0, [pc, #152]	@ 300006a8 <Task_Start+0x164>
3000060c:	eb000460 	bl	30001794 <Uart_Printf>
    OSMutexPost(UartMutex);
30000610:	e59f3080 	ldr	r3, [pc, #128]	@ 30000698 <Task_Start+0x154>
30000614:	e5933000 	ldr	r3, [r3]
30000618:	e1a00003 	mov	r0, r3
3000061c:	eb001330 	bl	300052e4 <OSMutexPost>

    // 4. 创建应用任务
    OSTaskCreate(Task_Input, (void *)0, &InputStk[TASK_STK_SIZE - 1], 3);
30000620:	e3a03003 	mov	r3, #3
30000624:	e59f2080 	ldr	r2, [pc, #128]	@ 300006ac <Task_Start+0x168>
30000628:	e3a01000 	mov	r1, #0
3000062c:	e59f007c 	ldr	r0, [pc, #124]	@ 300006b0 <Task_Start+0x16c>
30000630:	eb0019a8 	bl	30006cd8 <OSTaskCreate>
    OSTaskCreate(Task_Work, (void *)0, &WorkStk[TASK_STK_SIZE - 1], 4);
30000634:	e3a03004 	mov	r3, #4
30000638:	e59f2074 	ldr	r2, [pc, #116]	@ 300006b4 <Task_Start+0x170>
3000063c:	e3a01000 	mov	r1, #0
30000640:	e59f0070 	ldr	r0, [pc, #112]	@ 300006b8 <Task_Start+0x174>
30000644:	eb0019a3 	bl	30006cd8 <OSTaskCreate>
    OSTaskCreate(Task_Display, (void *)0, &DisplayStk[TASK_STK_SIZE - 1], 5);
30000648:	e3a03005 	mov	r3, #5
3000064c:	e59f2068 	ldr	r2, [pc, #104]	@ 300006bc <Task_Start+0x178>
30000650:	e3a01000 	mov	r1, #0
30000654:	e59f0064 	ldr	r0, [pc, #100]	@ 300006c0 <Task_Start+0x17c>
30000658:	eb00199e 	bl	30006cd8 <OSTaskCreate>
    OSTaskCreate(Task_Monitor, (void *)0, &MonitorStk[TASK_STK_SIZE - 1], 6);
3000065c:	e3a03006 	mov	r3, #6
30000660:	e59f205c 	ldr	r2, [pc, #92]	@ 300006c4 <Task_Start+0x180>
30000664:	e3a01000 	mov	r1, #0
30000668:	e59f0058 	ldr	r0, [pc, #88]	@ 300006c8 <Task_Start+0x184>
3000066c:	eb001999 	bl	30006cd8 <OSTaskCreate>

    OSTaskDel(OS_PRIO_SELF);
30000670:	e3a000ff 	mov	r0, #255	@ 0xff
30000674:	eb0019f6 	bl	30006e54 <OSTaskDel>
}
30000678:	e1a00000 	nop			@ (mov r0, r0)
3000067c:	e24bd004 	sub	sp, fp, #4
30000680:	e8bd4800 	pop	{fp, lr}
30000684:	e12fff1e 	bx	lr
30000688:	3000a9c0 	.word	0x3000a9c0
3000068c:	3000a9c4 	.word	0x3000a9c4
30000690:	3000a9cc 	.word	0x3000a9cc
30000694:	3000a9c8 	.word	0x3000a9c8
30000698:	3000a9f4 	.word	0x3000a9f4
3000069c:	3000a9f8 	.word	0x3000a9f8
300006a0:	3000aa00 	.word	0x3000aa00
300006a4:	3000a9fc 	.word	0x3000a9fc
300006a8:	30007f1c 	.word	0x30007f1c
300006ac:	300091bc 	.word	0x300091bc
300006b0:	300006cc 	.word	0x300006cc
300006b4:	300099bc 	.word	0x300099bc
300006b8:	30000954 	.word	0x30000954
300006bc:	3000a1bc 	.word	0x3000a1bc
300006c0:	30000a18 	.word	0x30000a18
300006c4:	3000a9bc 	.word	0x3000a9bc
300006c8:	30000b94 	.word	0x30000b94

300006cc <Task_Input>:
* 输入任务 (Prio 3)
* 职责：扫描按键 -> 分发 OS 事件
*********************************************************************************************************
*/
void Task_Input(void *pdata)
{
300006cc:	e92d4800 	push	{fp, lr}
300006d0:	e28db004 	add	fp, sp, #4
300006d4:	e24dd020 	sub	sp, sp, #32
300006d8:	e50b0020 	str	r0, [fp, #-32]	@ 0xffffffe0
    DATA_PKT static_pkt;
    static INT8U work_task_suspended = 0;
    (void)pdata;

    for (;;) {
        key = Key_Scan(); // 扫描按键
300006dc:	eb000280 	bl	300010e4 <Key_Scan>
300006e0:	e50b0008 	str	r0, [fp, #-8]

        if (key != 0) {
300006e4:	e51b3008 	ldr	r3, [fp, #-8]
300006e8:	e3530000 	cmp	r3, #0
300006ec:	0a000081 	beq	300008f8 <Task_Input+0x22c>
            // 按键按下，打印 Log
            OSMutexPend(UartMutex, 0, &err);
300006f0:	e59f3218 	ldr	r3, [pc, #536]	@ 30000910 <Task_Input+0x244>
300006f4:	e5933000 	ldr	r3, [r3]
300006f8:	e24b200d 	sub	r2, fp, #13
300006fc:	e3a01000 	mov	r1, #0
30000700:	e1a00003 	mov	r0, r3
30000704:	eb00120c 	bl	30004f3c <OSMutexPend>
            Uart_Printf("[KEY] K%d Pressed -> ", key);
30000708:	e51b1008 	ldr	r1, [fp, #-8]
3000070c:	e59f0200 	ldr	r0, [pc, #512]	@ 30000914 <Task_Input+0x248>
30000710:	eb00041f 	bl	30001794 <Uart_Printf>
            OSMutexPost(UartMutex);
30000714:	e59f31f4 	ldr	r3, [pc, #500]	@ 30000910 <Task_Input+0x244>
30000718:	e5933000 	ldr	r3, [r3]
3000071c:	e1a00003 	mov	r0, r3
30000720:	eb0012ef 	bl	300052e4 <OSMutexPost>

            switch (key) {
30000724:	e51b3008 	ldr	r3, [fp, #-8]
30000728:	e2433001 	sub	r3, r3, #1
3000072c:	e3530005 	cmp	r3, #5
30000730:	979ff103 	ldrls	pc, [pc, r3, lsl #2]
30000734:	ea000060 	b	300008bc <Task_Input+0x1f0>
30000738:	30000750 	.word	0x30000750
3000073c:	3000076c 	.word	0x3000076c
30000740:	3000078c 	.word	0x3000078c
30000744:	300007c4 	.word	0x300007c4
30000748:	30000830 	.word	0x30000830
3000074c:	30000880 	.word	0x30000880
                // K1: 触发蜂鸣器 (Sem)
                case 1:
                    Uart_Printf("Signal Beep\n");
30000750:	e59f01c0 	ldr	r0, [pc, #448]	@ 30000918 <Task_Input+0x24c>
30000754:	eb00040e 	bl	30001794 <Uart_Printf>
                    OSSemPost(SemBeep); 
30000758:	e59f31bc 	ldr	r3, [pc, #444]	@ 3000091c <Task_Input+0x250>
3000075c:	e5933000 	ldr	r3, [r3]
30000760:	e1a00003 	mov	r0, r3
30000764:	eb001801 	bl	30006770 <OSSemPost>
                    break;
30000768:	ea000053 	b	300008bc <Task_Input+0x1f0>

                // K2: 控制 LED1 翻转 (Mbox)
                case 2:
                    Uart_Printf("Send Mbox to LED\n");
3000076c:	e59f01ac 	ldr	r0, [pc, #428]	@ 30000920 <Task_Input+0x254>
30000770:	eb000407 	bl	30001794 <Uart_Printf>
                    OSMboxPost(MboxLed, (void *)0x01); // 发送指令 1
30000774:	e59f31a8 	ldr	r3, [pc, #424]	@ 30000924 <Task_Input+0x258>
30000778:	e5933000 	ldr	r3, [r3]
3000077c:	e3a01001 	mov	r1, #1
30000780:	e1a00003 	mov	r0, r3
30000784:	eb000f22 	bl	30004414 <OSMboxPost>
                    break;
30000788:	ea00004b 	b	300008bc <Task_Input+0x1f0>

                // K3: 发送静态数据到队列 (Queue)
                case 3:
                    Uart_Printf("Send Static Queue\n");
3000078c:	e59f0194 	ldr	r0, [pc, #404]	@ 30000928 <Task_Input+0x25c>
30000790:	eb0003ff 	bl	30001794 <Uart_Printf>
                    static_pkt.Type = 0;
30000794:	e3a03000 	mov	r3, #0
30000798:	e54b3018 	strb	r3, [fp, #-24]	@ 0xffffffe8
                    static_pkt.Value = OSTimeGet(); // 发送当前时间
3000079c:	eb001cce 	bl	30007adc <OSTimeGet>
300007a0:	e1a03000 	mov	r3, r0
300007a4:	e50b3014 	str	r3, [fp, #-20]	@ 0xffffffec
                    OSQPost(DataQueue, &static_pkt);
300007a8:	e59f317c 	ldr	r3, [pc, #380]	@ 3000092c <Task_Input+0x260>
300007ac:	e5933000 	ldr	r3, [r3]
300007b0:	e24b2018 	sub	r2, fp, #24
300007b4:	e1a01002 	mov	r1, r2
300007b8:	e1a00003 	mov	r0, r3
300007bc:	eb0015b4 	bl	30005e94 <OSQPost>
                    break;
300007c0:	ea00003d 	b	300008bc <Task_Input+0x1f0>

                // K4: 申请动态内存并发送 (Mem + Queue)
                case 4:
                    Uart_Printf("Alloc Mem & Send\n");
300007c4:	e59f0164 	ldr	r0, [pc, #356]	@ 30000930 <Task_Input+0x264>
300007c8:	eb0003f1 	bl	30001794 <Uart_Printf>
                    // [OS_MEM] 申请内存
                    p_mem_pkt = (DATA_PKT *)OSMemGet(MemPartition, &err);
300007cc:	e59f3160 	ldr	r3, [pc, #352]	@ 30000934 <Task_Input+0x268>
300007d0:	e5933000 	ldr	r3, [r3]
300007d4:	e24b200d 	sub	r2, fp, #13
300007d8:	e1a01002 	mov	r1, r2
300007dc:	e1a00003 	mov	r0, r3
300007e0:	eb000fde 	bl	30004760 <OSMemGet>
300007e4:	e50b000c 	str	r0, [fp, #-12]
                    if (err == OS_NO_ERR) {
300007e8:	e55b300d 	ldrb	r3, [fp, #-13]
300007ec:	e3530000 	cmp	r3, #0
300007f0:	1a00000b 	bne	30000824 <Task_Input+0x158>
                        p_mem_pkt->Type = 1; // 标记为动态内存
300007f4:	e51b300c 	ldr	r3, [fp, #-12]
300007f8:	e3a02001 	mov	r2, #1
300007fc:	e5c32000 	strb	r2, [r3]
                        p_mem_pkt->Value = 0xDEADBEEF; // 测试数据
30000800:	e51b300c 	ldr	r3, [fp, #-12]
30000804:	e59f212c 	ldr	r2, [pc, #300]	@ 30000938 <Task_Input+0x26c>
30000808:	e5832004 	str	r2, [r3, #4]
                        OSQPost(DataQueue, p_mem_pkt);
3000080c:	e59f3118 	ldr	r3, [pc, #280]	@ 3000092c <Task_Input+0x260>
30000810:	e5933000 	ldr	r3, [r3]
30000814:	e51b100c 	ldr	r1, [fp, #-12]
30000818:	e1a00003 	mov	r0, r3
3000081c:	eb00159c 	bl	30005e94 <OSQPost>
                    } 
                    else {
                        Uart_Printf("Mem Full!\n");
                    }
                    break;
30000820:	ea000025 	b	300008bc <Task_Input+0x1f0>
                        Uart_Printf("Mem Full!\n");
30000824:	e59f0110 	ldr	r0, [pc, #272]	@ 3000093c <Task_Input+0x270>
30000828:	eb0003d9 	bl	30001794 <Uart_Printf>
                    break;
3000082c:	ea000022 	b	300008bc <Task_Input+0x1f0>

                // K5: 挂起/恢复 Work 任务 (Task Suspend/Resume)
                case 5:
                    if (work_task_suspended) {
30000830:	e59f3108 	ldr	r3, [pc, #264]	@ 30000940 <Task_Input+0x274>
30000834:	e5d33000 	ldrb	r3, [r3]
30000838:	e3530000 	cmp	r3, #0
3000083c:	0a000007 	beq	30000860 <Task_Input+0x194>
                        Uart_Printf("Resume Work Task\n");
30000840:	e59f00fc 	ldr	r0, [pc, #252]	@ 30000944 <Task_Input+0x278>
30000844:	eb0003d2 	bl	30001794 <Uart_Printf>
                        OSTaskResume(4); // 恢复 Prio 4
30000848:	e3a00004 	mov	r0, #4
3000084c:	eb001aa6 	bl	300072ec <OSTaskResume>
                        work_task_suspended = 0;
30000850:	e59f30e8 	ldr	r3, [pc, #232]	@ 30000940 <Task_Input+0x274>
30000854:	e3a02000 	mov	r2, #0
30000858:	e5c32000 	strb	r2, [r3]
                    else {
                        Uart_Printf("Suspend Work Task\n");
                        OSTaskSuspend(4); // 挂起 Prio 4
                        work_task_suspended = 1;
                    }
                    break;
3000085c:	ea000016 	b	300008bc <Task_Input+0x1f0>
                        Uart_Printf("Suspend Work Task\n");
30000860:	e59f00e0 	ldr	r0, [pc, #224]	@ 30000948 <Task_Input+0x27c>
30000864:	eb0003ca 	bl	30001794 <Uart_Printf>
                        OSTaskSuspend(4); // 挂起 Prio 4
30000868:	e3a00004 	mov	r0, #4
3000086c:	eb001afa 	bl	3000745c <OSTaskSuspend>
                        work_task_suspended = 1;
30000870:	e59f30c8 	ldr	r3, [pc, #200]	@ 30000940 <Task_Input+0x274>
30000874:	e3a02001 	mov	r2, #1
30000878:	e5c32000 	strb	r2, [r3]
                    break;
3000087c:	ea00000e 	b	300008bc <Task_Input+0x1f0>

                // K6: 切换系统模式 (Flag)
                case 6:
                    OSFlagPost(SysModeFlag, MODE_NORMAL | MODE_TURBO, OS_FLAG_CLR, &err); // 清除
30000880:	e59f30c4 	ldr	r3, [pc, #196]	@ 3000094c <Task_Input+0x280>
30000884:	e5930000 	ldr	r0, [r3]
30000888:	e24b300d 	sub	r3, fp, #13
3000088c:	e3a02000 	mov	r2, #0
30000890:	e3a01003 	mov	r1, #3
30000894:	eb000bd6 	bl	300037f4 <OSFlagPost>
                    OSFlagPost(SysModeFlag, MODE_TURBO, OS_FLAG_SET, &err); // 设为 Turbo
30000898:	e59f30ac 	ldr	r3, [pc, #172]	@ 3000094c <Task_Input+0x280>
3000089c:	e5930000 	ldr	r0, [r3]
300008a0:	e24b300d 	sub	r3, fp, #13
300008a4:	e3a02001 	mov	r2, #1
300008a8:	e3a01002 	mov	r1, #2
300008ac:	eb000bd0 	bl	300037f4 <OSFlagPost>
                    Uart_Printf("Set Mode: TURBO\n");
300008b0:	e59f0098 	ldr	r0, [pc, #152]	@ 30000950 <Task_Input+0x284>
300008b4:	eb0003b6 	bl	30001794 <Uart_Printf>
                    break;
300008b8:	e1a00000 	nop			@ (mov r0, r0)
            }
            
            OSTimeDlyHMSM(0,0,0,20); // 去抖
300008bc:	e3a03014 	mov	r3, #20
300008c0:	e3a02000 	mov	r2, #0
300008c4:	e3a01000 	mov	r1, #0
300008c8:	e3a00000 	mov	r0, #0
300008cc:	eb001bca 	bl	300077fc <OSTimeDlyHMSM>
            while(Key_Scan() != 0) {
300008d0:	ea000004 	b	300008e8 <Task_Input+0x21c>
                OSTimeDlyHMSM(0,0,0,5);
300008d4:	e3a03005 	mov	r3, #5
300008d8:	e3a02000 	mov	r2, #0
300008dc:	e3a01000 	mov	r1, #0
300008e0:	e3a00000 	mov	r0, #0
300008e4:	eb001bc4 	bl	300077fc <OSTimeDlyHMSM>
            while(Key_Scan() != 0) {
300008e8:	eb0001fd 	bl	300010e4 <Key_Scan>
300008ec:	e1a03000 	mov	r3, r0
300008f0:	e3530000 	cmp	r3, #0
300008f4:	1afffff6 	bne	300008d4 <Task_Input+0x208>
            } // 等待释放
        }
        OSTimeDlyHMSM(0,0,0,50); // 50ms 扫描一次
300008f8:	e3a03032 	mov	r3, #50	@ 0x32
300008fc:	e3a02000 	mov	r2, #0
30000900:	e3a01000 	mov	r1, #0
30000904:	e3a00000 	mov	r0, #0
30000908:	eb001bbb 	bl	300077fc <OSTimeDlyHMSM>
        key = Key_Scan(); // 扫描按键
3000090c:	eaffff72 	b	300006dc <Task_Input+0x10>
30000910:	3000a9f4 	.word	0x3000a9f4
30000914:	30007f40 	.word	0x30007f40
30000918:	30007f58 	.word	0x30007f58
3000091c:	3000a9c0 	.word	0x3000a9c0
30000920:	30007f68 	.word	0x30007f68
30000924:	3000a9c4 	.word	0x3000a9c4
30000928:	30007f7c 	.word	0x30007f7c
3000092c:	3000a9c8 	.word	0x3000a9c8
30000930:	30007f90 	.word	0x30007f90
30000934:	3000a9fc 	.word	0x3000a9fc
30000938:	deadbeef 	.word	0xdeadbeef
3000093c:	30007fa4 	.word	0x30007fa4
30000940:	3000ac80 	.word	0x3000ac80
30000944:	30007fb0 	.word	0x30007fb0
30000948:	30007fc4 	.word	0x30007fc4
3000094c:	3000a9f8 	.word	0x3000a9f8
30000950:	30007fd8 	.word	0x30007fd8

30000954 <Task_Work>:
* 核心业务任务 (Prio 4)
* 职责：处理队列数据，必须处理内存释放
*********************************************************************************************************
*/
void Task_Work(void *pdata)
{
30000954:	e92d4800 	push	{fp, lr}
30000958:	e28db004 	add	fp, sp, #4
3000095c:	e24dd010 	sub	sp, sp, #16
30000960:	e50b0010 	str	r0, [fp, #-16]
    DATA_PKT *p_pkt;
    (void)pdata;

    for (;;) {
        // 死等队列消息
        p_pkt = (DATA_PKT *)OSQPend(DataQueue, 0, &err);
30000964:	e59f3098 	ldr	r3, [pc, #152]	@ 30000a04 <Task_Work+0xb0>
30000968:	e5933000 	ldr	r3, [r3]
3000096c:	e24b2009 	sub	r2, fp, #9
30000970:	e3a01000 	mov	r1, #0
30000974:	e1a00003 	mov	r0, r3
30000978:	eb0014c1 	bl	30005c84 <OSQPend>
3000097c:	e50b0008 	str	r0, [fp, #-8]

        if (err == OS_NO_ERR) {
30000980:	e55b3009 	ldrb	r3, [fp, #-9]
30000984:	e3530000 	cmp	r3, #0
30000988:	1afffff5 	bne	30000964 <Task_Work+0x10>
            OSMutexPend(UartMutex, 0, &err);
3000098c:	e59f3074 	ldr	r3, [pc, #116]	@ 30000a08 <Task_Work+0xb4>
30000990:	e5933000 	ldr	r3, [r3]
30000994:	e24b2009 	sub	r2, fp, #9
30000998:	e3a01000 	mov	r1, #0
3000099c:	e1a00003 	mov	r0, r3
300009a0:	eb001165 	bl	30004f3c <OSMutexPend>
            Uart_Printf("[Work] Recv: Type=%d, Val=0x%X\n", p_pkt->Type, p_pkt->Value);
300009a4:	e51b3008 	ldr	r3, [fp, #-8]
300009a8:	e5d33000 	ldrb	r3, [r3]
300009ac:	e1a01003 	mov	r1, r3
300009b0:	e51b3008 	ldr	r3, [fp, #-8]
300009b4:	e5933004 	ldr	r3, [r3, #4]
300009b8:	e1a02003 	mov	r2, r3
300009bc:	e59f0048 	ldr	r0, [pc, #72]	@ 30000a0c <Task_Work+0xb8>
300009c0:	eb000373 	bl	30001794 <Uart_Printf>
            OSMutexPost(UartMutex);
300009c4:	e59f303c 	ldr	r3, [pc, #60]	@ 30000a08 <Task_Work+0xb4>
300009c8:	e5933000 	ldr	r3, [r3]
300009cc:	e1a00003 	mov	r0, r3
300009d0:	eb001243 	bl	300052e4 <OSMutexPost>

            // 如果是动态申请的内存，必须释放！
            if (p_pkt->Type == 1) {
300009d4:	e51b3008 	ldr	r3, [fp, #-8]
300009d8:	e5d33000 	ldrb	r3, [r3]
300009dc:	e3530001 	cmp	r3, #1
300009e0:	1affffdf 	bne	30000964 <Task_Work+0x10>
                OSMemPut(MemPartition, (void *)p_pkt);
300009e4:	e59f3024 	ldr	r3, [pc, #36]	@ 30000a10 <Task_Work+0xbc>
300009e8:	e5933000 	ldr	r3, [r3]
300009ec:	e51b1008 	ldr	r1, [fp, #-8]
300009f0:	e1a00003 	mov	r0, r3
300009f4:	eb000f89 	bl	30004820 <OSMemPut>
                Uart_Printf("[Work] Mem Freed.\n");
300009f8:	e59f0014 	ldr	r0, [pc, #20]	@ 30000a14 <Task_Work+0xc0>
300009fc:	eb000364 	bl	30001794 <Uart_Printf>
        p_pkt = (DATA_PKT *)OSQPend(DataQueue, 0, &err);
30000a00:	eaffffd7 	b	30000964 <Task_Work+0x10>
30000a04:	3000a9c8 	.word	0x3000a9c8
30000a08:	3000a9f4 	.word	0x3000a9f4
30000a0c:	30007fec 	.word	0x30007fec
30000a10:	3000a9fc 	.word	0x3000a9fc
30000a14:	3000800c 	.word	0x3000800c

30000a18 <Task_Display>:
* 显示与反馈任务 (Prio 5)
* 职责：处理蜂鸣器、LED
*********************************************************************************************************
*/
void Task_Display(void *pdata)
{
30000a18:	e92d4800 	push	{fp, lr}
30000a1c:	e28db004 	add	fp, sp, #4
30000a20:	e24dd018 	sub	sp, sp, #24
30000a24:	e50b0018 	str	r0, [fp, #-24]	@ 0xffffffe8
    static int led1_state = 0;
    (void)pdata;

    for (;;) {
        //  1. 检查蜂鸣器 (非阻塞 Accept) 
        if (OSSemAccept(SemBeep) > 0) {
30000a28:	e59f314c 	ldr	r3, [pc, #332]	@ 30000b7c <Task_Display+0x164>
30000a2c:	e5933000 	ldr	r3, [r3]
30000a30:	e1a00003 	mov	r0, r3
30000a34:	eb001626 	bl	300062d4 <OSSemAccept>
30000a38:	e1a03000 	mov	r3, r0
30000a3c:	e3530000 	cmp	r3, #0
30000a40:	0a000008 	beq	30000a68 <Task_Display+0x50>
            Beep_Ctrl(1);
30000a44:	e3a00001 	mov	r0, #1
30000a48:	eb00013a 	bl	30000f38 <Beep_Ctrl>
            OSTimeDlyHMSM(0,0,0,10); // 响 100ms
30000a4c:	e3a0300a 	mov	r3, #10
30000a50:	e3a02000 	mov	r2, #0
30000a54:	e3a01000 	mov	r1, #0
30000a58:	e3a00000 	mov	r0, #0
30000a5c:	eb001b66 	bl	300077fc <OSTimeDlyHMSM>
            Beep_Ctrl(0);
30000a60:	e3a00000 	mov	r0, #0
30000a64:	eb000133 	bl	30000f38 <Beep_Ctrl>
        }

        //  2. 检查 LED 邮箱 (非阻塞 Accept) 
        msg = OSMboxAccept(MboxLed);
30000a68:	e59f3110 	ldr	r3, [pc, #272]	@ 30000b80 <Task_Display+0x168>
30000a6c:	e5933000 	ldr	r3, [r3]
30000a70:	e1a00003 	mov	r0, r3
30000a74:	eb000d35 	bl	30003f50 <OSMboxAccept>
30000a78:	e50b000c 	str	r0, [fp, #-12]
        if (msg != (void *)0) {
30000a7c:	e51b300c 	ldr	r3, [fp, #-12]
30000a80:	e3530000 	cmp	r3, #0
30000a84:	0a000008 	beq	30000aac <Task_Display+0x94>
            // 收到翻转指令
            led1_state = !led1_state;
30000a88:	e59f30f4 	ldr	r3, [pc, #244]	@ 30000b84 <Task_Display+0x16c>
30000a8c:	e5933000 	ldr	r3, [r3]
30000a90:	e3530000 	cmp	r3, #0
30000a94:	03a03001 	moveq	r3, #1
30000a98:	13a03000 	movne	r3, #0
30000a9c:	e20330ff 	and	r3, r3, #255	@ 0xff
30000aa0:	e1a02003 	mov	r2, r3
30000aa4:	e59f30d8 	ldr	r3, [pc, #216]	@ 30000b84 <Task_Display+0x16c>
30000aa8:	e5832000 	str	r2, [r3]
        }

        //  3. 根据标志位更新 LED2/3/4 
        OS_FLAGS flags = OSFlagQuery(SysModeFlag, &err);
30000aac:	e59f30d4 	ldr	r3, [pc, #212]	@ 30000b88 <Task_Display+0x170>
30000ab0:	e5933000 	ldr	r3, [r3]
30000ab4:	e24b2011 	sub	r2, fp, #17
30000ab8:	e1a01002 	mov	r1, r2
30000abc:	e1a00003 	mov	r0, r3
30000ac0:	eb000bff 	bl	30003ac4 <OSFlagQuery>
30000ac4:	e50b0010 	str	r0, [fp, #-16]
        
        int led_mask = 0;
30000ac8:	e3a03000 	mov	r3, #0
30000acc:	e50b3008 	str	r3, [fp, #-8]
        if (led1_state) led_mask |= 1; // LED1
30000ad0:	e59f30ac 	ldr	r3, [pc, #172]	@ 30000b84 <Task_Display+0x16c>
30000ad4:	e5933000 	ldr	r3, [r3]
30000ad8:	e3530000 	cmp	r3, #0
30000adc:	0a000002 	beq	30000aec <Task_Display+0xd4>
30000ae0:	e51b3008 	ldr	r3, [fp, #-8]
30000ae4:	e3833001 	orr	r3, r3, #1
30000ae8:	e50b3008 	str	r3, [fp, #-8]
        
        if (flags & MODE_TURBO) {
30000aec:	e51b3010 	ldr	r3, [fp, #-16]
30000af0:	e2033002 	and	r3, r3, #2
30000af4:	e3530000 	cmp	r3, #0
30000af8:	0a000014 	beq	30000b50 <Task_Display+0x138>
            // Turbo 模式：LED 2,3,4 跑马灯
            static int shift = 0;
            led_mask |= (2 << shift);
30000afc:	e59f3088 	ldr	r3, [pc, #136]	@ 30000b8c <Task_Display+0x174>
30000b00:	e5933000 	ldr	r3, [r3]
30000b04:	e3a02002 	mov	r2, #2
30000b08:	e1a03312 	lsl	r3, r2, r3
30000b0c:	e51b2008 	ldr	r2, [fp, #-8]
30000b10:	e1823003 	orr	r3, r2, r3
30000b14:	e50b3008 	str	r3, [fp, #-8]
            shift = (shift + 1) % 3;
30000b18:	e59f306c 	ldr	r3, [pc, #108]	@ 30000b8c <Task_Display+0x174>
30000b1c:	e5933000 	ldr	r3, [r3]
30000b20:	e2831001 	add	r1, r3, #1
30000b24:	e59f3064 	ldr	r3, [pc, #100]	@ 30000b90 <Task_Display+0x178>
30000b28:	e0c20193 	smull	r0, r2, r3, r1
30000b2c:	e1a03fc1 	asr	r3, r1, #31
30000b30:	e0422003 	sub	r2, r2, r3
30000b34:	e1a03002 	mov	r3, r2
30000b38:	e1a03083 	lsl	r3, r3, #1
30000b3c:	e0833002 	add	r3, r3, r2
30000b40:	e0412003 	sub	r2, r1, r3
30000b44:	e59f3040 	ldr	r3, [pc, #64]	@ 30000b8c <Task_Display+0x174>
30000b48:	e5832000 	str	r2, [r3]
30000b4c:	ea000002 	b	30000b5c <Task_Display+0x144>
        } 
        else {
            // Normal 模式：LED 2 亮
            led_mask |= 2;
30000b50:	e51b3008 	ldr	r3, [fp, #-8]
30000b54:	e3833002 	orr	r3, r3, #2
30000b58:	e50b3008 	str	r3, [fp, #-8]
        }

        LED_Set(led_mask);
30000b5c:	e51b0008 	ldr	r0, [fp, #-8]
30000b60:	eb00011e 	bl	30000fe0 <LED_Set>
        OSTimeDlyHMSM(0,0,0,10); // 刷新率 10Hz
30000b64:	e3a0300a 	mov	r3, #10
30000b68:	e3a02000 	mov	r2, #0
30000b6c:	e3a01000 	mov	r1, #0
30000b70:	e3a00000 	mov	r0, #0
30000b74:	eb001b20 	bl	300077fc <OSTimeDlyHMSM>
    for (;;) {
30000b78:	eaffffaa 	b	30000a28 <Task_Display+0x10>
30000b7c:	3000a9c0 	.word	0x3000a9c0
30000b80:	3000a9c4 	.word	0x3000a9c4
30000b84:	3000ac84 	.word	0x3000ac84
30000b88:	3000a9f8 	.word	0x3000a9f8
30000b8c:	3000ac88 	.word	0x3000ac88
30000b90:	55555556 	.word	0x55555556

30000b94 <Task_Monitor>:
* 监控任务 (Prio 6)
* 职责：使用 Query 函数监控系统健康，并打印到串口
*********************************************************************************************************
*/
void Task_Monitor(void *pdata)
{
30000b94:	e92d4800 	push	{fp, lr}
30000b98:	e28db004 	add	fp, sp, #4
30000b9c:	e24dd038 	sub	sp, sp, #56	@ 0x38
30000ba0:	e50b0038 	str	r0, [fp, #-56]	@ 0xffffffc8
    OS_MEM_DATA mem_data;
    OS_Q_DATA   q_data;
    (void)pdata;

    for (;;) {
        OSTimeDlyHMSM(0,0,10,0); // 每 10 秒打印一次
30000ba4:	e3a03000 	mov	r3, #0
30000ba8:	e3a0200a 	mov	r2, #10
30000bac:	e3a01000 	mov	r1, #0
30000bb0:	e3a00000 	mov	r0, #0
30000bb4:	eb001b10 	bl	300077fc <OSTimeDlyHMSM>

        // 1. 查询内存剩余
        OSMemQuery(MemPartition, &mem_data);
30000bb8:	e59f3094 	ldr	r3, [pc, #148]	@ 30000c54 <Task_Monitor+0xc0>
30000bbc:	e5933000 	ldr	r3, [r3]
30000bc0:	e24b2020 	sub	r2, fp, #32
30000bc4:	e1a01002 	mov	r1, r2
30000bc8:	e1a00003 	mov	r0, r3
30000bcc:	eb000f41 	bl	300048d8 <OSMemQuery>
        
        // 2. 查询队列堆积
        OSQQuery(DataQueue, &q_data);
30000bd0:	e59f3080 	ldr	r3, [pc, #128]	@ 30000c58 <Task_Monitor+0xc4>
30000bd4:	e5933000 	ldr	r3, [r3]
30000bd8:	e24b2034 	sub	r2, fp, #52	@ 0x34
30000bdc:	e1a01002 	mov	r1, r2
30000be0:	e1a00003 	mov	r0, r3
30000be4:	eb001558 	bl	3000614c <OSQQuery>

        // 3. 打印报表
        OSMutexPend(UartMutex, 0, &err);
30000be8:	e59f306c 	ldr	r3, [pc, #108]	@ 30000c5c <Task_Monitor+0xc8>
30000bec:	e5933000 	ldr	r3, [r3]
30000bf0:	e24b2005 	sub	r2, fp, #5
30000bf4:	e3a01000 	mov	r1, #0
30000bf8:	e1a00003 	mov	r0, r3
30000bfc:	eb0010ce 	bl	30004f3c <OSMutexPend>
        Uart_Printf("\n--- System Monitor ---\n");
30000c00:	e59f0058 	ldr	r0, [pc, #88]	@ 30000c60 <Task_Monitor+0xcc>
30000c04:	eb0002e2 	bl	30001794 <Uart_Printf>
        Uart_Printf("CPU Usage: %d%%\n", OSCPUUsage);
30000c08:	e59f3054 	ldr	r3, [pc, #84]	@ 30000c64 <Task_Monitor+0xd0>
30000c0c:	e5d33000 	ldrb	r3, [r3]
30000c10:	e1a01003 	mov	r1, r3
30000c14:	e59f004c 	ldr	r0, [pc, #76]	@ 30000c68 <Task_Monitor+0xd4>
30000c18:	eb0002dd 	bl	30001794 <Uart_Printf>
        Uart_Printf("Mem Free : %d blocks\n", mem_data.OSNFree);
30000c1c:	e51b3010 	ldr	r3, [fp, #-16]
30000c20:	e1a01003 	mov	r1, r3
30000c24:	e59f0040 	ldr	r0, [pc, #64]	@ 30000c6c <Task_Monitor+0xd8>
30000c28:	eb0002d9 	bl	30001794 <Uart_Printf>
        Uart_Printf("Q Msg    : %d waiting\n", q_data.OSNMsgs);
30000c2c:	e15b33b0 	ldrh	r3, [fp, #-48]	@ 0xffffffd0
30000c30:	e1a01003 	mov	r1, r3
30000c34:	e59f0034 	ldr	r0, [pc, #52]	@ 30000c70 <Task_Monitor+0xdc>
30000c38:	eb0002d5 	bl	30001794 <Uart_Printf>
        
        // 演示 OSTaskQuery (查自己)
        // OSTaskQuery(OS_PRIO_SELF, &TCBData);
        // Uart_Printf("My Stack: %p\n", TCBData.OSTCBStkPtr);
        
        OSMutexPost(UartMutex);
30000c3c:	e59f3018 	ldr	r3, [pc, #24]	@ 30000c5c <Task_Monitor+0xc8>
30000c40:	e5933000 	ldr	r3, [r3]
30000c44:	e1a00003 	mov	r0, r3
30000c48:	eb0011a5 	bl	300052e4 <OSMutexPost>
        OSTimeDlyHMSM(0,0,10,0); // 每 10 秒打印一次
30000c4c:	e1a00000 	nop			@ (mov r0, r0)
30000c50:	eaffffd3 	b	30000ba4 <Task_Monitor+0x10>
30000c54:	3000a9fc 	.word	0x3000a9fc
30000c58:	3000a9c8 	.word	0x3000a9c8
30000c5c:	3000a9f4 	.word	0x3000a9f4
30000c60:	30008020 	.word	0x30008020
30000c64:	3000acb5 	.word	0x3000acb5
30000c68:	3000803c 	.word	0x3000803c
30000c6c:	30008050 	.word	0x30008050
30000c70:	30008068 	.word	0x30008068

30000c74 <OSTaskStkInit>:
* - ARM 处理器通常有 16 个可见寄存器 + CPSR。
* - 确保堆栈指针对齐（通常 8 字节对齐以支持 AAPCS）。
*********************************************************************************************************
*/
OS_STK *OSTaskStkInit (void (*task)(void *pdata), void *pdata1, OS_STK *ptos, INT16U opt)
{
30000c74:	e52db004 	push	{fp}		@ (str fp, [sp, #-4]!)
30000c78:	e28db000 	add	fp, sp, #0
30000c7c:	e24dd01c 	sub	sp, sp, #28
30000c80:	e50b0010 	str	r0, [fp, #-16]
30000c84:	e50b1014 	str	r1, [fp, #-20]	@ 0xffffffec
30000c88:	e50b2018 	str	r2, [fp, #-24]	@ 0xffffffe8
30000c8c:	e14b31ba 	strh	r3, [fp, #-26]	@ 0xffffffe6
    OS_STK * stk;

    stk = ptos;                         // Load stack pointer
30000c90:	e51b3018 	ldr	r3, [fp, #-24]	@ 0xffffffe8
30000c94:	e50b3008 	str	r3, [fp, #-8]

    // Registers: PC, LR, R12-R0, CPSR
    *stk = (OS_STK)task;              // PC
30000c98:	e51b2010 	ldr	r2, [fp, #-16]
30000c9c:	e51b3008 	ldr	r3, [fp, #-8]
30000ca0:	e5832000 	str	r2, [r3]
    *(--stk) = (OS_STK)task;          // LR
30000ca4:	e51b3008 	ldr	r3, [fp, #-8]
30000ca8:	e2433004 	sub	r3, r3, #4
30000cac:	e50b3008 	str	r3, [fp, #-8]
30000cb0:	e51b2010 	ldr	r2, [fp, #-16]
30000cb4:	e51b3008 	ldr	r3, [fp, #-8]
30000cb8:	e5832000 	str	r2, [r3]
    *(--stk) = 0;                       // R12
30000cbc:	e51b3008 	ldr	r3, [fp, #-8]
30000cc0:	e2433004 	sub	r3, r3, #4
30000cc4:	e50b3008 	str	r3, [fp, #-8]
30000cc8:	e51b3008 	ldr	r3, [fp, #-8]
30000ccc:	e3a02000 	mov	r2, #0
30000cd0:	e5832000 	str	r2, [r3]
    *(--stk) = 0;                       // R11
30000cd4:	e51b3008 	ldr	r3, [fp, #-8]
30000cd8:	e2433004 	sub	r3, r3, #4
30000cdc:	e50b3008 	str	r3, [fp, #-8]
30000ce0:	e51b3008 	ldr	r3, [fp, #-8]
30000ce4:	e3a02000 	mov	r2, #0
30000ce8:	e5832000 	str	r2, [r3]
    *(--stk) = 0;                       // R10
30000cec:	e51b3008 	ldr	r3, [fp, #-8]
30000cf0:	e2433004 	sub	r3, r3, #4
30000cf4:	e50b3008 	str	r3, [fp, #-8]
30000cf8:	e51b3008 	ldr	r3, [fp, #-8]
30000cfc:	e3a02000 	mov	r2, #0
30000d00:	e5832000 	str	r2, [r3]
    *(--stk) = 0;                       // R9
30000d04:	e51b3008 	ldr	r3, [fp, #-8]
30000d08:	e2433004 	sub	r3, r3, #4
30000d0c:	e50b3008 	str	r3, [fp, #-8]
30000d10:	e51b3008 	ldr	r3, [fp, #-8]
30000d14:	e3a02000 	mov	r2, #0
30000d18:	e5832000 	str	r2, [r3]
    *(--stk) = 0;                       // R8
30000d1c:	e51b3008 	ldr	r3, [fp, #-8]
30000d20:	e2433004 	sub	r3, r3, #4
30000d24:	e50b3008 	str	r3, [fp, #-8]
30000d28:	e51b3008 	ldr	r3, [fp, #-8]
30000d2c:	e3a02000 	mov	r2, #0
30000d30:	e5832000 	str	r2, [r3]
    *(--stk) = 0;                       // R7
30000d34:	e51b3008 	ldr	r3, [fp, #-8]
30000d38:	e2433004 	sub	r3, r3, #4
30000d3c:	e50b3008 	str	r3, [fp, #-8]
30000d40:	e51b3008 	ldr	r3, [fp, #-8]
30000d44:	e3a02000 	mov	r2, #0
30000d48:	e5832000 	str	r2, [r3]
    *(--stk) = 0;                       // R6
30000d4c:	e51b3008 	ldr	r3, [fp, #-8]
30000d50:	e2433004 	sub	r3, r3, #4
30000d54:	e50b3008 	str	r3, [fp, #-8]
30000d58:	e51b3008 	ldr	r3, [fp, #-8]
30000d5c:	e3a02000 	mov	r2, #0
30000d60:	e5832000 	str	r2, [r3]
    *(--stk) = 0;                       // R5
30000d64:	e51b3008 	ldr	r3, [fp, #-8]
30000d68:	e2433004 	sub	r3, r3, #4
30000d6c:	e50b3008 	str	r3, [fp, #-8]
30000d70:	e51b3008 	ldr	r3, [fp, #-8]
30000d74:	e3a02000 	mov	r2, #0
30000d78:	e5832000 	str	r2, [r3]
    *(--stk) = 0;                       // R4
30000d7c:	e51b3008 	ldr	r3, [fp, #-8]
30000d80:	e2433004 	sub	r3, r3, #4
30000d84:	e50b3008 	str	r3, [fp, #-8]
30000d88:	e51b3008 	ldr	r3, [fp, #-8]
30000d8c:	e3a02000 	mov	r2, #0
30000d90:	e5832000 	str	r2, [r3]
    *(--stk) = 0;                       // R3
30000d94:	e51b3008 	ldr	r3, [fp, #-8]
30000d98:	e2433004 	sub	r3, r3, #4
30000d9c:	e50b3008 	str	r3, [fp, #-8]
30000da0:	e51b3008 	ldr	r3, [fp, #-8]
30000da4:	e3a02000 	mov	r2, #0
30000da8:	e5832000 	str	r2, [r3]
    *(--stk) = 0;                       // R2
30000dac:	e51b3008 	ldr	r3, [fp, #-8]
30000db0:	e2433004 	sub	r3, r3, #4
30000db4:	e50b3008 	str	r3, [fp, #-8]
30000db8:	e51b3008 	ldr	r3, [fp, #-8]
30000dbc:	e3a02000 	mov	r2, #0
30000dc0:	e5832000 	str	r2, [r3]
    *(--stk) = 0;                       // R1
30000dc4:	e51b3008 	ldr	r3, [fp, #-8]
30000dc8:	e2433004 	sub	r3, r3, #4
30000dcc:	e50b3008 	str	r3, [fp, #-8]
30000dd0:	e51b3008 	ldr	r3, [fp, #-8]
30000dd4:	e3a02000 	mov	r2, #0
30000dd8:	e5832000 	str	r2, [r3]
    *(--stk) = (OS_STK )pdata1;       // R0
30000ddc:	e51b3008 	ldr	r3, [fp, #-8]
30000de0:	e2433004 	sub	r3, r3, #4
30000de4:	e50b3008 	str	r3, [fp, #-8]
30000de8:	e51b2014 	ldr	r2, [fp, #-20]	@ 0xffffffec
30000dec:	e51b3008 	ldr	r3, [fp, #-8]
30000df0:	e5832000 	str	r2, [r3]
    *(--stk) = (OS_STK)0x00000013;    // CPSR (SVC mode, Enable IRQ/FIQ)
30000df4:	e51b3008 	ldr	r3, [fp, #-8]
30000df8:	e2433004 	sub	r3, r3, #4
30000dfc:	e50b3008 	str	r3, [fp, #-8]
30000e00:	e51b3008 	ldr	r3, [fp, #-8]
30000e04:	e3a02013 	mov	r2, #19
30000e08:	e5832000 	str	r2, [r3]

    return (stk);   
30000e0c:	e51b3008 	ldr	r3, [fp, #-8]
}
30000e10:	e1a00003 	mov	r0, r3
30000e14:	e28bd000 	add	sp, fp, #0
30000e18:	e49db004 	pop	{fp}		@ (ldr fp, [sp], #4)
30000e1c:	e12fff1e 	bx	lr

30000e20 <OSTaskCreateHook>:
*********************************************************************************************************
*/


void  OSTaskCreateHook (OS_TCB *ptcb)
{
30000e20:	e52db004 	push	{fp}		@ (str fp, [sp, #-4]!)
30000e24:	e28db000 	add	fp, sp, #0
30000e28:	e24dd00c 	sub	sp, sp, #12
30000e2c:	e50b0008 	str	r0, [fp, #-8]
    // 在此输入代码
    ptcb = ptcb;
}
30000e30:	e1a00000 	nop			@ (mov r0, r0)
30000e34:	e28bd000 	add	sp, fp, #0
30000e38:	e49db004 	pop	{fp}		@ (ldr fp, [sp], #4)
30000e3c:	e12fff1e 	bx	lr

30000e40 <OSTaskDelHook>:

void  OSTaskDelHook (OS_TCB *ptcb)
{
30000e40:	e92d4800 	push	{fp, lr}
30000e44:	e28db004 	add	fp, sp, #4
30000e48:	e24dd010 	sub	sp, sp, #16
30000e4c:	e50b0010 	str	r0, [fp, #-16]
    // 在此输入代码
    INT8U val;
    val = ptcb->OSTCBPrio;
30000e50:	e51b3010 	ldr	r3, [fp, #-16]
30000e54:	e5d3301e 	ldrb	r3, [r3, #30]
30000e58:	e54b3005 	strb	r3, [fp, #-5]
    Uart_Printf("/n task :",val," has been deleted /n");
30000e5c:	e55b3005 	ldrb	r3, [fp, #-5]
30000e60:	e59f2018 	ldr	r2, [pc, #24]	@ 30000e80 <OSTaskDelHook+0x40>
30000e64:	e1a01003 	mov	r1, r3
30000e68:	e59f0014 	ldr	r0, [pc, #20]	@ 30000e84 <OSTaskDelHook+0x44>
30000e6c:	eb000248 	bl	30001794 <Uart_Printf>
}
30000e70:	e1a00000 	nop			@ (mov r0, r0)
30000e74:	e24bd004 	sub	sp, fp, #4
30000e78:	e8bd4800 	pop	{fp, lr}
30000e7c:	e12fff1e 	bx	lr
30000e80:	30008080 	.word	0x30008080
30000e84:	30008098 	.word	0x30008098

30000e88 <OSTaskSwHook>:

void  OSTaskSwHook (void)
{
30000e88:	e52db004 	push	{fp}		@ (str fp, [sp, #-4]!)
30000e8c:	e28db000 	add	fp, sp, #0
    // 在此输入代码
}
30000e90:	e1a00000 	nop			@ (mov r0, r0)
30000e94:	e28bd000 	add	sp, fp, #0
30000e98:	e49db004 	pop	{fp}		@ (ldr fp, [sp], #4)
30000e9c:	e12fff1e 	bx	lr

30000ea0 <OSTaskStatHook>:

void  OSTaskStatHook (void)
{
30000ea0:	e52db004 	push	{fp}		@ (str fp, [sp, #-4]!)
30000ea4:	e28db000 	add	fp, sp, #0
    // 在此输入代码
}
30000ea8:	e1a00000 	nop			@ (mov r0, r0)
30000eac:	e28bd000 	add	sp, fp, #0
30000eb0:	e49db004 	pop	{fp}		@ (ldr fp, [sp], #4)
30000eb4:	e12fff1e 	bx	lr

30000eb8 <OSTimeTickHook>:

void  OSTimeTickHook (void)
{
30000eb8:	e52db004 	push	{fp}		@ (str fp, [sp, #-4]!)
30000ebc:	e28db000 	add	fp, sp, #0
    // 在此输入代码
}
30000ec0:	e1a00000 	nop			@ (mov r0, r0)
30000ec4:	e28bd000 	add	sp, fp, #0
30000ec8:	e49db004 	pop	{fp}		@ (ldr fp, [sp], #4)
30000ecc:	e12fff1e 	bx	lr

30000ed0 <OSInitHookBegin>:



void  OSInitHookBegin (void)
{
30000ed0:	e52db004 	push	{fp}		@ (str fp, [sp, #-4]!)
30000ed4:	e28db000 	add	fp, sp, #0
    // 在此输入代码
}
30000ed8:	e1a00000 	nop			@ (mov r0, r0)
30000edc:	e28bd000 	add	sp, fp, #0
30000ee0:	e49db004 	pop	{fp}		@ (ldr fp, [sp], #4)
30000ee4:	e12fff1e 	bx	lr

30000ee8 <OSInitHookEnd>:

void  OSInitHookEnd (void)
{
30000ee8:	e52db004 	push	{fp}		@ (str fp, [sp, #-4]!)
30000eec:	e28db000 	add	fp, sp, #0
    // 在此输入代码
}
30000ef0:	e1a00000 	nop			@ (mov r0, r0)
30000ef4:	e28bd000 	add	sp, fp, #0
30000ef8:	e49db004 	pop	{fp}		@ (ldr fp, [sp], #4)
30000efc:	e12fff1e 	bx	lr

30000f00 <OSTCBInitHook>:

void  OSTCBInitHook (OS_TCB *ptcb)
{
30000f00:	e52db004 	push	{fp}		@ (str fp, [sp, #-4]!)
30000f04:	e28db000 	add	fp, sp, #0
30000f08:	e24dd00c 	sub	sp, sp, #12
30000f0c:	e50b0008 	str	r0, [fp, #-8]
    // 在此输入代码
    ptcb = ptcb;
}
30000f10:	e1a00000 	nop			@ (mov r0, r0)
30000f14:	e28bd000 	add	sp, fp, #0
30000f18:	e49db004 	pop	{fp}		@ (ldr fp, [sp], #4)
30000f1c:	e12fff1e 	bx	lr

30000f20 <OSTaskIdleHook>:

void  OSTaskIdleHook (void)
{
30000f20:	e52db004 	push	{fp}		@ (str fp, [sp, #-4]!)
30000f24:	e28db000 	add	fp, sp, #0
    // Called when idle task runs
}
30000f28:	e1a00000 	nop			@ (mov r0, r0)
30000f2c:	e28bd000 	add	sp, fp, #0
30000f30:	e49db004 	pop	{fp}		@ (ldr fp, [sp], #4)
30000f34:	e12fff1e 	bx	lr

30000f38 <Beep_Ctrl>:
#include "os_uart.h"
#include "os_timer.h"

// 1.蜂鸣器控制：1响，0停
void Beep_Ctrl(int on)
{
30000f38:	e52db004 	push	{fp}		@ (str fp, [sp, #-4]!)
30000f3c:	e28db000 	add	fp, sp, #0
30000f40:	e24dd00c 	sub	sp, sp, #12
30000f44:	e50b0008 	str	r0, [fp, #-8]
    if (on) {rGPBDAT |=  (1<<0); }
30000f48:	e51b3008 	ldr	r3, [fp, #-8]
30000f4c:	e3530000 	cmp	r3, #0
30000f50:	0a000005 	beq	30000f6c <Beep_Ctrl+0x34>
30000f54:	e59f3034 	ldr	r3, [pc, #52]	@ 30000f90 <Beep_Ctrl+0x58>
30000f58:	e5933000 	ldr	r3, [r3]
30000f5c:	e59f202c 	ldr	r2, [pc, #44]	@ 30000f90 <Beep_Ctrl+0x58>
30000f60:	e3833001 	orr	r3, r3, #1
30000f64:	e5823000 	str	r3, [r2]
    else    {rGPBDAT &= ~(1<<0);}
}
30000f68:	ea000004 	b	30000f80 <Beep_Ctrl+0x48>
    else    {rGPBDAT &= ~(1<<0);}
30000f6c:	e59f301c 	ldr	r3, [pc, #28]	@ 30000f90 <Beep_Ctrl+0x58>
30000f70:	e5933000 	ldr	r3, [r3]
30000f74:	e59f2014 	ldr	r2, [pc, #20]	@ 30000f90 <Beep_Ctrl+0x58>
30000f78:	e3c33001 	bic	r3, r3, #1
30000f7c:	e5823000 	str	r3, [r2]
}
30000f80:	e1a00000 	nop			@ (mov r0, r0)
30000f84:	e28bd000 	add	sp, fp, #0
30000f88:	e49db004 	pop	{fp}		@ (ldr fp, [sp], #4)
30000f8c:	e12fff1e 	bx	lr
30000f90:	56000014 	.word	0x56000014

30000f94 <Beep_Init>:

void Beep_Init(void){
30000f94:	e92d4800 	push	{fp, lr}
30000f98:	e28db004 	add	fp, sp, #4
    rGPBCON &= ~(3<<0);
30000f9c:	e59f3038 	ldr	r3, [pc, #56]	@ 30000fdc <Beep_Init+0x48>
30000fa0:	e5933000 	ldr	r3, [r3]
30000fa4:	e59f2030 	ldr	r2, [pc, #48]	@ 30000fdc <Beep_Init+0x48>
30000fa8:	e3c33003 	bic	r3, r3, #3
30000fac:	e5823000 	str	r3, [r2]
    rGPBCON |=  (1<<0);
30000fb0:	e59f3024 	ldr	r3, [pc, #36]	@ 30000fdc <Beep_Init+0x48>
30000fb4:	e5933000 	ldr	r3, [r3]
30000fb8:	e59f201c 	ldr	r2, [pc, #28]	@ 30000fdc <Beep_Init+0x48>
30000fbc:	e3833001 	orr	r3, r3, #1
30000fc0:	e5823000 	str	r3, [r2]
    Beep_Ctrl(0);
30000fc4:	e3a00000 	mov	r0, #0
30000fc8:	ebffffda 	bl	30000f38 <Beep_Ctrl>
}
30000fcc:	e1a00000 	nop			@ (mov r0, r0)
30000fd0:	e24bd004 	sub	sp, fp, #4
30000fd4:	e8bd4800 	pop	{fp, lr}
30000fd8:	e12fff1e 	bx	lr
30000fdc:	56000010 	.word	0x56000010

30000fe0 <LED_Set>:
// 2.LED 控制：mask 的 bit0-3 对应 LED1-4，低电平点亮
void LED_Set(int mask)
{
30000fe0:	e52db004 	push	{fp}		@ (str fp, [sp, #-4]!)
30000fe4:	e28db000 	add	fp, sp, #0
30000fe8:	e24dd014 	sub	sp, sp, #20
30000fec:	e50b0010 	str	r0, [fp, #-16]
    INT32U val = rGPBDAT;
30000ff0:	e59f309c 	ldr	r3, [pc, #156]	@ 30001094 <LED_Set+0xb4>
30000ff4:	e5933000 	ldr	r3, [r3]
30000ff8:	e50b3008 	str	r3, [fp, #-8]
    val |= (0xF << 5); // 先全部关
30000ffc:	e51b3008 	ldr	r3, [fp, #-8]
30001000:	e3833e1e 	orr	r3, r3, #480	@ 0x1e0
30001004:	e50b3008 	str	r3, [fp, #-8]
    
    // 如果 bit0 是 1 (亮)，则 GPB5 置 0
    if (mask & 1) {val &= ~(1<<5);}
30001008:	e51b3010 	ldr	r3, [fp, #-16]
3000100c:	e2033001 	and	r3, r3, #1
30001010:	e3530000 	cmp	r3, #0
30001014:	0a000002 	beq	30001024 <LED_Set+0x44>
30001018:	e51b3008 	ldr	r3, [fp, #-8]
3000101c:	e3c33020 	bic	r3, r3, #32
30001020:	e50b3008 	str	r3, [fp, #-8]
    if (mask & 2) {val &= ~(1<<6);}
30001024:	e51b3010 	ldr	r3, [fp, #-16]
30001028:	e2033002 	and	r3, r3, #2
3000102c:	e3530000 	cmp	r3, #0
30001030:	0a000002 	beq	30001040 <LED_Set+0x60>
30001034:	e51b3008 	ldr	r3, [fp, #-8]
30001038:	e3c33040 	bic	r3, r3, #64	@ 0x40
3000103c:	e50b3008 	str	r3, [fp, #-8]
    if (mask & 4) {val &= ~(1<<7);}
30001040:	e51b3010 	ldr	r3, [fp, #-16]
30001044:	e2033004 	and	r3, r3, #4
30001048:	e3530000 	cmp	r3, #0
3000104c:	0a000002 	beq	3000105c <LED_Set+0x7c>
30001050:	e51b3008 	ldr	r3, [fp, #-8]
30001054:	e3c33080 	bic	r3, r3, #128	@ 0x80
30001058:	e50b3008 	str	r3, [fp, #-8]
    if (mask & 8) {val &= ~(1<<8);}
3000105c:	e51b3010 	ldr	r3, [fp, #-16]
30001060:	e2033008 	and	r3, r3, #8
30001064:	e3530000 	cmp	r3, #0
30001068:	0a000002 	beq	30001078 <LED_Set+0x98>
3000106c:	e51b3008 	ldr	r3, [fp, #-8]
30001070:	e3c33c01 	bic	r3, r3, #256	@ 0x100
30001074:	e50b3008 	str	r3, [fp, #-8]
    
    rGPBDAT = val;
30001078:	e59f2014 	ldr	r2, [pc, #20]	@ 30001094 <LED_Set+0xb4>
3000107c:	e51b3008 	ldr	r3, [fp, #-8]
30001080:	e5823000 	str	r3, [r2]
}
30001084:	e1a00000 	nop			@ (mov r0, r0)
30001088:	e28bd000 	add	sp, fp, #0
3000108c:	e49db004 	pop	{fp}		@ (ldr fp, [sp], #4)
30001090:	e12fff1e 	bx	lr
30001094:	56000014 	.word	0x56000014

30001098 <LED_Init>:

void LED_Init(void){
30001098:	e92d4800 	push	{fp, lr}
3000109c:	e28db004 	add	fp, sp, #4
    rGPBCON &= ~((3<<10)|(3<<12)|(3<<14)|(3<<16));
300010a0:	e59f3038 	ldr	r3, [pc, #56]	@ 300010e0 <LED_Init+0x48>
300010a4:	e5933000 	ldr	r3, [r3]
300010a8:	e59f2030 	ldr	r2, [pc, #48]	@ 300010e0 <LED_Init+0x48>
300010ac:	e3c33bff 	bic	r3, r3, #261120	@ 0x3fc00
300010b0:	e5823000 	str	r3, [r2]
    rGPBCON |=  ((1<<10)|(1<<12)|(1<<14)|(1<<16));
300010b4:	e59f3024 	ldr	r3, [pc, #36]	@ 300010e0 <LED_Init+0x48>
300010b8:	e5933000 	ldr	r3, [r3]
300010bc:	e59f201c 	ldr	r2, [pc, #28]	@ 300010e0 <LED_Init+0x48>
300010c0:	e3833b55 	orr	r3, r3, #87040	@ 0x15400
300010c4:	e5823000 	str	r3, [r2]
    LED_Set(0);
300010c8:	e3a00000 	mov	r0, #0
300010cc:	ebffffc3 	bl	30000fe0 <LED_Set>
}
300010d0:	e1a00000 	nop			@ (mov r0, r0)
300010d4:	e24bd004 	sub	sp, fp, #4
300010d8:	e8bd4800 	pop	{fp, lr}
300010dc:	e12fff1e 	bx	lr
300010e0:	56000010 	.word	0x56000010

300010e4 <Key_Scan>:

// 3.按键扫描
int Key_Scan(void)
{
300010e4:	e52db004 	push	{fp}		@ (str fp, [sp, #-4]!)
300010e8:	e28db000 	add	fp, sp, #0
300010ec:	e24dd00c 	sub	sp, sp, #12
    INT32U val = rGPGDAT;
300010f0:	e59f30a8 	ldr	r3, [pc, #168]	@ 300011a0 <Key_Scan+0xbc>
300010f4:	e5933000 	ldr	r3, [r3]
300010f8:	e50b3008 	str	r3, [fp, #-8]
    if (!(val & (1<<0)))  {return 1;}
300010fc:	e51b3008 	ldr	r3, [fp, #-8]
30001100:	e2033001 	and	r3, r3, #1
30001104:	e3530000 	cmp	r3, #0
30001108:	1a000001 	bne	30001114 <Key_Scan+0x30>
3000110c:	e3a03001 	mov	r3, #1
30001110:	ea00001e 	b	30001190 <Key_Scan+0xac>
    if (!(val & (1<<3)))  {return 2;}
30001114:	e51b3008 	ldr	r3, [fp, #-8]
30001118:	e2033008 	and	r3, r3, #8
3000111c:	e3530000 	cmp	r3, #0
30001120:	1a000001 	bne	3000112c <Key_Scan+0x48>
30001124:	e3a03002 	mov	r3, #2
30001128:	ea000018 	b	30001190 <Key_Scan+0xac>
    if (!(val & (1<<5)))  {return 3;}
3000112c:	e51b3008 	ldr	r3, [fp, #-8]
30001130:	e2033020 	and	r3, r3, #32
30001134:	e3530000 	cmp	r3, #0
30001138:	1a000001 	bne	30001144 <Key_Scan+0x60>
3000113c:	e3a03003 	mov	r3, #3
30001140:	ea000012 	b	30001190 <Key_Scan+0xac>
    if (!(val & (1<<6)))  {return 4;}
30001144:	e51b3008 	ldr	r3, [fp, #-8]
30001148:	e2033040 	and	r3, r3, #64	@ 0x40
3000114c:	e3530000 	cmp	r3, #0
30001150:	1a000001 	bne	3000115c <Key_Scan+0x78>
30001154:	e3a03004 	mov	r3, #4
30001158:	ea00000c 	b	30001190 <Key_Scan+0xac>
    if (!(val & (1<<7)))  {return 5;}
3000115c:	e51b3008 	ldr	r3, [fp, #-8]
30001160:	e2033080 	and	r3, r3, #128	@ 0x80
30001164:	e3530000 	cmp	r3, #0
30001168:	1a000001 	bne	30001174 <Key_Scan+0x90>
3000116c:	e3a03005 	mov	r3, #5
30001170:	ea000006 	b	30001190 <Key_Scan+0xac>
    if (!(val & (1<<11))) {return 6;}
30001174:	e51b3008 	ldr	r3, [fp, #-8]
30001178:	e2033b02 	and	r3, r3, #2048	@ 0x800
3000117c:	e3530000 	cmp	r3, #0
30001180:	1a000001 	bne	3000118c <Key_Scan+0xa8>
30001184:	e3a03006 	mov	r3, #6
30001188:	ea000000 	b	30001190 <Key_Scan+0xac>
    return 0;
3000118c:	e3a03000 	mov	r3, #0
}
30001190:	e1a00003 	mov	r0, r3
30001194:	e28bd000 	add	sp, fp, #0
30001198:	e49db004 	pop	{fp}		@ (ldr fp, [sp], #4)
3000119c:	e12fff1e 	bx	lr
300011a0:	56000064 	.word	0x56000064

300011a4 <Key_Init>:

void Key_Init(void){
300011a4:	e52db004 	push	{fp}		@ (str fp, [sp, #-4]!)
300011a8:	e28db000 	add	fp, sp, #0
    rGPGCON &= ~((3<<0)|(3<<6)|(3<<10)|(3<<12)|(3<<14)|(3<<22));
300011ac:	e59f3020 	ldr	r3, [pc, #32]	@ 300011d4 <Key_Init+0x30>
300011b0:	e5932000 	ldr	r2, [r3]
300011b4:	e59f1018 	ldr	r1, [pc, #24]	@ 300011d4 <Key_Init+0x30>
300011b8:	e59f3018 	ldr	r3, [pc, #24]	@ 300011d8 <Key_Init+0x34>
300011bc:	e0033002 	and	r3, r3, r2
300011c0:	e5813000 	str	r3, [r1]
}
300011c4:	e1a00000 	nop			@ (mov r0, r0)
300011c8:	e28bd000 	add	sp, fp, #0
300011cc:	e49db004 	pop	{fp}		@ (ldr fp, [sp], #4)
300011d0:	e12fff1e 	bx	lr
300011d4:	56000060 	.word	0x56000060
300011d8:	ff3f033c 	.word	0xff3f033c

300011dc <BSP_Init>:

void BSP_Init(void)
{
300011dc:	e92d4800 	push	{fp, lr}
300011e0:	e28db004 	add	fp, sp, #4
    Uart_Init(50000000,115200);// PCLK=50000000, Baud=115200
300011e4:	e59f1024 	ldr	r1, [pc, #36]	@ 30001210 <BSP_Init+0x34>
300011e8:	e59f0024 	ldr	r0, [pc, #36]	@ 30001214 <BSP_Init+0x38>
300011ec:	eb00004e 	bl	3000132c <Uart_Init>
    Beep_Init();
300011f0:	ebffff67 	bl	30000f94 <Beep_Init>
    LED_Init();
300011f4:	ebffffa7 	bl	30001098 <LED_Init>
    Key_Init(); 
300011f8:	ebffffe9 	bl	300011a4 <Key_Init>
    InitTimer4();
300011fc:	eb000005 	bl	30001218 <InitTimer4>
}
30001200:	e1a00000 	nop			@ (mov r0, r0)
30001204:	e24bd004 	sub	sp, fp, #4
30001208:	e8bd4800 	pop	{fp, lr}
3000120c:	e12fff1e 	bx	lr
30001210:	0001c200 	.word	0x0001c200
30001214:	02faf080 	.word	0x02faf080

30001218 <InitTimer4>:
* Timer Input Clock = 50MHz / (249 + 1) / 4 = 50kHz
* TCNTB4 = 50000 / 100 = 500
*********************************************************************************************************
*/
void InitTimer4(void)
{
30001218:	e52db004 	push	{fp}		@ (str fp, [sp, #-4]!)
3000121c:	e28db000 	add	fp, sp, #0
    // 1. 设置 Timer 4 的中断向量
    // 将汇编写好的 OSTickISR 地址填入中断向量表，这样硬件产生中断时就知道跳去哪里
    pISR_TIMER4 = (INT32U)OSTickISR;
30001220:	e59f30e8 	ldr	r3, [pc, #232]	@ 30001310 <InitTimer4+0xf8>
30001224:	e59f20e8 	ldr	r2, [pc, #232]	@ 30001314 <InitTimer4+0xfc>
30001228:	e5832000 	str	r2, [r3]

    // 2. 清除可能存在的旧中断标志 (防止一开中断就误触发)
    rSRCPND |= (1 << 14); // 写 1 清除 Timer4 标志
3000122c:	e3a0344a 	mov	r3, #1241513984	@ 0x4a000000
30001230:	e5933000 	ldr	r3, [r3]
30001234:	e3a0244a 	mov	r2, #1241513984	@ 0x4a000000
30001238:	e3833901 	orr	r3, r3, #16384	@ 0x4000
3000123c:	e5823000 	str	r3, [r2]
    rINTPND |= (1 << 14); 
30001240:	e59f30d0 	ldr	r3, [pc, #208]	@ 30001318 <InitTimer4+0x100>
30001244:	e5933000 	ldr	r3, [r3]
30001248:	e59f20c8 	ldr	r2, [pc, #200]	@ 30001318 <InitTimer4+0x100>
3000124c:	e3833901 	orr	r3, r3, #16384	@ 0x4000
30001250:	e5823000 	str	r3, [r2]

    // 3. 配置预分频器 (Prescaler 1 for Timer 2,3,4)
    // rTCFG0 [15:8] = 249
    rTCFG0 &= ~(0xFF << 8);
30001254:	e3a03451 	mov	r3, #1358954496	@ 0x51000000
30001258:	e5933000 	ldr	r3, [r3]
3000125c:	e3a02451 	mov	r2, #1358954496	@ 0x51000000
30001260:	e3c33cff 	bic	r3, r3, #65280	@ 0xff00
30001264:	e5823000 	str	r3, [r2]
    rTCFG0 |=  (249 << 8);
30001268:	e3a03451 	mov	r3, #1358954496	@ 0x51000000
3000126c:	e5933000 	ldr	r3, [r3]
30001270:	e3a02451 	mov	r2, #1358954496	@ 0x51000000
30001274:	e3833cf9 	orr	r3, r3, #63744	@ 0xf900
30001278:	e5823000 	str	r3, [r2]

    // 4. 配置分频器 (Divider MUX for Timer 4)
    // rTCFG1 [19:16] = 0001 (1/4)
    rTCFG1 &= ~(0x0F << 16);
3000127c:	e59f3098 	ldr	r3, [pc, #152]	@ 3000131c <InitTimer4+0x104>
30001280:	e5933000 	ldr	r3, [r3]
30001284:	e59f2090 	ldr	r2, [pc, #144]	@ 3000131c <InitTimer4+0x104>
30001288:	e3c3380f 	bic	r3, r3, #983040	@ 0xf0000
3000128c:	e5823000 	str	r3, [r2]
    rTCFG1 |=  (1 << 16);
30001290:	e59f3084 	ldr	r3, [pc, #132]	@ 3000131c <InitTimer4+0x104>
30001294:	e5933000 	ldr	r3, [r3]
30001298:	e59f207c 	ldr	r2, [pc, #124]	@ 3000131c <InitTimer4+0x104>
3000129c:	e3833801 	orr	r3, r3, #65536	@ 0x10000
300012a0:	e5823000 	str	r3, [r2]

    // 5. 设置计数初值 (TCNTB4)
    // 频率 50kHz, 周期 10ms (100Hz) => 500
    rTCNTB4 = (50000000 / 250 / 4) / OS_TICKS_PER_SEC;
300012a4:	e59f3074 	ldr	r3, [pc, #116]	@ 30001320 <InitTimer4+0x108>
300012a8:	e3a02ffa 	mov	r2, #1000	@ 0x3e8
300012ac:	e5832000 	str	r2, [r3]

    // 6. 加载初值 (Manual Update)
    // TCON Bit 21: Timer 4 Manual Update
    rTCON |=  (1 << 21);
300012b0:	e59f306c 	ldr	r3, [pc, #108]	@ 30001324 <InitTimer4+0x10c>
300012b4:	e5933000 	ldr	r3, [r3]
300012b8:	e59f2064 	ldr	r2, [pc, #100]	@ 30001324 <InitTimer4+0x10c>
300012bc:	e3833602 	orr	r3, r3, #2097152	@ 0x200000
300012c0:	e5823000 	str	r3, [r2]
    
    // 7. 清除手动更新位 (必须做，否则 Timer 不会开始计数)
    rTCON &= ~(1 << 21);
300012c4:	e59f3058 	ldr	r3, [pc, #88]	@ 30001324 <InitTimer4+0x10c>
300012c8:	e5933000 	ldr	r3, [r3]
300012cc:	e59f2050 	ldr	r2, [pc, #80]	@ 30001324 <InitTimer4+0x10c>
300012d0:	e3c33602 	bic	r3, r3, #2097152	@ 0x200000
300012d4:	e5823000 	str	r3, [r2]

    // 8. 启动定时器 & 开启自动重装载 (Start + Auto Reload)
    // TCON Bit 20: Start, Bit 22: Auto Reload
    rTCON |=  (1 << 20) | (1 << 22);
300012d8:	e59f3044 	ldr	r3, [pc, #68]	@ 30001324 <InitTimer4+0x10c>
300012dc:	e5933000 	ldr	r3, [r3]
300012e0:	e59f203c 	ldr	r2, [pc, #60]	@ 30001324 <InitTimer4+0x10c>
300012e4:	e3833605 	orr	r3, r3, #5242880	@ 0x500000
300012e8:	e5823000 	str	r3, [r2]

    // 9. 解除中断屏蔽 (Unmask Timer 4 Interrupt)
    // INTMSK Bit 14: Timer 4
    rINTMSK &= ~(1 << 14);
300012ec:	e59f3034 	ldr	r3, [pc, #52]	@ 30001328 <InitTimer4+0x110>
300012f0:	e5933000 	ldr	r3, [r3]
300012f4:	e59f202c 	ldr	r2, [pc, #44]	@ 30001328 <InitTimer4+0x110>
300012f8:	e3c33901 	bic	r3, r3, #16384	@ 0x4000
300012fc:	e5823000 	str	r3, [r2]
}
30001300:	e1a00000 	nop			@ (mov r0, r0)
30001304:	e28bd000 	add	sp, fp, #0
30001308:	e49db004 	pop	{fp}		@ (ldr fp, [sp], #4)
3000130c:	e12fff1e 	bx	lr
30001310:	33ffff58 	.word	0x33ffff58
30001314:	30000474 	.word	0x30000474
30001318:	4a000010 	.word	0x4a000010
3000131c:	51000004 	.word	0x51000004
30001320:	5100003c 	.word	0x5100003c
30001324:	51000008 	.word	0x51000008
30001328:	4a000008 	.word	0x4a000008

3000132c <Uart_Init>:
#include "includes.h"

// 初始化 UART0
void Uart_Init(int pclk, int baud)
{
3000132c:	e92d4800 	push	{fp, lr}
30001330:	e28db004 	add	fp, sp, #4
30001334:	e24dd010 	sub	sp, sp, #16
30001338:	e50b0010 	str	r0, [fp, #-16]
3000133c:	e50b1014 	str	r1, [fp, #-20]	@ 0xffffffec
    int i;
    // 1. 配置 GPIO (GPH2=TXD0, GPH3=RXD0)
    rGPHCON &= ~((3<<4) | (3<<6));
30001340:	e59f30c0 	ldr	r3, [pc, #192]	@ 30001408 <Uart_Init+0xdc>
30001344:	e5933000 	ldr	r3, [r3]
30001348:	e59f20b8 	ldr	r2, [pc, #184]	@ 30001408 <Uart_Init+0xdc>
3000134c:	e3c330f0 	bic	r3, r3, #240	@ 0xf0
30001350:	e5823000 	str	r3, [r2]
    rGPHCON |=  ((2<<4) | (2<<6));
30001354:	e59f30ac 	ldr	r3, [pc, #172]	@ 30001408 <Uart_Init+0xdc>
30001358:	e5933000 	ldr	r3, [r3]
3000135c:	e59f20a4 	ldr	r2, [pc, #164]	@ 30001408 <Uart_Init+0xdc>
30001360:	e38330a0 	orr	r3, r3, #160	@ 0xa0
30001364:	e5823000 	str	r3, [r2]
    rGPHUP  &= ~((1<<2) | (1<<3));  // 使能上拉
30001368:	e59f309c 	ldr	r3, [pc, #156]	@ 3000140c <Uart_Init+0xe0>
3000136c:	e5933000 	ldr	r3, [r3]
30001370:	e59f2094 	ldr	r2, [pc, #148]	@ 3000140c <Uart_Init+0xe0>
30001374:	e3c3300c 	bic	r3, r3, #12
30001378:	e5823000 	str	r3, [r2]

    // 2. 配置 UART 控制寄存器
    rULCON0 = 0x3;  // 8N1: 8数据位, 无校验, 1停止位
3000137c:	e3a03205 	mov	r3, #1342177280	@ 0x50000000
30001380:	e3a02003 	mov	r2, #3
30001384:	e5832000 	str	r2, [r3]
    rUCON0  = 0x5;  // 查询模式 
30001388:	e3a03245 	mov	r3, #1342177284	@ 0x50000004
3000138c:	e3a02005 	mov	r2, #5
30001390:	e5832000 	str	r2, [r3]
    rUFCON0 = 0x0;  // 禁用 FIFO
30001394:	e3a03285 	mov	r3, #1342177288	@ 0x50000008
30001398:	e3a02000 	mov	r2, #0
3000139c:	e5832000 	str	r2, [r3]
    rUMCON0 = 0x0;  // 禁用流控
300013a0:	e3a032c5 	mov	r3, #1342177292	@ 0x5000000c
300013a4:	e3a02000 	mov	r2, #0
300013a8:	e5832000 	str	r2, [r3]

    // 3. 设置波特率 115200
    rUBRDIV0 = (int)(pclk / (baud * 16)) - 1;
300013ac:	e51b3014 	ldr	r3, [fp, #-20]	@ 0xffffffec
300013b0:	e1a03203 	lsl	r3, r3, #4
300013b4:	e1a01003 	mov	r1, r3
300013b8:	e51b0010 	ldr	r0, [fp, #-16]
300013bc:	eb001a83 	bl	30007dd0 <__divsi3>
300013c0:	e1a03000 	mov	r3, r0
300013c4:	e2432001 	sub	r2, r3, #1
300013c8:	e59f3040 	ldr	r3, [pc, #64]	@ 30001410 <Uart_Init+0xe4>
300013cc:	e5832000 	str	r2, [r3]

    // 等待设置稳定
    for(i=0; i<100; i++);
300013d0:	e3a03000 	mov	r3, #0
300013d4:	e50b3008 	str	r3, [fp, #-8]
300013d8:	ea000002 	b	300013e8 <Uart_Init+0xbc>
300013dc:	e51b3008 	ldr	r3, [fp, #-8]
300013e0:	e2833001 	add	r3, r3, #1
300013e4:	e50b3008 	str	r3, [fp, #-8]
300013e8:	e51b3008 	ldr	r3, [fp, #-8]
300013ec:	e3530063 	cmp	r3, #99	@ 0x63
300013f0:	dafffff9 	ble	300013dc <Uart_Init+0xb0>
}
300013f4:	e1a00000 	nop			@ (mov r0, r0)
300013f8:	e1a00000 	nop			@ (mov r0, r0)
300013fc:	e24bd004 	sub	sp, fp, #4
30001400:	e8bd4800 	pop	{fp, lr}
30001404:	e12fff1e 	bx	lr
30001408:	56000070 	.word	0x56000070
3000140c:	56000078 	.word	0x56000078
30001410:	50000028 	.word	0x50000028

30001414 <Uart_SendByte>:

// 发送一个字符
void Uart_SendByte(char c)
{
30001414:	e52db004 	push	{fp}		@ (str fp, [sp, #-4]!)
30001418:	e28db000 	add	fp, sp, #0
3000141c:	e24dd00c 	sub	sp, sp, #12
30001420:	e1a03000 	mov	r3, r0
30001424:	e54b3005 	strb	r3, [fp, #-5]
    if(c == '\n')
30001428:	e55b3005 	ldrb	r3, [fp, #-5]
3000142c:	e353000a 	cmp	r3, #10
30001430:	1a000008 	bne	30001458 <Uart_SendByte+0x44>
    {
        while(!(rUTRSTAT0 & 0x2)); // 等待发送缓冲区为空
30001434:	e1a00000 	nop			@ (mov r0, r0)
30001438:	e59f304c 	ldr	r3, [pc, #76]	@ 3000148c <Uart_SendByte+0x78>
3000143c:	e5933000 	ldr	r3, [r3]
30001440:	e2033002 	and	r3, r3, #2
30001444:	e3530000 	cmp	r3, #0
30001448:	0afffffa 	beq	30001438 <Uart_SendByte+0x24>
        rUTXH0 = '\r';             // 发送回车
3000144c:	e59f303c 	ldr	r3, [pc, #60]	@ 30001490 <Uart_SendByte+0x7c>
30001450:	e3a0200d 	mov	r2, #13
30001454:	e5832000 	str	r2, [r3]
    }
    while(!(rUTRSTAT0 & 0x2));     // 等待发送缓冲区为空
30001458:	e1a00000 	nop			@ (mov r0, r0)
3000145c:	e59f3028 	ldr	r3, [pc, #40]	@ 3000148c <Uart_SendByte+0x78>
30001460:	e5933000 	ldr	r3, [r3]
30001464:	e2033002 	and	r3, r3, #2
30001468:	e3530000 	cmp	r3, #0
3000146c:	0afffffa 	beq	3000145c <Uart_SendByte+0x48>
    rUTXH0 = c;                    // 发送字符
30001470:	e59f2018 	ldr	r2, [pc, #24]	@ 30001490 <Uart_SendByte+0x7c>
30001474:	e55b3005 	ldrb	r3, [fp, #-5]
30001478:	e5823000 	str	r3, [r2]
}
3000147c:	e1a00000 	nop			@ (mov r0, r0)
30001480:	e28bd000 	add	sp, fp, #0
30001484:	e49db004 	pop	{fp}		@ (ldr fp, [sp], #4)
30001488:	e12fff1e 	bx	lr
3000148c:	50000010 	.word	0x50000010
30001490:	50000020 	.word	0x50000020

30001494 <int_to_str>:

// 简单的整数转字符串
static void int_to_str(int num, char *str, int pad_width)
{
30001494:	e52db004 	push	{fp}		@ (str fp, [sp, #-4]!)
30001498:	e28db000 	add	fp, sp, #0
3000149c:	e24dd034 	sub	sp, sp, #52	@ 0x34
300014a0:	e50b0028 	str	r0, [fp, #-40]	@ 0xffffffd8
300014a4:	e50b102c 	str	r1, [fp, #-44]	@ 0xffffffd4
300014a8:	e50b2030 	str	r2, [fp, #-48]	@ 0xffffffd0
    char buf[16];
    int i = 0, is_neg = 0;
300014ac:	e3a03000 	mov	r3, #0
300014b0:	e50b3008 	str	r3, [fp, #-8]
300014b4:	e3a03000 	mov	r3, #0
300014b8:	e50b300c 	str	r3, [fp, #-12]
    
    if (num < 0) {
300014bc:	e51b3028 	ldr	r3, [fp, #-40]	@ 0xffffffd8
300014c0:	e3530000 	cmp	r3, #0
300014c4:	aa000004 	bge	300014dc <int_to_str+0x48>
        is_neg = 1;
300014c8:	e3a03001 	mov	r3, #1
300014cc:	e50b300c 	str	r3, [fp, #-12]
        num = -num;
300014d0:	e51b3028 	ldr	r3, [fp, #-40]	@ 0xffffffd8
300014d4:	e2633000 	rsb	r3, r3, #0
300014d8:	e50b3028 	str	r3, [fp, #-40]	@ 0xffffffd8
    }
    
    if (num == 0) {
300014dc:	e51b3028 	ldr	r3, [fp, #-40]	@ 0xffffffd8
300014e0:	e3530000 	cmp	r3, #0
300014e4:	1a000022 	bne	30001574 <int_to_str+0xe0>
        buf[i++] = '0';
300014e8:	e51b3008 	ldr	r3, [fp, #-8]
300014ec:	e2832001 	add	r2, r3, #1
300014f0:	e50b2008 	str	r2, [fp, #-8]
300014f4:	e2433004 	sub	r3, r3, #4
300014f8:	e083300b 	add	r3, r3, fp
300014fc:	e3a02030 	mov	r2, #48	@ 0x30
30001500:	e5432020 	strb	r2, [r3, #-32]	@ 0xffffffe0
30001504:	ea00001d 	b	30001580 <int_to_str+0xec>
    } 
    else {
        while (num > 0) {
            buf[i++] = '0' + (num % 10);
30001508:	e51b1028 	ldr	r1, [fp, #-40]	@ 0xffffffd8
3000150c:	e59f3170 	ldr	r3, [pc, #368]	@ 30001684 <int_to_str+0x1f0>
30001510:	e0c32391 	smull	r2, r3, r1, r3
30001514:	e1a02143 	asr	r2, r3, #2
30001518:	e1a03fc1 	asr	r3, r1, #31
3000151c:	e0422003 	sub	r2, r2, r3
30001520:	e1a03002 	mov	r3, r2
30001524:	e1a03103 	lsl	r3, r3, #2
30001528:	e0833002 	add	r3, r3, r2
3000152c:	e1a03083 	lsl	r3, r3, #1
30001530:	e0412003 	sub	r2, r1, r3
30001534:	e20220ff 	and	r2, r2, #255	@ 0xff
30001538:	e51b3008 	ldr	r3, [fp, #-8]
3000153c:	e2831001 	add	r1, r3, #1
30001540:	e50b1008 	str	r1, [fp, #-8]
30001544:	e2822030 	add	r2, r2, #48	@ 0x30
30001548:	e20220ff 	and	r2, r2, #255	@ 0xff
3000154c:	e2433004 	sub	r3, r3, #4
30001550:	e083300b 	add	r3, r3, fp
30001554:	e5432020 	strb	r2, [r3, #-32]	@ 0xffffffe0
            num /= 10;
30001558:	e51b3028 	ldr	r3, [fp, #-40]	@ 0xffffffd8
3000155c:	e59f2120 	ldr	r2, [pc, #288]	@ 30001684 <int_to_str+0x1f0>
30001560:	e0c21293 	smull	r1, r2, r3, r2
30001564:	e1a02142 	asr	r2, r2, #2
30001568:	e1a03fc3 	asr	r3, r3, #31
3000156c:	e0423003 	sub	r3, r2, r3
30001570:	e50b3028 	str	r3, [fp, #-40]	@ 0xffffffd8
        while (num > 0) {
30001574:	e51b3028 	ldr	r3, [fp, #-40]	@ 0xffffffd8
30001578:	e3530000 	cmp	r3, #0
3000157c:	caffffe1 	bgt	30001508 <int_to_str+0x74>
        }
    }
    
    if (is_neg) {
30001580:	e51b300c 	ldr	r3, [fp, #-12]
30001584:	e3530000 	cmp	r3, #0
30001588:	0a00001f 	beq	3000160c <int_to_str+0x178>
        str[0] = '-';
3000158c:	e51b302c 	ldr	r3, [fp, #-44]	@ 0xffffffd4
30001590:	e3a0202d 	mov	r2, #45	@ 0x2d
30001594:	e5c32000 	strb	r2, [r3]
        for (int j = 0; j < i; j++) {
30001598:	e3a03000 	mov	r3, #0
3000159c:	e50b3010 	str	r3, [fp, #-16]
300015a0:	ea00000e 	b	300015e0 <int_to_str+0x14c>
            str[j + 1] = buf[i - 1 - j];
300015a4:	e51b3008 	ldr	r3, [fp, #-8]
300015a8:	e2432001 	sub	r2, r3, #1
300015ac:	e51b3010 	ldr	r3, [fp, #-16]
300015b0:	e0422003 	sub	r2, r2, r3
300015b4:	e51b3010 	ldr	r3, [fp, #-16]
300015b8:	e2833001 	add	r3, r3, #1
300015bc:	e51b102c 	ldr	r1, [fp, #-44]	@ 0xffffffd4
300015c0:	e0813003 	add	r3, r1, r3
300015c4:	e2422004 	sub	r2, r2, #4
300015c8:	e082200b 	add	r2, r2, fp
300015cc:	e5522020 	ldrb	r2, [r2, #-32]	@ 0xffffffe0
300015d0:	e5c32000 	strb	r2, [r3]
        for (int j = 0; j < i; j++) {
300015d4:	e51b3010 	ldr	r3, [fp, #-16]
300015d8:	e2833001 	add	r3, r3, #1
300015dc:	e50b3010 	str	r3, [fp, #-16]
300015e0:	e51b2010 	ldr	r2, [fp, #-16]
300015e4:	e51b3008 	ldr	r3, [fp, #-8]
300015e8:	e1520003 	cmp	r2, r3
300015ec:	baffffec 	blt	300015a4 <int_to_str+0x110>
        }
        str[i + 1] = '\0';
300015f0:	e51b3008 	ldr	r3, [fp, #-8]
300015f4:	e2833001 	add	r3, r3, #1
300015f8:	e51b202c 	ldr	r2, [fp, #-44]	@ 0xffffffd4
300015fc:	e0823003 	add	r3, r2, r3
30001600:	e3a02000 	mov	r2, #0
30001604:	e5c32000 	strb	r2, [r3]
        for (int j = 0; j < i; j++) {
            str[j] = buf[i - 1 - j];
        }
        str[i] = '\0';
    }
}
30001608:	ea000019 	b	30001674 <int_to_str+0x1e0>
        for (int j = 0; j < i; j++) {
3000160c:	e3a03000 	mov	r3, #0
30001610:	e50b3014 	str	r3, [fp, #-20]	@ 0xffffffec
30001614:	ea00000d 	b	30001650 <int_to_str+0x1bc>
            str[j] = buf[i - 1 - j];
30001618:	e51b3008 	ldr	r3, [fp, #-8]
3000161c:	e2432001 	sub	r2, r3, #1
30001620:	e51b3014 	ldr	r3, [fp, #-20]	@ 0xffffffec
30001624:	e0422003 	sub	r2, r2, r3
30001628:	e51b3014 	ldr	r3, [fp, #-20]	@ 0xffffffec
3000162c:	e51b102c 	ldr	r1, [fp, #-44]	@ 0xffffffd4
30001630:	e0813003 	add	r3, r1, r3
30001634:	e2422004 	sub	r2, r2, #4
30001638:	e082200b 	add	r2, r2, fp
3000163c:	e5522020 	ldrb	r2, [r2, #-32]	@ 0xffffffe0
30001640:	e5c32000 	strb	r2, [r3]
        for (int j = 0; j < i; j++) {
30001644:	e51b3014 	ldr	r3, [fp, #-20]	@ 0xffffffec
30001648:	e2833001 	add	r3, r3, #1
3000164c:	e50b3014 	str	r3, [fp, #-20]	@ 0xffffffec
30001650:	e51b2014 	ldr	r2, [fp, #-20]	@ 0xffffffec
30001654:	e51b3008 	ldr	r3, [fp, #-8]
30001658:	e1520003 	cmp	r2, r3
3000165c:	baffffed 	blt	30001618 <int_to_str+0x184>
        str[i] = '\0';
30001660:	e51b3008 	ldr	r3, [fp, #-8]
30001664:	e51b202c 	ldr	r2, [fp, #-44]	@ 0xffffffd4
30001668:	e0823003 	add	r3, r2, r3
3000166c:	e3a02000 	mov	r2, #0
30001670:	e5c32000 	strb	r2, [r3]
}
30001674:	e1a00000 	nop			@ (mov r0, r0)
30001678:	e28bd000 	add	sp, fp, #0
3000167c:	e49db004 	pop	{fp}		@ (ldr fp, [sp], #4)
30001680:	e12fff1e 	bx	lr
30001684:	66666667 	.word	0x66666667

30001688 <hex_to_str>:

// 简单的十六进制转字符串
static void hex_to_str(unsigned int num, char *str)
{
30001688:	e52db004 	push	{fp}		@ (str fp, [sp, #-4]!)
3000168c:	e28db000 	add	fp, sp, #0
30001690:	e24dd02c 	sub	sp, sp, #44	@ 0x2c
30001694:	e50b0028 	str	r0, [fp, #-40]	@ 0xffffffd8
30001698:	e50b102c 	str	r1, [fp, #-44]	@ 0xffffffd4
    char buf[16];
    int i = 0;
3000169c:	e3a03000 	mov	r3, #0
300016a0:	e50b3008 	str	r3, [fp, #-8]
    const char *hex = "0123456789abcdef";
300016a4:	e59f30e4 	ldr	r3, [pc, #228]	@ 30001790 <hex_to_str+0x108>
300016a8:	e50b3010 	str	r3, [fp, #-16]
    
    if (num == 0) {
300016ac:	e51b3028 	ldr	r3, [fp, #-40]	@ 0xffffffd8
300016b0:	e3530000 	cmp	r3, #0
300016b4:	1a000015 	bne	30001710 <hex_to_str+0x88>
        str[0] = '0';
300016b8:	e51b302c 	ldr	r3, [fp, #-44]	@ 0xffffffd4
300016bc:	e3a02030 	mov	r2, #48	@ 0x30
300016c0:	e5c32000 	strb	r2, [r3]
        str[1] = '\0';
300016c4:	e51b302c 	ldr	r3, [fp, #-44]	@ 0xffffffd4
300016c8:	e2833001 	add	r3, r3, #1
300016cc:	e3a02000 	mov	r2, #0
300016d0:	e5c32000 	strb	r2, [r3]
300016d4:	ea00002a 	b	30001784 <hex_to_str+0xfc>
        return;
    }
    
    while (num > 0) {
        buf[i++] = hex[num & 0xf];
300016d8:	e51b3028 	ldr	r3, [fp, #-40]	@ 0xffffffd8
300016dc:	e203300f 	and	r3, r3, #15
300016e0:	e51b2010 	ldr	r2, [fp, #-16]
300016e4:	e0822003 	add	r2, r2, r3
300016e8:	e51b3008 	ldr	r3, [fp, #-8]
300016ec:	e2831001 	add	r1, r3, #1
300016f0:	e50b1008 	str	r1, [fp, #-8]
300016f4:	e5d22000 	ldrb	r2, [r2]
300016f8:	e2433004 	sub	r3, r3, #4
300016fc:	e083300b 	add	r3, r3, fp
30001700:	e543201c 	strb	r2, [r3, #-28]	@ 0xffffffe4
        num >>= 4;
30001704:	e51b3028 	ldr	r3, [fp, #-40]	@ 0xffffffd8
30001708:	e1a03223 	lsr	r3, r3, #4
3000170c:	e50b3028 	str	r3, [fp, #-40]	@ 0xffffffd8
    while (num > 0) {
30001710:	e51b3028 	ldr	r3, [fp, #-40]	@ 0xffffffd8
30001714:	e3530000 	cmp	r3, #0
30001718:	1affffee 	bne	300016d8 <hex_to_str+0x50>
    }
    
    for (int j = 0; j < i; j++) {
3000171c:	e3a03000 	mov	r3, #0
30001720:	e50b300c 	str	r3, [fp, #-12]
30001724:	ea00000d 	b	30001760 <hex_to_str+0xd8>
        str[j] = buf[i - 1 - j];
30001728:	e51b3008 	ldr	r3, [fp, #-8]
3000172c:	e2432001 	sub	r2, r3, #1
30001730:	e51b300c 	ldr	r3, [fp, #-12]
30001734:	e0422003 	sub	r2, r2, r3
30001738:	e51b300c 	ldr	r3, [fp, #-12]
3000173c:	e51b102c 	ldr	r1, [fp, #-44]	@ 0xffffffd4
30001740:	e0813003 	add	r3, r1, r3
30001744:	e2422004 	sub	r2, r2, #4
30001748:	e082200b 	add	r2, r2, fp
3000174c:	e552201c 	ldrb	r2, [r2, #-28]	@ 0xffffffe4
30001750:	e5c32000 	strb	r2, [r3]
    for (int j = 0; j < i; j++) {
30001754:	e51b300c 	ldr	r3, [fp, #-12]
30001758:	e2833001 	add	r3, r3, #1
3000175c:	e50b300c 	str	r3, [fp, #-12]
30001760:	e51b200c 	ldr	r2, [fp, #-12]
30001764:	e51b3008 	ldr	r3, [fp, #-8]
30001768:	e1520003 	cmp	r2, r3
3000176c:	baffffed 	blt	30001728 <hex_to_str+0xa0>
    }
    str[i] = '\0';
30001770:	e51b3008 	ldr	r3, [fp, #-8]
30001774:	e51b202c 	ldr	r2, [fp, #-44]	@ 0xffffffd4
30001778:	e0823003 	add	r3, r2, r3
3000177c:	e3a02000 	mov	r2, #0
30001780:	e5c32000 	strb	r2, [r3]
}
30001784:	e28bd000 	add	sp, fp, #0
30001788:	e49db004 	pop	{fp}		@ (ldr fp, [sp], #4)
3000178c:	e12fff1e 	bx	lr
30001790:	300080a4 	.word	0x300080a4

30001794 <Uart_Printf>:

// 简单的格式化打印函数，支持 %d, %x, %c, %s, %%
void Uart_Printf(const char *fmt, ...)
{
30001794:	e92d000f 	push	{r0, r1, r2, r3}
30001798:	e92d4800 	push	{fp, lr}
3000179c:	e28db004 	add	fp, sp, #4
300017a0:	e24dde15 	sub	sp, sp, #336	@ 0x150
    va_list args;
    char buf[256];
    char tmp[32];
    char *p = buf;
300017a4:	e24b3e13 	sub	r3, fp, #304	@ 0x130
300017a8:	e50b3008 	str	r3, [fp, #-8]
    const char *s = fmt;
300017ac:	e59b3004 	ldr	r3, [fp, #4]
300017b0:	e50b300c 	str	r3, [fp, #-12]
    int len = 0;
300017b4:	e3a03000 	mov	r3, #0
300017b8:	e50b3010 	str	r3, [fp, #-16]
    
    va_start(args, fmt);
300017bc:	e28b3008 	add	r3, fp, #8
300017c0:	e50b3030 	str	r3, [fp, #-48]	@ 0xffffffd0
    
    while (*s && len < 255) {
300017c4:	ea0000c4 	b	30001adc <Uart_Printf+0x348>
        if (*s == '%') {
300017c8:	e51b300c 	ldr	r3, [fp, #-12]
300017cc:	e5d33000 	ldrb	r3, [r3]
300017d0:	e3530025 	cmp	r3, #37	@ 0x25
300017d4:	1a00009a 	bne	30001a44 <Uart_Printf+0x2b0>
            s++;
300017d8:	e51b300c 	ldr	r3, [fp, #-12]
300017dc:	e2833001 	add	r3, r3, #1
300017e0:	e50b300c 	str	r3, [fp, #-12]
            if (*s == '%') {
300017e4:	e51b300c 	ldr	r3, [fp, #-12]
300017e8:	e5d33000 	ldrb	r3, [r3]
300017ec:	e3530025 	cmp	r3, #37	@ 0x25
300017f0:	1a000008 	bne	30001818 <Uart_Printf+0x84>
                // %% -> %
                *p++ = '%';
300017f4:	e51b3008 	ldr	r3, [fp, #-8]
300017f8:	e2832001 	add	r2, r3, #1
300017fc:	e50b2008 	str	r2, [fp, #-8]
30001800:	e3a02025 	mov	r2, #37	@ 0x25
30001804:	e5c32000 	strb	r2, [r3]
                len++;
30001808:	e51b3010 	ldr	r3, [fp, #-16]
3000180c:	e2833001 	add	r3, r3, #1
30001810:	e50b3010 	str	r3, [fp, #-16]
30001814:	ea000086 	b	30001a34 <Uart_Printf+0x2a0>
            } else if (*s == 'd') {
30001818:	e51b300c 	ldr	r3, [fp, #-12]
3000181c:	e5d33000 	ldrb	r3, [r3]
30001820:	e3530064 	cmp	r3, #100	@ 0x64
30001824:	1a000023 	bne	300018b8 <Uart_Printf+0x124>
                // 整数
                int val = va_arg(args, int);
30001828:	e51b3030 	ldr	r3, [fp, #-48]	@ 0xffffffd0
3000182c:	e2832004 	add	r2, r3, #4
30001830:	e50b2030 	str	r2, [fp, #-48]	@ 0xffffffd0
30001834:	e5933000 	ldr	r3, [r3]
30001838:	e50b302c 	str	r3, [fp, #-44]	@ 0xffffffd4
                int_to_str(val, tmp, 0);
3000183c:	e24b3e15 	sub	r3, fp, #336	@ 0x150
30001840:	e3a02000 	mov	r2, #0
30001844:	e1a01003 	mov	r1, r3
30001848:	e51b002c 	ldr	r0, [fp, #-44]	@ 0xffffffd4
3000184c:	ebffff10 	bl	30001494 <int_to_str>
                int i = 0;
30001850:	e3a03000 	mov	r3, #0
30001854:	e50b3014 	str	r3, [fp, #-20]	@ 0xffffffec
                while (tmp[i] && len < 255) {
30001858:	ea00000c 	b	30001890 <Uart_Printf+0xfc>
                    *p++ = tmp[i++];
3000185c:	e51b2014 	ldr	r2, [fp, #-20]	@ 0xffffffec
30001860:	e2823001 	add	r3, r2, #1
30001864:	e50b3014 	str	r3, [fp, #-20]	@ 0xffffffec
30001868:	e51b3008 	ldr	r3, [fp, #-8]
3000186c:	e2831001 	add	r1, r3, #1
30001870:	e50b1008 	str	r1, [fp, #-8]
30001874:	e2422004 	sub	r2, r2, #4
30001878:	e082200b 	add	r2, r2, fp
3000187c:	e552214c 	ldrb	r2, [r2, #-332]	@ 0xfffffeb4
30001880:	e5c32000 	strb	r2, [r3]
                    len++;
30001884:	e51b3010 	ldr	r3, [fp, #-16]
30001888:	e2833001 	add	r3, r3, #1
3000188c:	e50b3010 	str	r3, [fp, #-16]
                while (tmp[i] && len < 255) {
30001890:	e24b2e15 	sub	r2, fp, #336	@ 0x150
30001894:	e51b3014 	ldr	r3, [fp, #-20]	@ 0xffffffec
30001898:	e0823003 	add	r3, r2, r3
3000189c:	e5d33000 	ldrb	r3, [r3]
300018a0:	e3530000 	cmp	r3, #0
300018a4:	0a000062 	beq	30001a34 <Uart_Printf+0x2a0>
300018a8:	e51b3010 	ldr	r3, [fp, #-16]
300018ac:	e35300fe 	cmp	r3, #254	@ 0xfe
300018b0:	daffffe9 	ble	3000185c <Uart_Printf+0xc8>
300018b4:	ea00005e 	b	30001a34 <Uart_Printf+0x2a0>
                }
            } else if (*s == 'x') {
300018b8:	e51b300c 	ldr	r3, [fp, #-12]
300018bc:	e5d33000 	ldrb	r3, [r3]
300018c0:	e3530078 	cmp	r3, #120	@ 0x78
300018c4:	1a000022 	bne	30001954 <Uart_Printf+0x1c0>
                // 十六进制
                unsigned int val = va_arg(args, unsigned int);
300018c8:	e51b3030 	ldr	r3, [fp, #-48]	@ 0xffffffd0
300018cc:	e2832004 	add	r2, r3, #4
300018d0:	e50b2030 	str	r2, [fp, #-48]	@ 0xffffffd0
300018d4:	e5933000 	ldr	r3, [r3]
300018d8:	e50b3028 	str	r3, [fp, #-40]	@ 0xffffffd8
                hex_to_str(val, tmp);
300018dc:	e24b3e15 	sub	r3, fp, #336	@ 0x150
300018e0:	e1a01003 	mov	r1, r3
300018e4:	e51b0028 	ldr	r0, [fp, #-40]	@ 0xffffffd8
300018e8:	ebffff66 	bl	30001688 <hex_to_str>
                int i = 0;
300018ec:	e3a03000 	mov	r3, #0
300018f0:	e50b3018 	str	r3, [fp, #-24]	@ 0xffffffe8
                while (tmp[i] && len < 255) {
300018f4:	ea00000c 	b	3000192c <Uart_Printf+0x198>
                    *p++ = tmp[i++];
300018f8:	e51b2018 	ldr	r2, [fp, #-24]	@ 0xffffffe8
300018fc:	e2823001 	add	r3, r2, #1
30001900:	e50b3018 	str	r3, [fp, #-24]	@ 0xffffffe8
30001904:	e51b3008 	ldr	r3, [fp, #-8]
30001908:	e2831001 	add	r1, r3, #1
3000190c:	e50b1008 	str	r1, [fp, #-8]
30001910:	e2422004 	sub	r2, r2, #4
30001914:	e082200b 	add	r2, r2, fp
30001918:	e552214c 	ldrb	r2, [r2, #-332]	@ 0xfffffeb4
3000191c:	e5c32000 	strb	r2, [r3]
                    len++;
30001920:	e51b3010 	ldr	r3, [fp, #-16]
30001924:	e2833001 	add	r3, r3, #1
30001928:	e50b3010 	str	r3, [fp, #-16]
                while (tmp[i] && len < 255) {
3000192c:	e24b2e15 	sub	r2, fp, #336	@ 0x150
30001930:	e51b3018 	ldr	r3, [fp, #-24]	@ 0xffffffe8
30001934:	e0823003 	add	r3, r2, r3
30001938:	e5d33000 	ldrb	r3, [r3]
3000193c:	e3530000 	cmp	r3, #0
30001940:	0a00003b 	beq	30001a34 <Uart_Printf+0x2a0>
30001944:	e51b3010 	ldr	r3, [fp, #-16]
30001948:	e35300fe 	cmp	r3, #254	@ 0xfe
3000194c:	daffffe9 	ble	300018f8 <Uart_Printf+0x164>
30001950:	ea000037 	b	30001a34 <Uart_Printf+0x2a0>
                }
            } else if (*s == 'c') {
30001954:	e51b300c 	ldr	r3, [fp, #-12]
30001958:	e5d33000 	ldrb	r3, [r3]
3000195c:	e3530063 	cmp	r3, #99	@ 0x63
30001960:	1a00000d 	bne	3000199c <Uart_Printf+0x208>
                // 字符
                char c = va_arg(args, int);
30001964:	e51b3030 	ldr	r3, [fp, #-48]	@ 0xffffffd0
30001968:	e2832004 	add	r2, r3, #4
3000196c:	e50b2030 	str	r2, [fp, #-48]	@ 0xffffffd0
30001970:	e5933000 	ldr	r3, [r3]
30001974:	e54b3021 	strb	r3, [fp, #-33]	@ 0xffffffdf
                *p++ = c;
30001978:	e51b3008 	ldr	r3, [fp, #-8]
3000197c:	e2832001 	add	r2, r3, #1
30001980:	e50b2008 	str	r2, [fp, #-8]
30001984:	e55b2021 	ldrb	r2, [fp, #-33]	@ 0xffffffdf
30001988:	e5c32000 	strb	r2, [r3]
                len++;
3000198c:	e51b3010 	ldr	r3, [fp, #-16]
30001990:	e2833001 	add	r3, r3, #1
30001994:	e50b3010 	str	r3, [fp, #-16]
30001998:	ea000025 	b	30001a34 <Uart_Printf+0x2a0>
            } else if (*s == 's') {
3000199c:	e51b300c 	ldr	r3, [fp, #-12]
300019a0:	e5d33000 	ldrb	r3, [r3]
300019a4:	e3530073 	cmp	r3, #115	@ 0x73
300019a8:	1a000018 	bne	30001a10 <Uart_Printf+0x27c>
                // 字符串
                const char *str = va_arg(args, const char *);
300019ac:	e51b3030 	ldr	r3, [fp, #-48]	@ 0xffffffd0
300019b0:	e2832004 	add	r2, r3, #4
300019b4:	e50b2030 	str	r2, [fp, #-48]	@ 0xffffffd0
300019b8:	e5933000 	ldr	r3, [r3]
300019bc:	e50b301c 	str	r3, [fp, #-28]	@ 0xffffffe4
                while (*str && len < 255) {
300019c0:	ea00000a 	b	300019f0 <Uart_Printf+0x25c>
                    *p++ = *str++;
300019c4:	e51b201c 	ldr	r2, [fp, #-28]	@ 0xffffffe4
300019c8:	e2823001 	add	r3, r2, #1
300019cc:	e50b301c 	str	r3, [fp, #-28]	@ 0xffffffe4
300019d0:	e51b3008 	ldr	r3, [fp, #-8]
300019d4:	e2831001 	add	r1, r3, #1
300019d8:	e50b1008 	str	r1, [fp, #-8]
300019dc:	e5d22000 	ldrb	r2, [r2]
300019e0:	e5c32000 	strb	r2, [r3]
                    len++;
300019e4:	e51b3010 	ldr	r3, [fp, #-16]
300019e8:	e2833001 	add	r3, r3, #1
300019ec:	e50b3010 	str	r3, [fp, #-16]
                while (*str && len < 255) {
300019f0:	e51b301c 	ldr	r3, [fp, #-28]	@ 0xffffffe4
300019f4:	e5d33000 	ldrb	r3, [r3]
300019f8:	e3530000 	cmp	r3, #0
300019fc:	0a00000c 	beq	30001a34 <Uart_Printf+0x2a0>
30001a00:	e51b3010 	ldr	r3, [fp, #-16]
30001a04:	e35300fe 	cmp	r3, #254	@ 0xfe
30001a08:	daffffed 	ble	300019c4 <Uart_Printf+0x230>
30001a0c:	ea000008 	b	30001a34 <Uart_Printf+0x2a0>
                }
            } else {
                *p++ = *s;
30001a10:	e51b3008 	ldr	r3, [fp, #-8]
30001a14:	e2832001 	add	r2, r3, #1
30001a18:	e50b2008 	str	r2, [fp, #-8]
30001a1c:	e51b200c 	ldr	r2, [fp, #-12]
30001a20:	e5d22000 	ldrb	r2, [r2]
30001a24:	e5c32000 	strb	r2, [r3]
                len++;
30001a28:	e51b3010 	ldr	r3, [fp, #-16]
30001a2c:	e2833001 	add	r3, r3, #1
30001a30:	e50b3010 	str	r3, [fp, #-16]
            }
            s++;
30001a34:	e51b300c 	ldr	r3, [fp, #-12]
30001a38:	e2833001 	add	r3, r3, #1
30001a3c:	e50b300c 	str	r3, [fp, #-12]
30001a40:	ea000025 	b	30001adc <Uart_Printf+0x348>
        } else if (*s == '\n') {
30001a44:	e51b300c 	ldr	r3, [fp, #-12]
30001a48:	e5d33000 	ldrb	r3, [r3]
30001a4c:	e353000a 	cmp	r3, #10
30001a50:	1a000016 	bne	30001ab0 <Uart_Printf+0x31c>
            *p++ = '\r';
30001a54:	e51b3008 	ldr	r3, [fp, #-8]
30001a58:	e2832001 	add	r2, r3, #1
30001a5c:	e50b2008 	str	r2, [fp, #-8]
30001a60:	e3a0200d 	mov	r2, #13
30001a64:	e5c32000 	strb	r2, [r3]
            len++;
30001a68:	e51b3010 	ldr	r3, [fp, #-16]
30001a6c:	e2833001 	add	r3, r3, #1
30001a70:	e50b3010 	str	r3, [fp, #-16]
            if (len < 255) {
30001a74:	e51b3010 	ldr	r3, [fp, #-16]
30001a78:	e35300fe 	cmp	r3, #254	@ 0xfe
30001a7c:	ca000007 	bgt	30001aa0 <Uart_Printf+0x30c>
                *p++ = '\n';
30001a80:	e51b3008 	ldr	r3, [fp, #-8]
30001a84:	e2832001 	add	r2, r3, #1
30001a88:	e50b2008 	str	r2, [fp, #-8]
30001a8c:	e3a0200a 	mov	r2, #10
30001a90:	e5c32000 	strb	r2, [r3]
                len++;
30001a94:	e51b3010 	ldr	r3, [fp, #-16]
30001a98:	e2833001 	add	r3, r3, #1
30001a9c:	e50b3010 	str	r3, [fp, #-16]
            }
            s++;
30001aa0:	e51b300c 	ldr	r3, [fp, #-12]
30001aa4:	e2833001 	add	r3, r3, #1
30001aa8:	e50b300c 	str	r3, [fp, #-12]
30001aac:	ea00000a 	b	30001adc <Uart_Printf+0x348>
        } else {
            *p++ = *s++;
30001ab0:	e51b200c 	ldr	r2, [fp, #-12]
30001ab4:	e2823001 	add	r3, r2, #1
30001ab8:	e50b300c 	str	r3, [fp, #-12]
30001abc:	e51b3008 	ldr	r3, [fp, #-8]
30001ac0:	e2831001 	add	r1, r3, #1
30001ac4:	e50b1008 	str	r1, [fp, #-8]
30001ac8:	e5d22000 	ldrb	r2, [r2]
30001acc:	e5c32000 	strb	r2, [r3]
            len++;
30001ad0:	e51b3010 	ldr	r3, [fp, #-16]
30001ad4:	e2833001 	add	r3, r3, #1
30001ad8:	e50b3010 	str	r3, [fp, #-16]
    while (*s && len < 255) {
30001adc:	e51b300c 	ldr	r3, [fp, #-12]
30001ae0:	e5d33000 	ldrb	r3, [r3]
30001ae4:	e3530000 	cmp	r3, #0
30001ae8:	0a000002 	beq	30001af8 <Uart_Printf+0x364>
30001aec:	e51b3010 	ldr	r3, [fp, #-16]
30001af0:	e35300fe 	cmp	r3, #254	@ 0xfe
30001af4:	daffff33 	ble	300017c8 <Uart_Printf+0x34>
        }
    }
    
    *p = '\0';
30001af8:	e51b3008 	ldr	r3, [fp, #-8]
30001afc:	e3a02000 	mov	r2, #0
30001b00:	e5c32000 	strb	r2, [r3]
    va_end(args);
    
    // 输出缓冲区中的内容
    int i = 0;
30001b04:	e3a03000 	mov	r3, #0
30001b08:	e50b3020 	str	r3, [fp, #-32]	@ 0xffffffe0
    while (buf[i] != '\0') {
30001b0c:	ea000007 	b	30001b30 <Uart_Printf+0x39c>
        Uart_SendByte(buf[i++]);
30001b10:	e51b3020 	ldr	r3, [fp, #-32]	@ 0xffffffe0
30001b14:	e2832001 	add	r2, r3, #1
30001b18:	e50b2020 	str	r2, [fp, #-32]	@ 0xffffffe0
30001b1c:	e2433004 	sub	r3, r3, #4
30001b20:	e083300b 	add	r3, r3, fp
30001b24:	e553312c 	ldrb	r3, [r3, #-300]	@ 0xfffffed4
30001b28:	e1a00003 	mov	r0, r3
30001b2c:	ebfffe38 	bl	30001414 <Uart_SendByte>
    while (buf[i] != '\0') {
30001b30:	e24b2e13 	sub	r2, fp, #304	@ 0x130
30001b34:	e51b3020 	ldr	r3, [fp, #-32]	@ 0xffffffe0
30001b38:	e0823003 	add	r3, r2, r3
30001b3c:	e5d33000 	ldrb	r3, [r3]
30001b40:	e3530000 	cmp	r3, #0
30001b44:	1afffff1 	bne	30001b10 <Uart_Printf+0x37c>
    }
}
30001b48:	e1a00000 	nop			@ (mov r0, r0)
30001b4c:	e1a00000 	nop			@ (mov r0, r0)
30001b50:	e24bd004 	sub	sp, fp, #4
30001b54:	e8bd4800 	pop	{fp, lr}
30001b58:	e28dd010 	add	sp, sp, #16
30001b5c:	e12fff1e 	bx	lr

30001b60 <OS_InitMisc>:
*
* Returns    : none
*******************************************************************************
*/
static void OS_InitMisc(void)
{
30001b60:	e52db004 	push	{fp}		@ (str fp, [sp, #-4]!)
30001b64:	e28db000 	add	fp, sp, #0
    OSTime        = 0L;                     // Clear system clock
30001b68:	e59f308c 	ldr	r3, [pc, #140]	@ 30001bfc <OS_InitMisc+0x9c>
30001b6c:	e3a02000 	mov	r2, #0
30001b70:	e5832000 	str	r2, [r3]
    OSIntNesting  = 0;                      // Clear interrupt nesting counter
30001b74:	e59f3084 	ldr	r3, [pc, #132]	@ 30001c00 <OS_InitMisc+0xa0>
30001b78:	e3a02000 	mov	r2, #0
30001b7c:	e5c32000 	strb	r2, [r3]
    OSLockNesting = 0;                      // Clear scheduling lock counter
30001b80:	e59f307c 	ldr	r3, [pc, #124]	@ 30001c04 <OS_InitMisc+0xa4>
30001b84:	e3a02000 	mov	r2, #0
30001b88:	e5c32000 	strb	r2, [r3]
    OSTaskCtr     = 0;                      // Clear task counter
30001b8c:	e59f3074 	ldr	r3, [pc, #116]	@ 30001c08 <OS_InitMisc+0xa8>
30001b90:	e3a02000 	mov	r2, #0
30001b94:	e5c32000 	strb	r2, [r3]
    OSRunning     = FALSE;                  // Kernel not started
30001b98:	e59f306c 	ldr	r3, [pc, #108]	@ 30001c0c <OS_InitMisc+0xac>
30001b9c:	e3a02000 	mov	r2, #0
30001ba0:	e5c32000 	strb	r2, [r3]
    OSCtxSwCtr    = 0;                      // Clear context switch counter
30001ba4:	e59f3064 	ldr	r3, [pc, #100]	@ 30001c10 <OS_InitMisc+0xb0>
30001ba8:	e3a02000 	mov	r2, #0
30001bac:	e5832000 	str	r2, [r3]
    OSIdleCtr     = 0L;                     // Clear idle counter
30001bb0:	e59f305c 	ldr	r3, [pc, #92]	@ 30001c14 <OS_InitMisc+0xb4>
30001bb4:	e3a02000 	mov	r2, #0
30001bb8:	e5832000 	str	r2, [r3]
    OSIdleCtrRun  = 0L;                     // Clear run idle counter
30001bbc:	e59f3054 	ldr	r3, [pc, #84]	@ 30001c18 <OS_InitMisc+0xb8>
30001bc0:	e3a02000 	mov	r2, #0
30001bc4:	e5832000 	str	r2, [r3]
    OSIdleCtrMax  = 0L;                     // Clear max idle counter
30001bc8:	e59f304c 	ldr	r3, [pc, #76]	@ 30001c1c <OS_InitMisc+0xbc>
30001bcc:	e3a02000 	mov	r2, #0
30001bd0:	e5832000 	str	r2, [r3]
    OSStatRdy     = FALSE;                  // Statistics task not ready
30001bd4:	e59f3044 	ldr	r3, [pc, #68]	@ 30001c20 <OS_InitMisc+0xc0>
30001bd8:	e3a02000 	mov	r2, #0
30001bdc:	e5c32000 	strb	r2, [r3]
    OSCPUUsage    = 0;                      // Clear CPU usage
30001be0:	e59f303c 	ldr	r3, [pc, #60]	@ 30001c24 <OS_InitMisc+0xc4>
30001be4:	e3a02000 	mov	r2, #0
30001be8:	e5c32000 	strb	r2, [r3]
}
30001bec:	e1a00000 	nop			@ (mov r0, r0)
30001bf0:	e28bd000 	add	sp, fp, #0
30001bf4:	e49db004 	pop	{fp}		@ (ldr fp, [sp], #4)
30001bf8:	e12fff1e 	bx	lr
30001bfc:	3000ac8c 	.word	0x3000ac8c
30001c00:	3000ac90 	.word	0x3000ac90
30001c04:	3000ac92 	.word	0x3000ac92
30001c08:	3000aca1 	.word	0x3000aca1
30001c0c:	3000aca0 	.word	0x3000aca0
30001c10:	3000aca4 	.word	0x3000aca4
30001c14:	3000aca8 	.word	0x3000aca8
30001c18:	3000acac 	.word	0x3000acac
30001c1c:	3000acb0 	.word	0x3000acb0
30001c20:	3000acb4 	.word	0x3000acb4
30001c24:	3000acb5 	.word	0x3000acb5

30001c28 <OS_InitRdyList>:
*
* Returns    : none
*******************************************************************************
*/
static void OS_InitRdyList(void)
{
30001c28:	e52db004 	push	{fp}		@ (str fp, [sp, #-4]!)
30001c2c:	e28db000 	add	fp, sp, #0
30001c30:	e24dd00c 	sub	sp, sp, #12
    INT16U i;
    INT8U *prdytbl;

    OSRdyGrp  = 0x00;                       // Clear ready list group
30001c34:	e59f3084 	ldr	r3, [pc, #132]	@ 30001cc0 <OS_InitRdyList+0x98>
30001c38:	e3a02000 	mov	r2, #0
30001c3c:	e5c32000 	strb	r2, [r3]
    prdytbl   = &OSRdyTbl[0];
30001c40:	e59f307c 	ldr	r3, [pc, #124]	@ 30001cc4 <OS_InitRdyList+0x9c>
30001c44:	e50b300c 	str	r3, [fp, #-12]
    for (i = 0; i < OS_RDY_TBL_SIZE; i++) {
30001c48:	e3a03000 	mov	r3, #0
30001c4c:	e14b30b6 	strh	r3, [fp, #-6]
30001c50:	ea000007 	b	30001c74 <OS_InitRdyList+0x4c>
        *prdytbl++ = 0x00;                  // Clear ready list table
30001c54:	e51b300c 	ldr	r3, [fp, #-12]
30001c58:	e2832001 	add	r2, r3, #1
30001c5c:	e50b200c 	str	r2, [fp, #-12]
30001c60:	e3a02000 	mov	r2, #0
30001c64:	e5c32000 	strb	r2, [r3]
    for (i = 0; i < OS_RDY_TBL_SIZE; i++) {
30001c68:	e15b30b6 	ldrh	r3, [fp, #-6]
30001c6c:	e2833001 	add	r3, r3, #1
30001c70:	e14b30b6 	strh	r3, [fp, #-6]
30001c74:	e15b30b6 	ldrh	r3, [fp, #-6]
30001c78:	e3530007 	cmp	r3, #7
30001c7c:	9afffff4 	bls	30001c54 <OS_InitRdyList+0x2c>
    }
    OSPrioCur     = 0;                      // Set current priority to lowest
30001c80:	e59f3040 	ldr	r3, [pc, #64]	@ 30001cc8 <OS_InitRdyList+0xa0>
30001c84:	e3a02000 	mov	r2, #0
30001c88:	e5c32000 	strb	r2, [r3]
    OSPrioHighRdy = 0;                      // Set highest ready priority
30001c8c:	e59f3038 	ldr	r3, [pc, #56]	@ 30001ccc <OS_InitRdyList+0xa4>
30001c90:	e3a02000 	mov	r2, #0
30001c94:	e5c32000 	strb	r2, [r3]
    OSTCBHighRdy  = (OS_TCB *)0;            // No task ready yet
30001c98:	e59f3030 	ldr	r3, [pc, #48]	@ 30001cd0 <OS_InitRdyList+0xa8>
30001c9c:	e3a02000 	mov	r2, #0
30001ca0:	e5832000 	str	r2, [r3]
    OSTCBCur      = (OS_TCB *)0;            // No current task yet
30001ca4:	e59f3028 	ldr	r3, [pc, #40]	@ 30001cd4 <OS_InitRdyList+0xac>
30001ca8:	e3a02000 	mov	r2, #0
30001cac:	e5832000 	str	r2, [r3]
}
30001cb0:	e1a00000 	nop			@ (mov r0, r0)
30001cb4:	e28bd000 	add	sp, fp, #0
30001cb8:	e49db004 	pop	{fp}		@ (ldr fp, [sp], #4)
30001cbc:	e12fff1e 	bx	lr
30001cc0:	3000ac95 	.word	0x3000ac95
30001cc4:	3000ac98 	.word	0x3000ac98
30001cc8:	3000ac93 	.word	0x3000ac93
30001ccc:	3000ac94 	.word	0x3000ac94
30001cd0:	3000b5c0 	.word	0x3000b5c0
30001cd4:	3000b5b8 	.word	0x3000b5b8

30001cd8 <OS_InitEventList>:
*
* Returns    : none
*******************************************************************************
*/
static void OS_InitEventList(void)
{
30001cd8:	e92d4800 	push	{fp, lr}
30001cdc:	e28db004 	add	fp, sp, #4
30001ce0:	e24dd010 	sub	sp, sp, #16
    INT16U i;
    OS_EVENT *pevent;
    OS_EVENT *pevent2;

    // Initialize event free list
    pevent = &OSEventTbl[0];
30001ce4:	e59f3094 	ldr	r3, [pc, #148]	@ 30001d80 <OS_InitEventList+0xa8>
30001ce8:	e50b300c 	str	r3, [fp, #-12]
    pevent2 = &OSEventTbl[1];
30001cec:	e59f3090 	ldr	r3, [pc, #144]	@ 30001d84 <OS_InitEventList+0xac>
30001cf0:	e50b3010 	str	r3, [fp, #-16]
    for (i = 0; i < (OS_MAX_EVENTS - 1); i++) {
30001cf4:	e3a03000 	mov	r3, #0
30001cf8:	e14b30b6 	strh	r3, [fp, #-6]
30001cfc:	ea00000e 	b	30001d3c <OS_InitEventList+0x64>
        pevent->OSEventType = OS_EVENT_TYPE_UNUSED;
30001d00:	e51b300c 	ldr	r3, [fp, #-12]
30001d04:	e3a02000 	mov	r2, #0
30001d08:	e5c32000 	strb	r2, [r3]
        pevent->OSEventPtr = (void *)pevent2;
30001d0c:	e51b300c 	ldr	r3, [fp, #-12]
30001d10:	e51b2010 	ldr	r2, [fp, #-16]
30001d14:	e5832004 	str	r2, [r3, #4]
        pevent++;
30001d18:	e51b300c 	ldr	r3, [fp, #-12]
30001d1c:	e2833014 	add	r3, r3, #20
30001d20:	e50b300c 	str	r3, [fp, #-12]
        pevent2++;
30001d24:	e51b3010 	ldr	r3, [fp, #-16]
30001d28:	e2833014 	add	r3, r3, #20
30001d2c:	e50b3010 	str	r3, [fp, #-16]
    for (i = 0; i < (OS_MAX_EVENTS - 1); i++) {
30001d30:	e15b30b6 	ldrh	r3, [fp, #-6]
30001d34:	e2833001 	add	r3, r3, #1
30001d38:	e14b30b6 	strh	r3, [fp, #-6]
30001d3c:	e15b30b6 	ldrh	r3, [fp, #-6]
30001d40:	e3530003 	cmp	r3, #3
30001d44:	9affffed 	bls	30001d00 <OS_InitEventList+0x28>
    }
    pevent->OSEventType = OS_EVENT_TYPE_UNUSED;
30001d48:	e51b300c 	ldr	r3, [fp, #-12]
30001d4c:	e3a02000 	mov	r2, #0
30001d50:	e5c32000 	strb	r2, [r3]
    pevent->OSEventPtr = (void *)0;
30001d54:	e51b300c 	ldr	r3, [fp, #-12]
30001d58:	e3a02000 	mov	r2, #0
30001d5c:	e5832004 	str	r2, [r3, #4]
    OSEventFreeList = &OSEventTbl[0];
30001d60:	e59f3020 	ldr	r3, [pc, #32]	@ 30001d88 <OS_InitEventList+0xb0>
30001d64:	e59f2014 	ldr	r2, [pc, #20]	@ 30001d80 <OS_InitEventList+0xa8>
30001d68:	e5832000 	str	r2, [r3]

    // Initialize flag free list
    OS_FlagInit();
30001d6c:	eb000779 	bl	30003b58 <OS_FlagInit>
}
30001d70:	e1a00000 	nop			@ (mov r0, r0)
30001d74:	e24bd004 	sub	sp, fp, #4
30001d78:	e8bd4800 	pop	{fp, lr}
30001d7c:	e12fff1e 	bx	lr
30001d80:	3000b808 	.word	0x3000b808
30001d84:	3000b81c 	.word	0x3000b81c
30001d88:	3000b804 	.word	0x3000b804

30001d8c <OS_InitTaskIdle>:
*
* Returns    : none
*******************************************************************************
*/
static void OS_InitTaskIdle(void)
{
30001d8c:	e92d4800 	push	{fp, lr}
30001d90:	e28db004 	add	fp, sp, #4
    (void)OSTaskCreate(OS_TaskIdle,
30001d94:	e3a0303e 	mov	r3, #62	@ 0x3e
30001d98:	e59f2018 	ldr	r2, [pc, #24]	@ 30001db8 <OS_InitTaskIdle+0x2c>
30001d9c:	e3a01000 	mov	r1, #0
30001da0:	e59f0014 	ldr	r0, [pc, #20]	@ 30001dbc <OS_InitTaskIdle+0x30>
30001da4:	eb0013cb 	bl	30006cd8 <OSTaskCreate>
                       (void *)0,
                       &OSTaskIdleStk[OS_TASK_IDLE_STK_SIZE - 1],
                       OS_IDLE_PRIO);
}
30001da8:	e1a00000 	nop			@ (mov r0, r0)
30001dac:	e24bd004 	sub	sp, fp, #4
30001db0:	e8bd4800 	pop	{fp, lr}
30001db4:	e12fff1e 	bx	lr
30001db8:	3000adb4 	.word	0x3000adb4
30001dbc:	30002a48 	.word	0x30002a48

30001dc0 <OSInit>:

void  OSInit(void)
{
30001dc0:	e92d4800 	push	{fp, lr}
30001dc4:	e28db004 	add	fp, sp, #4
    OSInitHookBegin();               // 调用特定于端口的初始化代码
30001dc8:	ebfffc40 	bl	30000ed0 <OSInitHookBegin>
    OS_InitMisc();                   // 初始化杂项变量
30001dcc:	ebffff63 	bl	30001b60 <OS_InitMisc>
    OS_InitRdyList();                // 初始化就绪列表
30001dd0:	ebffff94 	bl	30001c28 <OS_InitRdyList>
    OS_InitTCBList();                // 初始化 OS_TCB 的空闲列表
30001dd4:	eb0002a0 	bl	3000285c <OS_InitTCBList>
    OS_InitEventList();              // 初始化事件标志结构
30001dd8:	ebffffbe 	bl	30001cd8 <OS_InitEventList>
    OS_MemInit();                    // 初始化内存管理
30001ddc:	eb000af0 	bl	300049a4 <OS_MemInit>
    OS_QInit();                      // 初始化消息队列结构
30001de0:	eb001115 	bl	3000623c <OS_QInit>
    OS_InitTaskIdle();               // 创建空闲任务
30001de4:	ebffffe8 	bl	30001d8c <OS_InitTaskIdle>
    OS_InitTaskStat();               // 创建统计任务
30001de8:	eb00028e 	bl	30002828 <OS_InitTaskStat>
    OSInitHookEnd();                 // 调用特定于端口的初始化代码
30001dec:	ebfffc3d 	bl	30000ee8 <OSInitHookEnd>
}
30001df0:	e1a00000 	nop			@ (mov r0, r0)
30001df4:	e24bd004 	sub	sp, fp, #4
30001df8:	e8bd4800 	pop	{fp, lr}
30001dfc:	e12fff1e 	bx	lr

30001e00 <OSIntEnter>:

//进入ISR,需要在context switch中定义
void  OSIntEnter (void)
{
30001e00:	e52db004 	push	{fp}		@ (str fp, [sp, #-4]!)
30001e04:	e28db000 	add	fp, sp, #0
    if (OSRunning == TRUE) {
30001e08:	e59f3040 	ldr	r3, [pc, #64]	@ 30001e50 <OSIntEnter+0x50>
30001e0c:	e5d33000 	ldrb	r3, [r3]
30001e10:	e3530001 	cmp	r3, #1
30001e14:	1a000009 	bne	30001e40 <OSIntEnter+0x40>
        if (OSIntNesting < 255) {
30001e18:	e59f3034 	ldr	r3, [pc, #52]	@ 30001e54 <OSIntEnter+0x54>
30001e1c:	e5d33000 	ldrb	r3, [r3]
30001e20:	e35300ff 	cmp	r3, #255	@ 0xff
30001e24:	0a000005 	beq	30001e40 <OSIntEnter+0x40>
            OSIntNesting++;                      // 递增 ISR 嵌套级别
30001e28:	e59f3024 	ldr	r3, [pc, #36]	@ 30001e54 <OSIntEnter+0x54>
30001e2c:	e5d33000 	ldrb	r3, [r3]
30001e30:	e2833001 	add	r3, r3, #1
30001e34:	e20320ff 	and	r2, r3, #255	@ 0xff
30001e38:	e59f3014 	ldr	r3, [pc, #20]	@ 30001e54 <OSIntEnter+0x54>
30001e3c:	e5c32000 	strb	r2, [r3]
        }
    }
}
30001e40:	e1a00000 	nop			@ (mov r0, r0)
30001e44:	e28bd000 	add	sp, fp, #0
30001e48:	e49db004 	pop	{fp}		@ (ldr fp, [sp], #4)
30001e4c:	e12fff1e 	bx	lr
30001e50:	3000aca0 	.word	0x3000aca0
30001e54:	3000ac90 	.word	0x3000ac90

30001e58 <OSIntExit>:

//退出ISR，需要在context switch中定义
void OSIntExit(void){
30001e58:	e92d4800 	push	{fp, lr}
30001e5c:	e28db004 	add	fp, sp, #4
30001e60:	e24dd008 	sub	sp, sp, #8
    OS_CPU_SR   cpu_sr;                                         //CPU 状态寄存器
    if(OSRunning == TRUE){
30001e64:	e59f3118 	ldr	r3, [pc, #280]	@ 30001f84 <OSIntExit+0x12c>
30001e68:	e5d33000 	ldrb	r3, [r3]
30001e6c:	e3530001 	cmp	r3, #1
30001e70:	1a00003f 	bne	30001f74 <OSIntExit+0x11c>
        OS_ENTER_CRITICAL();
30001e74:	ebfff950 	bl	300003bc <OS_CPU_SR_Save>
30001e78:	e50b0008 	str	r0, [fp, #-8]
       if(OSIntNesting > 0){
30001e7c:	e59f3104 	ldr	r3, [pc, #260]	@ 30001f88 <OSIntExit+0x130>
30001e80:	e5d33000 	ldrb	r3, [r3]
30001e84:	e3530000 	cmp	r3, #0
30001e88:	0a000005 	beq	30001ea4 <OSIntExit+0x4c>
           OSIntNesting--; 
30001e8c:	e59f30f4 	ldr	r3, [pc, #244]	@ 30001f88 <OSIntExit+0x130>
30001e90:	e5d33000 	ldrb	r3, [r3]
30001e94:	e2433001 	sub	r3, r3, #1
30001e98:	e20320ff 	and	r2, r3, #255	@ 0xff
30001e9c:	e59f30e4 	ldr	r3, [pc, #228]	@ 30001f88 <OSIntExit+0x130>
30001ea0:	e5c32000 	strb	r2, [r3]
       }
       if((OSIntNesting == 0) && (OSLockNesting == 0)){
30001ea4:	e59f30dc 	ldr	r3, [pc, #220]	@ 30001f88 <OSIntExit+0x130>
30001ea8:	e5d33000 	ldrb	r3, [r3]
30001eac:	e3530000 	cmp	r3, #0
30001eb0:	1a00002d 	bne	30001f6c <OSIntExit+0x114>
30001eb4:	e59f30d0 	ldr	r3, [pc, #208]	@ 30001f8c <OSIntExit+0x134>
30001eb8:	e5d33000 	ldrb	r3, [r3]
30001ebc:	e3530000 	cmp	r3, #0
30001ec0:	1a000029 	bne	30001f6c <OSIntExit+0x114>
            OSIntExitY = OSUnMapTbl[OSRdyGrp];                     // 获取最高优先级任务
30001ec4:	e59f30c4 	ldr	r3, [pc, #196]	@ 30001f90 <OSIntExit+0x138>
30001ec8:	e5d33000 	ldrb	r3, [r3]
30001ecc:	e1a02003 	mov	r2, r3
30001ed0:	e59f30bc 	ldr	r3, [pc, #188]	@ 30001f94 <OSIntExit+0x13c>
30001ed4:	e7d32002 	ldrb	r2, [r3, r2]
30001ed8:	e59f30b8 	ldr	r3, [pc, #184]	@ 30001f98 <OSIntExit+0x140>
30001edc:	e5c32000 	strb	r2, [r3]
            OSPrioHighRdy = (INT8U)((OSIntExitY << 3) + OSUnMapTbl[OSRdyTbl[OSIntExitY]]);
30001ee0:	e59f30b0 	ldr	r3, [pc, #176]	@ 30001f98 <OSIntExit+0x140>
30001ee4:	e5d33000 	ldrb	r3, [r3]
30001ee8:	e1a03183 	lsl	r3, r3, #3
30001eec:	e20320ff 	and	r2, r3, #255	@ 0xff
30001ef0:	e59f30a0 	ldr	r3, [pc, #160]	@ 30001f98 <OSIntExit+0x140>
30001ef4:	e5d33000 	ldrb	r3, [r3]
30001ef8:	e1a01003 	mov	r1, r3
30001efc:	e59f3098 	ldr	r3, [pc, #152]	@ 30001f9c <OSIntExit+0x144>
30001f00:	e7d33001 	ldrb	r3, [r3, r1]
30001f04:	e1a01003 	mov	r1, r3
30001f08:	e59f3084 	ldr	r3, [pc, #132]	@ 30001f94 <OSIntExit+0x13c>
30001f0c:	e7d33001 	ldrb	r3, [r3, r1]
30001f10:	e0823003 	add	r3, r2, r3
30001f14:	e20320ff 	and	r2, r3, #255	@ 0xff
30001f18:	e59f3080 	ldr	r3, [pc, #128]	@ 30001fa0 <OSIntExit+0x148>
30001f1c:	e5c32000 	strb	r2, [r3]
            if (OSPrioHighRdy != OSPrioCur) {              // 如果当前任务是最高优先级就绪任务，则不进行上下文切换
30001f20:	e59f3078 	ldr	r3, [pc, #120]	@ 30001fa0 <OSIntExit+0x148>
30001f24:	e5d32000 	ldrb	r2, [r3]
30001f28:	e59f3074 	ldr	r3, [pc, #116]	@ 30001fa4 <OSIntExit+0x14c>
30001f2c:	e5d33000 	ldrb	r3, [r3]
30001f30:	e1520003 	cmp	r2, r3
30001f34:	0a00000c 	beq	30001f6c <OSIntExit+0x114>
                OSTCBHighRdy  = OSTCBPrioTbl[OSPrioHighRdy];
30001f38:	e59f3060 	ldr	r3, [pc, #96]	@ 30001fa0 <OSIntExit+0x148>
30001f3c:	e5d33000 	ldrb	r3, [r3]
30001f40:	e1a02003 	mov	r2, r3
30001f44:	e59f305c 	ldr	r3, [pc, #92]	@ 30001fa8 <OSIntExit+0x150>
30001f48:	e7933102 	ldr	r3, [r3, r2, lsl #2]
30001f4c:	e59f2058 	ldr	r2, [pc, #88]	@ 30001fac <OSIntExit+0x154>
30001f50:	e5823000 	str	r3, [r2]
                OSCtxSwCtr++;                              // 跟踪上下文切换的次数
30001f54:	e59f3054 	ldr	r3, [pc, #84]	@ 30001fb0 <OSIntExit+0x158>
30001f58:	e5933000 	ldr	r3, [r3]
30001f5c:	e2833001 	add	r3, r3, #1
30001f60:	e59f2048 	ldr	r2, [pc, #72]	@ 30001fb0 <OSIntExit+0x158>
30001f64:	e5823000 	str	r3, [r2]
                OSIntCtxSw();                              // 执行中断级上下文切换
30001f68:	ebfff935 	bl	30000444 <OSIntCtxSw>
            }
        }
    OS_EXIT_CRITICAL();
30001f6c:	e51b0008 	ldr	r0, [fp, #-8]
30001f70:	ebfff915 	bl	300003cc <OS_CPU_SR_Restore>
    }
}
30001f74:	e1a00000 	nop			@ (mov r0, r0)
30001f78:	e24bd004 	sub	sp, fp, #4
30001f7c:	e8bd4800 	pop	{fp, lr}
30001f80:	e12fff1e 	bx	lr
30001f84:	3000aca0 	.word	0x3000aca0
30001f88:	3000ac90 	.word	0x3000ac90
30001f8c:	3000ac92 	.word	0x3000ac92
30001f90:	3000ac95 	.word	0x3000ac95
30001f94:	300080c0 	.word	0x300080c0
30001f98:	3000ac91 	.word	0x3000ac91
30001f9c:	3000ac98 	.word	0x3000ac98
30001fa0:	3000ac94 	.word	0x3000ac94
30001fa4:	3000ac93 	.word	0x3000ac93
30001fa8:	3000b5c8 	.word	0x3000b5c8
30001fac:	3000b5c0 	.word	0x3000b5c0
30001fb0:	3000aca4 	.word	0x3000aca4

30001fb4 <OSSchedLock>:


//调度锁
void OSSchedLock(void){
30001fb4:	e92d4800 	push	{fp, lr}
30001fb8:	e28db004 	add	fp, sp, #4
30001fbc:	e24dd008 	sub	sp, sp, #8
    OS_CPU_SR   cpu_sr;                                         
    if(OSRunning == FALSE){
30001fc0:	e59f3054 	ldr	r3, [pc, #84]	@ 3000201c <OSSchedLock+0x68>
30001fc4:	e5d33000 	ldrb	r3, [r3]
30001fc8:	e3530000 	cmp	r3, #0
30001fcc:	0a00000e 	beq	3000200c <OSSchedLock+0x58>
        return;
    }
    else{
        OS_ENTER_CRITICAL();
30001fd0:	ebfff8f9 	bl	300003bc <OS_CPU_SR_Save>
30001fd4:	e50b0008 	str	r0, [fp, #-8]
        if(OSLockNesting < 255){
30001fd8:	e59f3040 	ldr	r3, [pc, #64]	@ 30002020 <OSSchedLock+0x6c>
30001fdc:	e5d33000 	ldrb	r3, [r3]
30001fe0:	e35300ff 	cmp	r3, #255	@ 0xff
30001fe4:	0a000005 	beq	30002000 <OSSchedLock+0x4c>
            OSLockNesting++; 
30001fe8:	e59f3030 	ldr	r3, [pc, #48]	@ 30002020 <OSSchedLock+0x6c>
30001fec:	e5d33000 	ldrb	r3, [r3]
30001ff0:	e2833001 	add	r3, r3, #1
30001ff4:	e20320ff 	and	r2, r3, #255	@ 0xff
30001ff8:	e59f3020 	ldr	r3, [pc, #32]	@ 30002020 <OSSchedLock+0x6c>
30001ffc:	e5c32000 	strb	r2, [r3]
        }
        OS_EXIT_CRITICAL();
30002000:	e51b0008 	ldr	r0, [fp, #-8]
30002004:	ebfff8f0 	bl	300003cc <OS_CPU_SR_Restore>
30002008:	ea000000 	b	30002010 <OSSchedLock+0x5c>
        return;
3000200c:	e1a00000 	nop			@ (mov r0, r0)
    }
}
30002010:	e24bd004 	sub	sp, fp, #4
30002014:	e8bd4800 	pop	{fp, lr}
30002018:	e12fff1e 	bx	lr
3000201c:	3000aca0 	.word	0x3000aca0
30002020:	3000ac92 	.word	0x3000ac92

30002024 <OSSchedUnlock>:

//关闭调度锁
void OSSchedUnlock(void){
30002024:	e92d4800 	push	{fp, lr}
30002028:	e28db004 	add	fp, sp, #4
3000202c:	e24dd008 	sub	sp, sp, #8
    OS_CPU_SR   cpu_sr;                                         
    if(OSRunning == TRUE){
30002030:	e59f308c 	ldr	r3, [pc, #140]	@ 300020c4 <OSSchedUnlock+0xa0>
30002034:	e5d33000 	ldrb	r3, [r3]
30002038:	e3530001 	cmp	r3, #1
3000203c:	1a00001c 	bne	300020b4 <OSSchedUnlock+0x90>
        OS_ENTER_CRITICAL();
30002040:	ebfff8dd 	bl	300003bc <OS_CPU_SR_Save>
30002044:	e50b0008 	str	r0, [fp, #-8]
        if(OSLockNesting > 0){
30002048:	e59f3078 	ldr	r3, [pc, #120]	@ 300020c8 <OSSchedUnlock+0xa4>
3000204c:	e5d33000 	ldrb	r3, [r3]
30002050:	e3530000 	cmp	r3, #0
30002054:	0a000014 	beq	300020ac <OSSchedUnlock+0x88>
            OSLockNesting--; 
30002058:	e59f3068 	ldr	r3, [pc, #104]	@ 300020c8 <OSSchedUnlock+0xa4>
3000205c:	e5d33000 	ldrb	r3, [r3]
30002060:	e2433001 	sub	r3, r3, #1
30002064:	e20320ff 	and	r2, r3, #255	@ 0xff
30002068:	e59f3058 	ldr	r3, [pc, #88]	@ 300020c8 <OSSchedUnlock+0xa4>
3000206c:	e5c32000 	strb	r2, [r3]
            if((OSLockNesting == 0) && (OSIntNesting == 0)){
30002070:	e59f3050 	ldr	r3, [pc, #80]	@ 300020c8 <OSSchedUnlock+0xa4>
30002074:	e5d33000 	ldrb	r3, [r3]
30002078:	e3530000 	cmp	r3, #0
3000207c:	1a000007 	bne	300020a0 <OSSchedUnlock+0x7c>
30002080:	e59f3044 	ldr	r3, [pc, #68]	@ 300020cc <OSSchedUnlock+0xa8>
30002084:	e5d33000 	ldrb	r3, [r3]
30002088:	e3530000 	cmp	r3, #0
3000208c:	1a000003 	bne	300020a0 <OSSchedUnlock+0x7c>
                OS_EXIT_CRITICAL();
30002090:	e51b0008 	ldr	r0, [fp, #-8]
30002094:	ebfff8cc 	bl	300003cc <OS_CPU_SR_Restore>
                OS_Sched();
30002098:	eb000227 	bl	3000293c <OS_Sched>
        }
        else{
            OS_EXIT_CRITICAL();
        }
    }
}
3000209c:	ea000004 	b	300020b4 <OSSchedUnlock+0x90>
                OS_EXIT_CRITICAL();
300020a0:	e51b0008 	ldr	r0, [fp, #-8]
300020a4:	ebfff8c8 	bl	300003cc <OS_CPU_SR_Restore>
}
300020a8:	ea000001 	b	300020b4 <OSSchedUnlock+0x90>
            OS_EXIT_CRITICAL();
300020ac:	e51b0008 	ldr	r0, [fp, #-8]
300020b0:	ebfff8c5 	bl	300003cc <OS_CPU_SR_Restore>
}
300020b4:	e1a00000 	nop			@ (mov r0, r0)
300020b8:	e24bd004 	sub	sp, fp, #4
300020bc:	e8bd4800 	pop	{fp, lr}
300020c0:	e12fff1e 	bx	lr
300020c4:	3000aca0 	.word	0x3000aca0
300020c8:	3000ac92 	.word	0x3000ac92
300020cc:	3000ac90 	.word	0x3000ac90

300020d0 <OSStart>:

//多任务系统开始运行
void  OSStart (void)
{
300020d0:	e92d4800 	push	{fp, lr}
300020d4:	e28db004 	add	fp, sp, #4
300020d8:	e24dd008 	sub	sp, sp, #8
    INT8U y;
    INT8U x;
    if (OSRunning == FALSE) {
300020dc:	e59f30ac 	ldr	r3, [pc, #172]	@ 30002190 <OSStart+0xc0>
300020e0:	e5d33000 	ldrb	r3, [r3]
300020e4:	e3530000 	cmp	r3, #0
300020e8:	1a000024 	bne	30002180 <OSStart+0xb0>
        y             = OSUnMapTbl[OSRdyGrp];        
300020ec:	e59f30a0 	ldr	r3, [pc, #160]	@ 30002194 <OSStart+0xc4>
300020f0:	e5d33000 	ldrb	r3, [r3]
300020f4:	e1a02003 	mov	r2, r3
300020f8:	e59f3098 	ldr	r3, [pc, #152]	@ 30002198 <OSStart+0xc8>
300020fc:	e7d33002 	ldrb	r3, [r3, r2]
30002100:	e54b3005 	strb	r3, [fp, #-5]
        x             = OSUnMapTbl[OSRdyTbl[y]];
30002104:	e55b3005 	ldrb	r3, [fp, #-5]
30002108:	e59f208c 	ldr	r2, [pc, #140]	@ 3000219c <OSStart+0xcc>
3000210c:	e7d23003 	ldrb	r3, [r2, r3]
30002110:	e1a02003 	mov	r2, r3
30002114:	e59f307c 	ldr	r3, [pc, #124]	@ 30002198 <OSStart+0xc8>
30002118:	e7d33002 	ldrb	r3, [r3, r2]
3000211c:	e54b3006 	strb	r3, [fp, #-6]
        OSPrioHighRdy = (INT8U)((y << 3) + x);
30002120:	e55b3005 	ldrb	r3, [fp, #-5]
30002124:	e1a03183 	lsl	r3, r3, #3
30002128:	e20320ff 	and	r2, r3, #255	@ 0xff
3000212c:	e55b3006 	ldrb	r3, [fp, #-6]
30002130:	e0823003 	add	r3, r2, r3
30002134:	e20320ff 	and	r2, r3, #255	@ 0xff
30002138:	e59f3060 	ldr	r3, [pc, #96]	@ 300021a0 <OSStart+0xd0>
3000213c:	e5c32000 	strb	r2, [r3]
        OSPrioCur     = OSPrioHighRdy;
30002140:	e59f3058 	ldr	r3, [pc, #88]	@ 300021a0 <OSStart+0xd0>
30002144:	e5d32000 	ldrb	r2, [r3]
30002148:	e59f3054 	ldr	r3, [pc, #84]	@ 300021a4 <OSStart+0xd4>
3000214c:	e5c32000 	strb	r2, [r3]
        OSTCBHighRdy  = OSTCBPrioTbl[OSPrioHighRdy]; 
30002150:	e59f3048 	ldr	r3, [pc, #72]	@ 300021a0 <OSStart+0xd0>
30002154:	e5d33000 	ldrb	r3, [r3]
30002158:	e1a02003 	mov	r2, r3
3000215c:	e59f3044 	ldr	r3, [pc, #68]	@ 300021a8 <OSStart+0xd8>
30002160:	e7933102 	ldr	r3, [r3, r2, lsl #2]
30002164:	e59f2040 	ldr	r2, [pc, #64]	@ 300021ac <OSStart+0xdc>
30002168:	e5823000 	str	r3, [r2]
        OSTCBCur      = OSTCBHighRdy;
3000216c:	e59f3038 	ldr	r3, [pc, #56]	@ 300021ac <OSStart+0xdc>
30002170:	e5933000 	ldr	r3, [r3]
30002174:	e59f2034 	ldr	r2, [pc, #52]	@ 300021b0 <OSStart+0xe0>
30002178:	e5823000 	str	r3, [r2]
        OSStartHighRdy();                            
3000217c:	ebfff894 	bl	300003d4 <OSStartHighRdy>
    }
}
30002180:	e1a00000 	nop			@ (mov r0, r0)
30002184:	e24bd004 	sub	sp, fp, #4
30002188:	e8bd4800 	pop	{fp, lr}
3000218c:	e12fff1e 	bx	lr
30002190:	3000aca0 	.word	0x3000aca0
30002194:	3000ac95 	.word	0x3000ac95
30002198:	300080c0 	.word	0x300080c0
3000219c:	3000ac98 	.word	0x3000ac98
300021a0:	3000ac94 	.word	0x3000ac94
300021a4:	3000ac93 	.word	0x3000ac93
300021a8:	3000b5c8 	.word	0x3000b5c8
300021ac:	3000b5c0 	.word	0x3000b5c0
300021b0:	3000b5b8 	.word	0x3000b5b8

300021b4 <OSStatInit>:

//系统状态初始化
void  OSStatInit (void)
{
300021b4:	e92d4800 	push	{fp, lr}
300021b8:	e28db004 	add	fp, sp, #4
300021bc:	e24dd008 	sub	sp, sp, #8
    OS_CPU_SR  cpu_sr;
  
    OSTimeDly(2);                                // 与时钟滴答同步
300021c0:	e3a00002 	mov	r0, #2
300021c4:	eb001545 	bl	300076e0 <OSTimeDly>
    OS_ENTER_CRITICAL();
300021c8:	ebfff87b 	bl	300003bc <OS_CPU_SR_Save>
300021cc:	e50b0008 	str	r0, [fp, #-8]
    OSIdleCtr    = 0L;                           // 清除空闲计数器
300021d0:	e59f3050 	ldr	r3, [pc, #80]	@ 30002228 <OSStatInit+0x74>
300021d4:	e3a02000 	mov	r2, #0
300021d8:	e5832000 	str	r2, [r3]
    OS_EXIT_CRITICAL();
300021dc:	e51b0008 	ldr	r0, [fp, #-8]
300021e0:	ebfff879 	bl	300003cc <OS_CPU_SR_Restore>
    OSTimeDly(OS_TICKS_PER_SEC);                 // 确定 1 秒内的最大空闲计数器值
300021e4:	e3a00032 	mov	r0, #50	@ 0x32
300021e8:	eb00153c 	bl	300076e0 <OSTimeDly>
    OS_ENTER_CRITICAL();
300021ec:	ebfff872 	bl	300003bc <OS_CPU_SR_Save>
300021f0:	e50b0008 	str	r0, [fp, #-8]
    OSIdleCtrMax = OSIdleCtr;                    // 存储 1 秒内的最大空闲计数器计数
300021f4:	e59f302c 	ldr	r3, [pc, #44]	@ 30002228 <OSStatInit+0x74>
300021f8:	e5933000 	ldr	r3, [r3]
300021fc:	e59f2028 	ldr	r2, [pc, #40]	@ 3000222c <OSStatInit+0x78>
30002200:	e5823000 	str	r3, [r2]
    OSStatRdy    = TRUE;
30002204:	e59f3024 	ldr	r3, [pc, #36]	@ 30002230 <OSStatInit+0x7c>
30002208:	e3a02001 	mov	r2, #1
3000220c:	e5c32000 	strb	r2, [r3]
    OS_EXIT_CRITICAL();
30002210:	e51b0008 	ldr	r0, [fp, #-8]
30002214:	ebfff86c 	bl	300003cc <OS_CPU_SR_Restore>
}
30002218:	e1a00000 	nop			@ (mov r0, r0)
3000221c:	e24bd004 	sub	sp, fp, #4
30002220:	e8bd4800 	pop	{fp, lr}
30002224:	e12fff1e 	bx	lr
30002228:	3000aca8 	.word	0x3000aca8
3000222c:	3000acb0 	.word	0x3000acb0
30002230:	3000acb4 	.word	0x3000acb4

30002234 <OSTimeTick>:

//系统滴答
void  OSTimeTick (void)
{
30002234:	e92d4800 	push	{fp, lr}
30002238:	e28db004 	add	fp, sp, #4
3000223c:	e24dd008 	sub	sp, sp, #8
                              
    OS_CPU_SR  cpu_sr;
    OS_TCB    *ptcb;
    OSTimeTickHook();
30002240:	ebfffb1c 	bl	30000eb8 <OSTimeTickHook>
                                          
    OS_ENTER_CRITICAL();                                   
30002244:	ebfff85c 	bl	300003bc <OS_CPU_SR_Save>
30002248:	e50b000c 	str	r0, [fp, #-12]
    OSTime++;
3000224c:	e59f3124 	ldr	r3, [pc, #292]	@ 30002378 <OSTimeTick+0x144>
30002250:	e5933000 	ldr	r3, [r3]
30002254:	e2833001 	add	r3, r3, #1
30002258:	e59f2118 	ldr	r2, [pc, #280]	@ 30002378 <OSTimeTick+0x144>
3000225c:	e5823000 	str	r3, [r2]
    OS_EXIT_CRITICAL();
30002260:	e51b000c 	ldr	r0, [fp, #-12]
30002264:	ebfff858 	bl	300003cc <OS_CPU_SR_Restore>

    if (OSRunning == TRUE) {    
30002268:	e59f310c 	ldr	r3, [pc, #268]	@ 3000237c <OSTimeTick+0x148>
3000226c:	e5d33000 	ldrb	r3, [r3]
30002270:	e3530001 	cmp	r3, #1
30002274:	1a00003b 	bne	30002368 <OSTimeTick+0x134>
        ptcb = OSTCBList;                                  
30002278:	e59f3100 	ldr	r3, [pc, #256]	@ 30002380 <OSTimeTick+0x14c>
3000227c:	e5933000 	ldr	r3, [r3]
30002280:	e50b3008 	str	r3, [fp, #-8]
        while (ptcb->OSTCBPrio != OS_IDLE_PRIO) {          
30002284:	ea000033 	b	30002358 <OSTimeTick+0x124>
            OS_ENTER_CRITICAL();
30002288:	ebfff84b 	bl	300003bc <OS_CPU_SR_Save>
3000228c:	e50b000c 	str	r0, [fp, #-12]
            if (ptcb->OSTCBDly != 0) {                     
30002290:	e51b3008 	ldr	r3, [fp, #-8]
30002294:	e1d331bc 	ldrh	r3, [r3, #28]
30002298:	e3530000 	cmp	r3, #0
3000229c:	0a000028 	beq	30002344 <OSTimeTick+0x110>
                if (--ptcb->OSTCBDly == 0) {               
300022a0:	e51b3008 	ldr	r3, [fp, #-8]
300022a4:	e1d331bc 	ldrh	r3, [r3, #28]
300022a8:	e2433001 	sub	r3, r3, #1
300022ac:	e1a03803 	lsl	r3, r3, #16
300022b0:	e1a02823 	lsr	r2, r3, #16
300022b4:	e51b3008 	ldr	r3, [fp, #-8]
300022b8:	e1c321bc 	strh	r2, [r3, #28]
300022bc:	e51b3008 	ldr	r3, [fp, #-8]
300022c0:	e1d331bc 	ldrh	r3, [r3, #28]
300022c4:	e3530000 	cmp	r3, #0
300022c8:	1a00001d 	bne	30002344 <OSTimeTick+0x110>
                    if ((ptcb->OSTCBStat & OS_STAT_SUSPEND) == OS_STAT_RDY) {
300022cc:	e51b3008 	ldr	r3, [fp, #-8]
300022d0:	e5d3301f 	ldrb	r3, [r3, #31]
300022d4:	e2033008 	and	r3, r3, #8
300022d8:	e3530000 	cmp	r3, #0
300022dc:	1a000015 	bne	30002338 <OSTimeTick+0x104>
                        OSRdyGrp               |= ptcb->OSTCBBitY; 
300022e0:	e51b3008 	ldr	r3, [fp, #-8]
300022e4:	e5d32023 	ldrb	r2, [r3, #35]	@ 0x23
300022e8:	e59f3094 	ldr	r3, [pc, #148]	@ 30002384 <OSTimeTick+0x150>
300022ec:	e5d33000 	ldrb	r3, [r3]
300022f0:	e1823003 	orr	r3, r2, r3
300022f4:	e20320ff 	and	r2, r3, #255	@ 0xff
300022f8:	e59f3084 	ldr	r3, [pc, #132]	@ 30002384 <OSTimeTick+0x150>
300022fc:	e5c32000 	strb	r2, [r3]
                        OSRdyTbl[ptcb->OSTCBY] |= ptcb->OSTCBBitX;
30002300:	e51b3008 	ldr	r3, [fp, #-8]
30002304:	e5d33021 	ldrb	r3, [r3, #33]	@ 0x21
30002308:	e1a02003 	mov	r2, r3
3000230c:	e59f3074 	ldr	r3, [pc, #116]	@ 30002388 <OSTimeTick+0x154>
30002310:	e7d32002 	ldrb	r2, [r3, r2]
30002314:	e51b3008 	ldr	r3, [fp, #-8]
30002318:	e5d33022 	ldrb	r3, [r3, #34]	@ 0x22
3000231c:	e51b1008 	ldr	r1, [fp, #-8]
30002320:	e5d11021 	ldrb	r1, [r1, #33]	@ 0x21
30002324:	e1823003 	orr	r3, r2, r3
30002328:	e20320ff 	and	r2, r3, #255	@ 0xff
3000232c:	e59f3054 	ldr	r3, [pc, #84]	@ 30002388 <OSTimeTick+0x154>
30002330:	e7c32001 	strb	r2, [r3, r1]
30002334:	ea000002 	b	30002344 <OSTimeTick+0x110>
                    } else {  
                        ptcb->OSTCBDly = 1;  
30002338:	e51b3008 	ldr	r3, [fp, #-8]
3000233c:	e3a02001 	mov	r2, #1
30002340:	e1c321bc 	strh	r2, [r3, #28]
                    }    
                }
            }
            ptcb = ptcb->OSTCBNext;
30002344:	e51b3008 	ldr	r3, [fp, #-8]
30002348:	e5933008 	ldr	r3, [r3, #8]
3000234c:	e50b3008 	str	r3, [fp, #-8]
            OS_EXIT_CRITICAL();
30002350:	e51b000c 	ldr	r0, [fp, #-12]
30002354:	ebfff81c 	bl	300003cc <OS_CPU_SR_Restore>
        while (ptcb->OSTCBPrio != OS_IDLE_PRIO) {          
30002358:	e51b3008 	ldr	r3, [fp, #-8]
3000235c:	e5d3301e 	ldrb	r3, [r3, #30]
30002360:	e353003e 	cmp	r3, #62	@ 0x3e
30002364:	1affffc7 	bne	30002288 <OSTimeTick+0x54>
        }
    }
}
30002368:	e1a00000 	nop			@ (mov r0, r0)
3000236c:	e24bd004 	sub	sp, fp, #4
30002370:	e8bd4800 	pop	{fp, lr}
30002374:	e12fff1e 	bx	lr
30002378:	3000ac8c 	.word	0x3000ac8c
3000237c:	3000aca0 	.word	0x3000aca0
30002380:	3000b5c4 	.word	0x3000b5c4
30002384:	3000ac95 	.word	0x3000ac95
30002388:	3000ac98 	.word	0x3000ac98

3000238c <OS_Dummy>:

//空函数
void OS_Dummy(void){
3000238c:	e52db004 	push	{fp}		@ (str fp, [sp, #-4]!)
30002390:	e28db000 	add	fp, sp, #0

}
30002394:	e1a00000 	nop			@ (mov r0, r0)
30002398:	e28bd000 	add	sp, fp, #0
3000239c:	e49db004 	pop	{fp}		@ (ldr fp, [sp], #4)
300023a0:	e12fff1e 	bx	lr

300023a4 <OS_EventTaskRdy>:

//事件触发任务就绪
INT8U OS_EventTaskRdy(OS_EVENT *pevent, void *msg, INT8U msk){
300023a4:	e52db004 	push	{fp}		@ (str fp, [sp, #-4]!)
300023a8:	e28db000 	add	fp, sp, #0
300023ac:	e24dd024 	sub	sp, sp, #36	@ 0x24
300023b0:	e50b0018 	str	r0, [fp, #-24]	@ 0xffffffe8
300023b4:	e50b101c 	str	r1, [fp, #-28]	@ 0xffffffe4
300023b8:	e1a03002 	mov	r3, r2
300023bc:	e54b301d 	strb	r3, [fp, #-29]	@ 0xffffffe3
    INT8U      X;
    INT8U      Y;
    INT8U      Bit_X;
    INT8U      Bit_Y;

    Y       = OSUnMapTbl[pevent->OSEventGrp];
300023c0:	e51b3018 	ldr	r3, [fp, #-24]	@ 0xffffffe8
300023c4:	e5d33001 	ldrb	r3, [r3, #1]
300023c8:	e1a02003 	mov	r2, r3
300023cc:	e59f318c 	ldr	r3, [pc, #396]	@ 30002560 <OS_EventTaskRdy+0x1bc>
300023d0:	e7d33002 	ldrb	r3, [r3, r2]
300023d4:	e54b3005 	strb	r3, [fp, #-5]
    Bit_Y   = OSMapTbl[Y];
300023d8:	e55b3005 	ldrb	r3, [fp, #-5]
300023dc:	e59f2180 	ldr	r2, [pc, #384]	@ 30002564 <OS_EventTaskRdy+0x1c0>
300023e0:	e7d23003 	ldrb	r3, [r2, r3]
300023e4:	e54b3006 	strb	r3, [fp, #-6]
    X       = OSUnMapTbl[pevent->OSEventTbl[Y]];
300023e8:	e55b3005 	ldrb	r3, [fp, #-5]
300023ec:	e51b2018 	ldr	r2, [fp, #-24]	@ 0xffffffe8
300023f0:	e0823003 	add	r3, r2, r3
300023f4:	e5d3300c 	ldrb	r3, [r3, #12]
300023f8:	e1a02003 	mov	r2, r3
300023fc:	e59f315c 	ldr	r3, [pc, #348]	@ 30002560 <OS_EventTaskRdy+0x1bc>
30002400:	e7d33002 	ldrb	r3, [r3, r2]
30002404:	e54b3007 	strb	r3, [fp, #-7]
    Bit_X   = OSMapTbl[X];
30002408:	e55b3007 	ldrb	r3, [fp, #-7]
3000240c:	e59f2150 	ldr	r2, [pc, #336]	@ 30002564 <OS_EventTaskRdy+0x1c0>
30002410:	e7d23003 	ldrb	r3, [r2, r3]
30002414:	e54b3008 	strb	r3, [fp, #-8]
    prio    = (INT8U)((Y << 3) + X);
30002418:	e55b3005 	ldrb	r3, [fp, #-5]
3000241c:	e1a03183 	lsl	r3, r3, #3
30002420:	e20320ff 	and	r2, r3, #255	@ 0xff
30002424:	e55b3007 	ldrb	r3, [fp, #-7]
30002428:	e0823003 	add	r3, r2, r3
3000242c:	e54b3009 	strb	r3, [fp, #-9]
    if((pevent->OSEventTbl[Y] & ~Bit_X) == 0x00){ // 检查事件表中是否有任务等待
30002430:	e55b3005 	ldrb	r3, [fp, #-5]
30002434:	e51b2018 	ldr	r2, [fp, #-24]	@ 0xffffffe8
30002438:	e0823003 	add	r3, r2, r3
3000243c:	e5d3300c 	ldrb	r3, [r3, #12]
30002440:	e1a02003 	mov	r2, r3
30002444:	e55b3008 	ldrb	r3, [fp, #-8]
30002448:	e1e03003 	mvn	r3, r3
3000244c:	e0033002 	and	r3, r3, r2
30002450:	e3530000 	cmp	r3, #0
30002454:	1a00000d 	bne	30002490 <OS_EventTaskRdy+0xec>
        pevent->OSEventGrp &= ~Bit_Y; // 清除就绪组
30002458:	e51b3018 	ldr	r3, [fp, #-24]	@ 0xffffffe8
3000245c:	e5d33001 	ldrb	r3, [r3, #1]
30002460:	e1a03c03 	lsl	r3, r3, #24
30002464:	e1a02c43 	asr	r2, r3, #24
30002468:	e15b30d6 	ldrsb	r3, [fp, #-6]
3000246c:	e1e03003 	mvn	r3, r3
30002470:	e1a03c03 	lsl	r3, r3, #24
30002474:	e1a03c43 	asr	r3, r3, #24
30002478:	e0033002 	and	r3, r3, r2
3000247c:	e1a03c03 	lsl	r3, r3, #24
30002480:	e1a03c43 	asr	r3, r3, #24
30002484:	e20320ff 	and	r2, r3, #255	@ 0xff
30002488:	e51b3018 	ldr	r3, [fp, #-24]	@ 0xffffffe8
3000248c:	e5c32001 	strb	r2, [r3, #1]
    }
    ptcb = OSTCBPrioTbl[prio]; // 获取任务控制块
30002490:	e55b3009 	ldrb	r3, [fp, #-9]
30002494:	e59f20cc 	ldr	r2, [pc, #204]	@ 30002568 <OS_EventTaskRdy+0x1c4>
30002498:	e7923103 	ldr	r3, [r2, r3, lsl #2]
3000249c:	e50b3010 	str	r3, [fp, #-16]
    ptcb->OSTCBDly      = 0; // 清除延迟
300024a0:	e51b3010 	ldr	r3, [fp, #-16]
300024a4:	e3a02000 	mov	r2, #0
300024a8:	e1c321bc 	strh	r2, [r3, #28]
    ptcb->OSTCBEventPtr = (OS_EVENT *)0; // 清除事件指针
300024ac:	e51b3010 	ldr	r3, [fp, #-16]
300024b0:	e3a02000 	mov	r2, #0
300024b4:	e583200c 	str	r2, [r3, #12]
    ptcb->OSTCBMsg      = msg; // 设置消息
300024b8:	e51b3010 	ldr	r3, [fp, #-16]
300024bc:	e51b201c 	ldr	r2, [fp, #-28]	@ 0xffffffe4
300024c0:	e5832010 	str	r2, [r3, #16]
    msg = msg; // 防止未使用变量警告
    ptcb->OSTCBStat     &= ~msk; // 清除任务状态
300024c4:	e51b3010 	ldr	r3, [fp, #-16]
300024c8:	e5d3301f 	ldrb	r3, [r3, #31]
300024cc:	e1a03c03 	lsl	r3, r3, #24
300024d0:	e1a02c43 	asr	r2, r3, #24
300024d4:	e15b31dd 	ldrsb	r3, [fp, #-29]	@ 0xffffffe3
300024d8:	e1e03003 	mvn	r3, r3
300024dc:	e1a03c03 	lsl	r3, r3, #24
300024e0:	e1a03c43 	asr	r3, r3, #24
300024e4:	e0033002 	and	r3, r3, r2
300024e8:	e1a03c03 	lsl	r3, r3, #24
300024ec:	e1a03c43 	asr	r3, r3, #24
300024f0:	e20320ff 	and	r2, r3, #255	@ 0xff
300024f4:	e51b3010 	ldr	r3, [fp, #-16]
300024f8:	e5c3201f 	strb	r2, [r3, #31]
    if(ptcb->OSTCBStat == OS_STAT_RDY){ // 如果任务是就绪状态
300024fc:	e51b3010 	ldr	r3, [fp, #-16]
30002500:	e5d3301f 	ldrb	r3, [r3, #31]
30002504:	e3530000 	cmp	r3, #0
30002508:	1a00000f 	bne	3000254c <OS_EventTaskRdy+0x1a8>
        OSRdyGrp    |= Bit_Y; // 设置就绪组
3000250c:	e59f3058 	ldr	r3, [pc, #88]	@ 3000256c <OS_EventTaskRdy+0x1c8>
30002510:	e5d32000 	ldrb	r2, [r3]
30002514:	e55b3006 	ldrb	r3, [fp, #-6]
30002518:	e1823003 	orr	r3, r2, r3
3000251c:	e20320ff 	and	r2, r3, #255	@ 0xff
30002520:	e59f3044 	ldr	r3, [pc, #68]	@ 3000256c <OS_EventTaskRdy+0x1c8>
30002524:	e5c32000 	strb	r2, [r3]
        OSRdyTbl[Y] |= Bit_X; // 设置就绪表
30002528:	e55b3005 	ldrb	r3, [fp, #-5]
3000252c:	e59f203c 	ldr	r2, [pc, #60]	@ 30002570 <OS_EventTaskRdy+0x1cc>
30002530:	e7d21003 	ldrb	r1, [r2, r3]
30002534:	e55b3005 	ldrb	r3, [fp, #-5]
30002538:	e55b2008 	ldrb	r2, [fp, #-8]
3000253c:	e1812002 	orr	r2, r1, r2
30002540:	e20210ff 	and	r1, r2, #255	@ 0xff
30002544:	e59f2024 	ldr	r2, [pc, #36]	@ 30002570 <OS_EventTaskRdy+0x1cc>
30002548:	e7c21003 	strb	r1, [r2, r3]
    }
    return(prio); // 返回任务优先级
3000254c:	e55b3009 	ldrb	r3, [fp, #-9]
}
30002550:	e1a00003 	mov	r0, r3
30002554:	e28bd000 	add	sp, fp, #0
30002558:	e49db004 	pop	{fp}		@ (ldr fp, [sp], #4)
3000255c:	e12fff1e 	bx	lr
30002560:	300080c0 	.word	0x300080c0
30002564:	300080b8 	.word	0x300080b8
30002568:	3000b5c8 	.word	0x3000b5c8
3000256c:	3000ac95 	.word	0x3000ac95
30002570:	3000ac98 	.word	0x3000ac98

30002574 <OS_EventTaskWait>:

//任务等待事件发生
void OS_EventTaskWait(OS_EVENT *pevent){
30002574:	e52db004 	push	{fp}		@ (str fp, [sp, #-4]!)
30002578:	e28db000 	add	fp, sp, #0
3000257c:	e24dd00c 	sub	sp, sp, #12
30002580:	e50b0008 	str	r0, [fp, #-8]
    OSTCBCur->OSTCBEventPtr = pevent; // 设置任务等待的事件
30002584:	e59f3140 	ldr	r3, [pc, #320]	@ 300026cc <OS_EventTaskWait+0x158>
30002588:	e5933000 	ldr	r3, [r3]
3000258c:	e51b2008 	ldr	r2, [fp, #-8]
30002590:	e583200c 	str	r2, [r3, #12]
    if((OSRdyTbl[OSTCBCur->OSTCBY] &= ~OSTCBCur->OSTCBBitX) == 0x00){
30002594:	e59f3130 	ldr	r3, [pc, #304]	@ 300026cc <OS_EventTaskWait+0x158>
30002598:	e5933000 	ldr	r3, [r3]
3000259c:	e5d33021 	ldrb	r3, [r3, #33]	@ 0x21
300025a0:	e1a02003 	mov	r2, r3
300025a4:	e59f3124 	ldr	r3, [pc, #292]	@ 300026d0 <OS_EventTaskWait+0x15c>
300025a8:	e7d33002 	ldrb	r3, [r3, r2]
300025ac:	e1a03c03 	lsl	r3, r3, #24
300025b0:	e1a02c43 	asr	r2, r3, #24
300025b4:	e59f3110 	ldr	r3, [pc, #272]	@ 300026cc <OS_EventTaskWait+0x158>
300025b8:	e5933000 	ldr	r3, [r3]
300025bc:	e5d33022 	ldrb	r3, [r3, #34]	@ 0x22
300025c0:	e1a03c03 	lsl	r3, r3, #24
300025c4:	e1a03c43 	asr	r3, r3, #24
300025c8:	e1e03003 	mvn	r3, r3
300025cc:	e1a03c03 	lsl	r3, r3, #24
300025d0:	e1a03c43 	asr	r3, r3, #24
300025d4:	e0033002 	and	r3, r3, r2
300025d8:	e1a03c03 	lsl	r3, r3, #24
300025dc:	e1a02c43 	asr	r2, r3, #24
300025e0:	e59f30e4 	ldr	r3, [pc, #228]	@ 300026cc <OS_EventTaskWait+0x158>
300025e4:	e5933000 	ldr	r3, [r3]
300025e8:	e5d33021 	ldrb	r3, [r3, #33]	@ 0x21
300025ec:	e20210ff 	and	r1, r2, #255	@ 0xff
300025f0:	e59f20d8 	ldr	r2, [pc, #216]	@ 300026d0 <OS_EventTaskWait+0x15c>
300025f4:	e7c21003 	strb	r1, [r2, r3]
300025f8:	e59f20d0 	ldr	r2, [pc, #208]	@ 300026d0 <OS_EventTaskWait+0x15c>
300025fc:	e7d23003 	ldrb	r3, [r2, r3]
30002600:	e3530000 	cmp	r3, #0
30002604:	1a000011 	bne	30002650 <OS_EventTaskWait+0xdc>
        OSRdyGrp &= ~OSTCBCur->OSTCBBitY; // 如果就绪表中没有任务，清除就绪组        
30002608:	e59f30bc 	ldr	r3, [pc, #188]	@ 300026cc <OS_EventTaskWait+0x158>
3000260c:	e5933000 	ldr	r3, [r3]
30002610:	e5d33023 	ldrb	r3, [r3, #35]	@ 0x23
30002614:	e1a03c03 	lsl	r3, r3, #24
30002618:	e1a03c43 	asr	r3, r3, #24
3000261c:	e1e03003 	mvn	r3, r3
30002620:	e1a03c03 	lsl	r3, r3, #24
30002624:	e1a02c43 	asr	r2, r3, #24
30002628:	e59f30a4 	ldr	r3, [pc, #164]	@ 300026d4 <OS_EventTaskWait+0x160>
3000262c:	e5d33000 	ldrb	r3, [r3]
30002630:	e1a03c03 	lsl	r3, r3, #24
30002634:	e1a03c43 	asr	r3, r3, #24
30002638:	e0033002 	and	r3, r3, r2
3000263c:	e1a03c03 	lsl	r3, r3, #24
30002640:	e1a03c43 	asr	r3, r3, #24
30002644:	e20320ff 	and	r2, r3, #255	@ 0xff
30002648:	e59f3084 	ldr	r3, [pc, #132]	@ 300026d4 <OS_EventTaskWait+0x160>
3000264c:	e5c32000 	strb	r2, [r3]
    }
    pevent->OSEventTbl[OSTCBCur->OSTCBY] |= OSTCBCur->OSTCBBitX; // 设置事件表
30002650:	e59f3074 	ldr	r3, [pc, #116]	@ 300026cc <OS_EventTaskWait+0x158>
30002654:	e5933000 	ldr	r3, [r3]
30002658:	e5d33021 	ldrb	r3, [r3, #33]	@ 0x21
3000265c:	e1a02003 	mov	r2, r3
30002660:	e51b3008 	ldr	r3, [fp, #-8]
30002664:	e0833002 	add	r3, r3, r2
30002668:	e5d3200c 	ldrb	r2, [r3, #12]
3000266c:	e59f3058 	ldr	r3, [pc, #88]	@ 300026cc <OS_EventTaskWait+0x158>
30002670:	e5933000 	ldr	r3, [r3]
30002674:	e5d33022 	ldrb	r3, [r3, #34]	@ 0x22
30002678:	e59f104c 	ldr	r1, [pc, #76]	@ 300026cc <OS_EventTaskWait+0x158>
3000267c:	e5911000 	ldr	r1, [r1]
30002680:	e5d11021 	ldrb	r1, [r1, #33]	@ 0x21
30002684:	e1823003 	orr	r3, r2, r3
30002688:	e20320ff 	and	r2, r3, #255	@ 0xff
3000268c:	e51b3008 	ldr	r3, [fp, #-8]
30002690:	e0833001 	add	r3, r3, r1
30002694:	e5c3200c 	strb	r2, [r3, #12]
    pevent->OSEventGrp |= OSTCBCur->OSTCBBitY;
30002698:	e51b3008 	ldr	r3, [fp, #-8]
3000269c:	e5d32001 	ldrb	r2, [r3, #1]
300026a0:	e59f3024 	ldr	r3, [pc, #36]	@ 300026cc <OS_EventTaskWait+0x158>
300026a4:	e5933000 	ldr	r3, [r3]
300026a8:	e5d33023 	ldrb	r3, [r3, #35]	@ 0x23
300026ac:	e1823003 	orr	r3, r2, r3
300026b0:	e20320ff 	and	r2, r3, #255	@ 0xff
300026b4:	e51b3008 	ldr	r3, [fp, #-8]
300026b8:	e5c32001 	strb	r2, [r3, #1]
}
300026bc:	e1a00000 	nop			@ (mov r0, r0)
300026c0:	e28bd000 	add	sp, fp, #0
300026c4:	e49db004 	pop	{fp}		@ (ldr fp, [sp], #4)
300026c8:	e12fff1e 	bx	lr
300026cc:	3000b5b8 	.word	0x3000b5b8
300026d0:	3000ac98 	.word	0x3000ac98
300026d4:	3000ac95 	.word	0x3000ac95

300026d8 <OS_EventTO>:

//事件超时使任务就绪运行,TO: timeout
void OS_EventTO(OS_EVENT *pevent){
300026d8:	e52db004 	push	{fp}		@ (str fp, [sp, #-4]!)
300026dc:	e28db000 	add	fp, sp, #0
300026e0:	e24dd00c 	sub	sp, sp, #12
300026e4:	e50b0008 	str	r0, [fp, #-8]
    if((pevent->OSEventTbl[OSTCBCur->OSTCBY] &= ~OSTCBCur->OSTCBBitX) == 0x00){ // 检查事件表中是否有任务等待
300026e8:	e59f30f0 	ldr	r3, [pc, #240]	@ 300027e0 <OS_EventTO+0x108>
300026ec:	e5933000 	ldr	r3, [r3]
300026f0:	e5d33021 	ldrb	r3, [r3, #33]	@ 0x21
300026f4:	e1a02003 	mov	r2, r3
300026f8:	e51b3008 	ldr	r3, [fp, #-8]
300026fc:	e0833002 	add	r3, r3, r2
30002700:	e5d3300c 	ldrb	r3, [r3, #12]
30002704:	e1a03c03 	lsl	r3, r3, #24
30002708:	e1a02c43 	asr	r2, r3, #24
3000270c:	e59f30cc 	ldr	r3, [pc, #204]	@ 300027e0 <OS_EventTO+0x108>
30002710:	e5933000 	ldr	r3, [r3]
30002714:	e5d33022 	ldrb	r3, [r3, #34]	@ 0x22
30002718:	e1a03c03 	lsl	r3, r3, #24
3000271c:	e1a03c43 	asr	r3, r3, #24
30002720:	e1e03003 	mvn	r3, r3
30002724:	e1a03c03 	lsl	r3, r3, #24
30002728:	e1a03c43 	asr	r3, r3, #24
3000272c:	e0033002 	and	r3, r3, r2
30002730:	e1a03c03 	lsl	r3, r3, #24
30002734:	e1a02c43 	asr	r2, r3, #24
30002738:	e59f30a0 	ldr	r3, [pc, #160]	@ 300027e0 <OS_EventTO+0x108>
3000273c:	e5933000 	ldr	r3, [r3]
30002740:	e5d33021 	ldrb	r3, [r3, #33]	@ 0x21
30002744:	e20210ff 	and	r1, r2, #255	@ 0xff
30002748:	e51b2008 	ldr	r2, [fp, #-8]
3000274c:	e0822003 	add	r2, r2, r3
30002750:	e5c2100c 	strb	r1, [r2, #12]
30002754:	e51b2008 	ldr	r2, [fp, #-8]
30002758:	e0823003 	add	r3, r2, r3
3000275c:	e5d3300c 	ldrb	r3, [r3, #12]
30002760:	e3530000 	cmp	r3, #0
30002764:	1a000011 	bne	300027b0 <OS_EventTO+0xd8>
        pevent->OSEventGrp &= ~OSTCBCur->OSTCBBitY; // 清除就绪组
30002768:	e51b3008 	ldr	r3, [fp, #-8]
3000276c:	e5d33001 	ldrb	r3, [r3, #1]
30002770:	e1a03c03 	lsl	r3, r3, #24
30002774:	e1a02c43 	asr	r2, r3, #24
30002778:	e59f3060 	ldr	r3, [pc, #96]	@ 300027e0 <OS_EventTO+0x108>
3000277c:	e5933000 	ldr	r3, [r3]
30002780:	e5d33023 	ldrb	r3, [r3, #35]	@ 0x23
30002784:	e1a03c03 	lsl	r3, r3, #24
30002788:	e1a03c43 	asr	r3, r3, #24
3000278c:	e1e03003 	mvn	r3, r3
30002790:	e1a03c03 	lsl	r3, r3, #24
30002794:	e1a03c43 	asr	r3, r3, #24
30002798:	e0033002 	and	r3, r3, r2
3000279c:	e1a03c03 	lsl	r3, r3, #24
300027a0:	e1a03c43 	asr	r3, r3, #24
300027a4:	e20320ff 	and	r2, r3, #255	@ 0xff
300027a8:	e51b3008 	ldr	r3, [fp, #-8]
300027ac:	e5c32001 	strb	r2, [r3, #1]
    }
    OSTCBCur->OSTCBStat = OS_STAT_RDY; // 设置任务状态为就绪
300027b0:	e59f3028 	ldr	r3, [pc, #40]	@ 300027e0 <OS_EventTO+0x108>
300027b4:	e5933000 	ldr	r3, [r3]
300027b8:	e3a02000 	mov	r2, #0
300027bc:	e5c3201f 	strb	r2, [r3, #31]
    OSTCBCur->OSTCBEventPtr = (OS_EVENT *)0; // 清除任务等待的事件
300027c0:	e59f3018 	ldr	r3, [pc, #24]	@ 300027e0 <OS_EventTO+0x108>
300027c4:	e5933000 	ldr	r3, [r3]
300027c8:	e3a02000 	mov	r2, #0
300027cc:	e583200c 	str	r2, [r3, #12]
}
300027d0:	e1a00000 	nop			@ (mov r0, r0)
300027d4:	e28bd000 	add	sp, fp, #0
300027d8:	e49db004 	pop	{fp}		@ (ldr fp, [sp], #4)
300027dc:	e12fff1e 	bx	lr
300027e0:	3000b5b8 	.word	0x3000b5b8

300027e4 <OS_EventWaitListInit>:

//事件控制块等待列表初始化
void OS_EventWaitListInit(OS_EVENT *pevent){
300027e4:	e92d4800 	push	{fp, lr}
300027e8:	e28db004 	add	fp, sp, #4
300027ec:	e24dd008 	sub	sp, sp, #8
300027f0:	e50b0008 	str	r0, [fp, #-8]
    pevent->OSEventType = 0;                                 // 事件类型初始化为0
300027f4:	e51b3008 	ldr	r3, [fp, #-8]
300027f8:	e3a02000 	mov	r2, #0
300027fc:	e5c32000 	strb	r2, [r3]
    memset(pevent->OSEventTbl, 0, sizeof(pevent->OSEventTbl));
30002800:	e51b3008 	ldr	r3, [fp, #-8]
30002804:	e283300c 	add	r3, r3, #12
30002808:	e3a02008 	mov	r2, #8
3000280c:	e3a01000 	mov	r1, #0
30002810:	e1a00003 	mov	r0, r3
30002814:	eb0014d0 	bl	30007b5c <memset>
}
30002818:	e1a00000 	nop			@ (mov r0, r0)
3000281c:	e24bd004 	sub	sp, fp, #4
30002820:	e8bd4800 	pop	{fp, lr}
30002824:	e12fff1e 	bx	lr

30002828 <OS_InitTaskStat>:
//其余变量初始化
//就绪列表初始化
//空闲任务初始化
//统计任务初始化
static  void  OS_InitTaskStat (void)
{
30002828:	e92d4800 	push	{fp, lr}
3000282c:	e28db004 	add	fp, sp, #4
    (void)OSTaskCreate(OS_TaskStat,
30002830:	e3a0303d 	mov	r3, #61	@ 0x3d
30002834:	e59f2018 	ldr	r2, [pc, #24]	@ 30002854 <OS_InitTaskStat+0x2c>
30002838:	e3a01000 	mov	r1, #0
3000283c:	e59f0014 	ldr	r0, [pc, #20]	@ 30002858 <OS_InitTaskStat+0x30>
30002840:	eb001124 	bl	30006cd8 <OSTaskCreate>
                       (void *)0,                                      // 没有参数传递给 OS_TaskStat()
                       &OSTaskStatStk[OS_TASK_STAT_STK_SIZE - 1],      // 设置栈顶
                       OS_STAT_PRIO);                                  // 比空闲任务高一级
}
30002844:	e1a00000 	nop			@ (mov r0, r0)
30002848:	e24bd004 	sub	sp, fp, #4
3000284c:	e8bd4800 	pop	{fp, lr}
30002850:	e12fff1e 	bx	lr
30002854:	3000b5b4 	.word	0x3000b5b4
30002858:	30002a8c 	.word	0x30002a8c

3000285c <OS_InitTCBList>:

//TCBList初始化
static void OS_InitTCBList(void){
3000285c:	e52db004 	push	{fp}		@ (str fp, [sp, #-4]!)
30002860:	e28db000 	add	fp, sp, #0
30002864:	e24dd014 	sub	sp, sp, #20
    INT8U        i;
    OS_TCB      *ptcb1;
    OS_TCB      *ptcb2;

    OSTCBList = (OS_TCB *)0;
30002868:	e59f30b8 	ldr	r3, [pc, #184]	@ 30002928 <OS_InitTCBList+0xcc>
3000286c:	e3a02000 	mov	r2, #0
30002870:	e5832000 	str	r2, [r3]
    for(i = 0; i < OS_LOWEST_PRIO + 1; i++){
30002874:	e3a03000 	mov	r3, #0
30002878:	e54b3005 	strb	r3, [fp, #-5]
3000287c:	ea000006 	b	3000289c <OS_InitTCBList+0x40>
        OSTCBPrioTbl[i] = (OS_TCB *)0;
30002880:	e55b3005 	ldrb	r3, [fp, #-5]
30002884:	e59f20a0 	ldr	r2, [pc, #160]	@ 3000292c <OS_InitTCBList+0xd0>
30002888:	e3a01000 	mov	r1, #0
3000288c:	e7821103 	str	r1, [r2, r3, lsl #2]
    for(i = 0; i < OS_LOWEST_PRIO + 1; i++){
30002890:	e55b3005 	ldrb	r3, [fp, #-5]
30002894:	e2833001 	add	r3, r3, #1
30002898:	e54b3005 	strb	r3, [fp, #-5]
3000289c:	e55b3005 	ldrb	r3, [fp, #-5]
300028a0:	e353003e 	cmp	r3, #62	@ 0x3e
300028a4:	9afffff5 	bls	30002880 <OS_InitTCBList+0x24>
    }
    ptcb1 = &OSTCBTbl[0];
300028a8:	e59f3080 	ldr	r3, [pc, #128]	@ 30002930 <OS_InitTCBList+0xd4>
300028ac:	e50b300c 	str	r3, [fp, #-12]
    ptcb2 = &OSTCBTbl[1];
300028b0:	e59f307c 	ldr	r3, [pc, #124]	@ 30002934 <OS_InitTCBList+0xd8>
300028b4:	e50b3010 	str	r3, [fp, #-16]
    for(i = 0; i < OS_MAX_TASKS + OS_N_SYS_TASKS - 1; i++){
300028b8:	e3a03000 	mov	r3, #0
300028bc:	e54b3005 	strb	r3, [fp, #-5]
300028c0:	ea00000b 	b	300028f4 <OS_InitTCBList+0x98>
        ptcb1->OSTCBNext = ptcb2;
300028c4:	e51b300c 	ldr	r3, [fp, #-12]
300028c8:	e51b2010 	ldr	r2, [fp, #-16]
300028cc:	e5832008 	str	r2, [r3, #8]
        ptcb1++;
300028d0:	e51b300c 	ldr	r3, [fp, #-12]
300028d4:	e2833028 	add	r3, r3, #40	@ 0x28
300028d8:	e50b300c 	str	r3, [fp, #-12]
        ptcb2++;
300028dc:	e51b3010 	ldr	r3, [fp, #-16]
300028e0:	e2833028 	add	r3, r3, #40	@ 0x28
300028e4:	e50b3010 	str	r3, [fp, #-16]
    for(i = 0; i < OS_MAX_TASKS + OS_N_SYS_TASKS - 1; i++){
300028e8:	e55b3005 	ldrb	r3, [fp, #-5]
300028ec:	e2833001 	add	r3, r3, #1
300028f0:	e54b3005 	strb	r3, [fp, #-5]
300028f4:	e55b3005 	ldrb	r3, [fp, #-5]
300028f8:	e3530006 	cmp	r3, #6
300028fc:	9afffff0 	bls	300028c4 <OS_InitTCBList+0x68>
    }
    ptcb1->OSTCBNext = (OS_TCB *)0;
30002900:	e51b300c 	ldr	r3, [fp, #-12]
30002904:	e3a02000 	mov	r2, #0
30002908:	e5832008 	str	r2, [r3, #8]
    OSTCBFreeList = &OSTCBTbl[0];
3000290c:	e59f3024 	ldr	r3, [pc, #36]	@ 30002938 <OS_InitTCBList+0xdc>
30002910:	e59f2018 	ldr	r2, [pc, #24]	@ 30002930 <OS_InitTCBList+0xd4>
30002914:	e5832000 	str	r2, [r3]
}
30002918:	e1a00000 	nop			@ (mov r0, r0)
3000291c:	e28bd000 	add	sp, fp, #0
30002920:	e49db004 	pop	{fp}		@ (ldr fp, [sp], #4)
30002924:	e12fff1e 	bx	lr
30002928:	3000b5c4 	.word	0x3000b5c4
3000292c:	3000b5c8 	.word	0x3000b5c8
30002930:	3000b6c4 	.word	0x3000b6c4
30002934:	3000b6ec 	.word	0x3000b6ec
30002938:	3000b5bc 	.word	0x3000b5bc

3000293c <OS_Sched>:

void  OS_Sched (void)
{
3000293c:	e92d4800 	push	{fp, lr}
30002940:	e28db004 	add	fp, sp, #4
30002944:	e24dd008 	sub	sp, sp, #8
    OS_CPU_SR  cpu_sr;
    INT8U      y;
    OS_ENTER_CRITICAL();
30002948:	ebfff69b 	bl	300003bc <OS_CPU_SR_Save>
3000294c:	e50b0008 	str	r0, [fp, #-8]
    if ((OSIntNesting == 0) && (OSLockNesting == 0)) { 
30002950:	e59f30c8 	ldr	r3, [pc, #200]	@ 30002a20 <OS_Sched+0xe4>
30002954:	e5d33000 	ldrb	r3, [r3]
30002958:	e3530000 	cmp	r3, #0
3000295c:	1a000029 	bne	30002a08 <OS_Sched+0xcc>
30002960:	e59f30bc 	ldr	r3, [pc, #188]	@ 30002a24 <OS_Sched+0xe8>
30002964:	e5d33000 	ldrb	r3, [r3]
30002968:	e3530000 	cmp	r3, #0
3000296c:	1a000025 	bne	30002a08 <OS_Sched+0xcc>
        y             = OSUnMapTbl[OSRdyGrp];      
30002970:	e59f30b0 	ldr	r3, [pc, #176]	@ 30002a28 <OS_Sched+0xec>
30002974:	e5d33000 	ldrb	r3, [r3]
30002978:	e1a02003 	mov	r2, r3
3000297c:	e59f30a8 	ldr	r3, [pc, #168]	@ 30002a2c <OS_Sched+0xf0>
30002980:	e7d33002 	ldrb	r3, [r3, r2]
30002984:	e54b3009 	strb	r3, [fp, #-9]
        OSPrioHighRdy = (INT8U)((y << 3) + OSUnMapTbl[OSRdyTbl[y]]);
30002988:	e55b3009 	ldrb	r3, [fp, #-9]
3000298c:	e1a03183 	lsl	r3, r3, #3
30002990:	e20320ff 	and	r2, r3, #255	@ 0xff
30002994:	e55b3009 	ldrb	r3, [fp, #-9]
30002998:	e59f1090 	ldr	r1, [pc, #144]	@ 30002a30 <OS_Sched+0xf4>
3000299c:	e7d13003 	ldrb	r3, [r1, r3]
300029a0:	e1a01003 	mov	r1, r3
300029a4:	e59f3080 	ldr	r3, [pc, #128]	@ 30002a2c <OS_Sched+0xf0>
300029a8:	e7d33001 	ldrb	r3, [r3, r1]
300029ac:	e0823003 	add	r3, r2, r3
300029b0:	e20320ff 	and	r2, r3, #255	@ 0xff
300029b4:	e59f3078 	ldr	r3, [pc, #120]	@ 30002a34 <OS_Sched+0xf8>
300029b8:	e5c32000 	strb	r2, [r3]
        if (OSPrioHighRdy != OSPrioCur) {   
300029bc:	e59f3070 	ldr	r3, [pc, #112]	@ 30002a34 <OS_Sched+0xf8>
300029c0:	e5d32000 	ldrb	r2, [r3]
300029c4:	e59f306c 	ldr	r3, [pc, #108]	@ 30002a38 <OS_Sched+0xfc>
300029c8:	e5d33000 	ldrb	r3, [r3]
300029cc:	e1520003 	cmp	r2, r3
300029d0:	0a00000c 	beq	30002a08 <OS_Sched+0xcc>
            OSTCBHighRdy = OSTCBPrioTbl[OSPrioHighRdy];
300029d4:	e59f3058 	ldr	r3, [pc, #88]	@ 30002a34 <OS_Sched+0xf8>
300029d8:	e5d33000 	ldrb	r3, [r3]
300029dc:	e1a02003 	mov	r2, r3
300029e0:	e59f3054 	ldr	r3, [pc, #84]	@ 30002a3c <OS_Sched+0x100>
300029e4:	e7933102 	ldr	r3, [r3, r2, lsl #2]
300029e8:	e59f2050 	ldr	r2, [pc, #80]	@ 30002a40 <OS_Sched+0x104>
300029ec:	e5823000 	str	r3, [r2]
            OSCtxSwCtr++;                            
300029f0:	e59f304c 	ldr	r3, [pc, #76]	@ 30002a44 <OS_Sched+0x108>
300029f4:	e5933000 	ldr	r3, [r3]
300029f8:	e2833001 	add	r3, r3, #1
300029fc:	e59f2040 	ldr	r2, [pc, #64]	@ 30002a44 <OS_Sched+0x108>
30002a00:	e5823000 	str	r3, [r2]
            OS_TASK_SW(); 
30002a04:	ebfff67b 	bl	300003f8 <OSCtxSw>
        }
    }
    OS_EXIT_CRITICAL();
30002a08:	e51b0008 	ldr	r0, [fp, #-8]
30002a0c:	ebfff66e 	bl	300003cc <OS_CPU_SR_Restore>
}
30002a10:	e1a00000 	nop			@ (mov r0, r0)
30002a14:	e24bd004 	sub	sp, fp, #4
30002a18:	e8bd4800 	pop	{fp, lr}
30002a1c:	e12fff1e 	bx	lr
30002a20:	3000ac90 	.word	0x3000ac90
30002a24:	3000ac92 	.word	0x3000ac92
30002a28:	3000ac95 	.word	0x3000ac95
30002a2c:	300080c0 	.word	0x300080c0
30002a30:	3000ac98 	.word	0x3000ac98
30002a34:	3000ac94 	.word	0x3000ac94
30002a38:	3000ac93 	.word	0x3000ac93
30002a3c:	3000b5c8 	.word	0x3000b5c8
30002a40:	3000b5c0 	.word	0x3000b5c0
30002a44:	3000aca4 	.word	0x3000aca4

30002a48 <OS_TaskIdle>:

//空闲任务
void OS_TaskIdle(void *pdata1){
30002a48:	e92d4800 	push	{fp, lr}
30002a4c:	e28db004 	add	fp, sp, #4
30002a50:	e24dd010 	sub	sp, sp, #16
30002a54:	e50b0010 	str	r0, [fp, #-16]
    OS_CPU_SR  cpu_sr;                                         //CPU 状态寄存器
    pdata1 = pdata1;                                           // 防止未使用变量警告
    while(1){
        OS_ENTER_CRITICAL();
30002a58:	ebfff657 	bl	300003bc <OS_CPU_SR_Save>
30002a5c:	e50b0008 	str	r0, [fp, #-8]
        OSIdleCtr++;                                           // 空闲计数器加1
30002a60:	e59f3020 	ldr	r3, [pc, #32]	@ 30002a88 <OS_TaskIdle+0x40>
30002a64:	e5933000 	ldr	r3, [r3]
30002a68:	e2833001 	add	r3, r3, #1
30002a6c:	e59f2014 	ldr	r2, [pc, #20]	@ 30002a88 <OS_TaskIdle+0x40>
30002a70:	e5823000 	str	r3, [r2]
        OS_EXIT_CRITICAL();
30002a74:	e51b0008 	ldr	r0, [fp, #-8]
30002a78:	ebfff653 	bl	300003cc <OS_CPU_SR_Restore>
        OSTaskIdleHook();                                     // 调用空闲任务钩子函数,还没定义
30002a7c:	ebfff927 	bl	30000f20 <OSTaskIdleHook>
        OS_ENTER_CRITICAL();
30002a80:	e1a00000 	nop			@ (mov r0, r0)
30002a84:	eafffff3 	b	30002a58 <OS_TaskIdle+0x10>
30002a88:	3000aca8 	.word	0x3000aca8

30002a8c <OS_TaskStat>:
    }
}

//统计任务
void OS_TaskStat(void *pdata1){
30002a8c:	e92d4800 	push	{fp, lr}
30002a90:	e28db004 	add	fp, sp, #4
30002a94:	e24dd018 	sub	sp, sp, #24
30002a98:	e50b0018 	str	r0, [fp, #-24]	@ 0xffffffe8
    INT32U     run;
    INT32U     max;
    INT8S      usage;

    pdata1 = pdata1;                               // 防止未使用 'pdata' 的编译器警告
    while (OSStatRdy == FALSE) {
30002a9c:	ea000001 	b	30002aa8 <OS_TaskStat+0x1c>
        OSTimeDly(2 * OS_TICKS_PER_SEC);         // 等待统计任务就绪
30002aa0:	e3a00064 	mov	r0, #100	@ 0x64
30002aa4:	eb00130d 	bl	300076e0 <OSTimeDly>
    while (OSStatRdy == FALSE) {
30002aa8:	e59f30e4 	ldr	r3, [pc, #228]	@ 30002b94 <OS_TaskStat+0x108>
30002aac:	e5d33000 	ldrb	r3, [r3]
30002ab0:	e3530000 	cmp	r3, #0
30002ab4:	0afffff9 	beq	30002aa0 <OS_TaskStat+0x14>
    }
    max = OSIdleCtrMax / 100L;
30002ab8:	e59f30d8 	ldr	r3, [pc, #216]	@ 30002b98 <OS_TaskStat+0x10c>
30002abc:	e5933000 	ldr	r3, [r3]
30002ac0:	e59f20d4 	ldr	r2, [pc, #212]	@ 30002b9c <OS_TaskStat+0x110>
30002ac4:	e0831392 	umull	r1, r3, r2, r3
30002ac8:	e1a032a3 	lsr	r3, r3, #5
30002acc:	e50b3008 	str	r3, [fp, #-8]
    for (;;) {
        OS_ENTER_CRITICAL();
30002ad0:	ebfff639 	bl	300003bc <OS_CPU_SR_Save>
30002ad4:	e50b000c 	str	r0, [fp, #-12]
        OSIdleCtrRun = OSIdleCtr;                // 获取过去一秒的空闲计数器值
30002ad8:	e59f30c0 	ldr	r3, [pc, #192]	@ 30002ba0 <OS_TaskStat+0x114>
30002adc:	e5933000 	ldr	r3, [r3]
30002ae0:	e59f20bc 	ldr	r2, [pc, #188]	@ 30002ba4 <OS_TaskStat+0x118>
30002ae4:	e5823000 	str	r3, [r2]
        run          = OSIdleCtr;
30002ae8:	e59f30b0 	ldr	r3, [pc, #176]	@ 30002ba0 <OS_TaskStat+0x114>
30002aec:	e5933000 	ldr	r3, [r3]
30002af0:	e50b3010 	str	r3, [fp, #-16]
        OSIdleCtr    = 0L;                       // 重置下一秒的空闲计数器
30002af4:	e59f30a4 	ldr	r3, [pc, #164]	@ 30002ba0 <OS_TaskStat+0x114>
30002af8:	e3a02000 	mov	r2, #0
30002afc:	e5832000 	str	r2, [r3]
        OS_EXIT_CRITICAL();
30002b00:	e51b000c 	ldr	r0, [fp, #-12]
30002b04:	ebfff630 	bl	300003cc <OS_CPU_SR_Restore>
        if (max > 0L) {
30002b08:	e51b3008 	ldr	r3, [fp, #-8]
30002b0c:	e3530000 	cmp	r3, #0
30002b10:	0a000012 	beq	30002b60 <OS_TaskStat+0xd4>
            usage = (INT8S)(100L - run / max);
30002b14:	e51b1008 	ldr	r1, [fp, #-8]
30002b18:	e51b0010 	ldr	r0, [fp, #-16]
30002b1c:	eb001466 	bl	30007cbc <__udivsi3>
30002b20:	e1a03000 	mov	r3, r0
30002b24:	e20330ff 	and	r3, r3, #255	@ 0xff
30002b28:	e2633064 	rsb	r3, r3, #100	@ 0x64
30002b2c:	e20330ff 	and	r3, r3, #255	@ 0xff
30002b30:	e54b3011 	strb	r3, [fp, #-17]	@ 0xffffffef
            if (usage >= 0) {                    // 确保我们没有负百分比
30002b34:	e15b31d1 	ldrsb	r3, [fp, #-17]	@ 0xffffffef
30002b38:	e3530000 	cmp	r3, #0
30002b3c:	ba000003 	blt	30002b50 <OS_TaskStat+0xc4>
                OSCPUUsage = usage;
30002b40:	e55b2011 	ldrb	r2, [fp, #-17]	@ 0xffffffef
30002b44:	e59f305c 	ldr	r3, [pc, #92]	@ 30002ba8 <OS_TaskStat+0x11c>
30002b48:	e5c32000 	strb	r2, [r3]
30002b4c:	ea00000c 	b	30002b84 <OS_TaskStat+0xf8>
            } 
            else {
                OSCPUUsage = 0;
30002b50:	e59f3050 	ldr	r3, [pc, #80]	@ 30002ba8 <OS_TaskStat+0x11c>
30002b54:	e3a02000 	mov	r2, #0
30002b58:	e5c32000 	strb	r2, [r3]
30002b5c:	ea000008 	b	30002b84 <OS_TaskStat+0xf8>
            }
        } 
        else {
            OSCPUUsage = 0;
30002b60:	e59f3040 	ldr	r3, [pc, #64]	@ 30002ba8 <OS_TaskStat+0x11c>
30002b64:	e3a02000 	mov	r2, #0
30002b68:	e5c32000 	strb	r2, [r3]
            max        = OSIdleCtrMax / 100L;
30002b6c:	e59f3024 	ldr	r3, [pc, #36]	@ 30002b98 <OS_TaskStat+0x10c>
30002b70:	e5933000 	ldr	r3, [r3]
30002b74:	e59f2020 	ldr	r2, [pc, #32]	@ 30002b9c <OS_TaskStat+0x110>
30002b78:	e0831392 	umull	r1, r3, r2, r3
30002b7c:	e1a032a3 	lsr	r3, r3, #5
30002b80:	e50b3008 	str	r3, [fp, #-8]
        }
        OSTaskStatHook();                        // 调用用户可定义的钩子
30002b84:	ebfff8c5 	bl	30000ea0 <OSTaskStatHook>
        OSTimeDly(OS_TICKS_PER_SEC);             // 为下一秒累积 OSIdleCtr
30002b88:	e3a00032 	mov	r0, #50	@ 0x32
30002b8c:	eb0012d3 	bl	300076e0 <OSTimeDly>
        OS_ENTER_CRITICAL();
30002b90:	eaffffce 	b	30002ad0 <OS_TaskStat+0x44>
30002b94:	3000acb4 	.word	0x3000acb4
30002b98:	3000acb0 	.word	0x3000acb0
30002b9c:	51eb851f 	.word	0x51eb851f
30002ba0:	3000aca8 	.word	0x3000aca8
30002ba4:	3000acac 	.word	0x3000acac
30002ba8:	3000acb5 	.word	0x3000acb5

30002bac <OS_TCBInit>:

//TCB初始化
INT8U  OS_TCBInit (INT8U  prio, OS_STK  * ptos, 
				   OS_STK * pbos, INT16U  id, 
				   INT32U  stk_size, void * pext, INT16U  opt)
{
30002bac:	e92d4800 	push	{fp, lr}
30002bb0:	e28db004 	add	fp, sp, #4
30002bb4:	e24dd018 	sub	sp, sp, #24
30002bb8:	e50b1014 	str	r1, [fp, #-20]	@ 0xffffffec
30002bbc:	e50b2018 	str	r2, [fp, #-24]	@ 0xffffffe8
30002bc0:	e1a02003 	mov	r2, r3
30002bc4:	e1a03000 	mov	r3, r0
30002bc8:	e54b300d 	strb	r3, [fp, #-13]
30002bcc:	e1a03002 	mov	r3, r2
30002bd0:	e14b31b0 	strh	r3, [fp, #-16]
    OS_CPU_SR  cpu_sr;

    OS_TCB   *ptcb;
    OS_ENTER_CRITICAL();
30002bd4:	ebfff5f8 	bl	300003bc <OS_CPU_SR_Save>
30002bd8:	e50b0008 	str	r0, [fp, #-8]
    ptcb = OSTCBFreeList;      
30002bdc:	e59f31d8 	ldr	r3, [pc, #472]	@ 30002dbc <OS_TCBInit+0x210>
30002be0:	e5933000 	ldr	r3, [r3]
30002be4:	e50b300c 	str	r3, [fp, #-12]
    if (ptcb != (OS_TCB *)0) {
30002be8:	e51b300c 	ldr	r3, [fp, #-12]
30002bec:	e3530000 	cmp	r3, #0
30002bf0:	0a00006a 	beq	30002da0 <OS_TCBInit+0x1f4>
        OSTCBFreeList        = ptcb->OSTCBNext;    
30002bf4:	e51b300c 	ldr	r3, [fp, #-12]
30002bf8:	e5933008 	ldr	r3, [r3, #8]
30002bfc:	e59f21b8 	ldr	r2, [pc, #440]	@ 30002dbc <OS_TCBInit+0x210>
30002c00:	e5823000 	str	r3, [r2]
        OS_EXIT_CRITICAL();
30002c04:	e51b0008 	ldr	r0, [fp, #-8]
30002c08:	ebfff5ef 	bl	300003cc <OS_CPU_SR_Restore>
        ptcb->OSTCBStkPtr    = (OS_STK *)ptos;
30002c0c:	e51b300c 	ldr	r3, [fp, #-12]
30002c10:	e51b2014 	ldr	r2, [fp, #-20]	@ 0xffffffec
30002c14:	e5832000 	str	r2, [r3]
        ptcb->OSTCBPrio      = (INT8U)prio;                
30002c18:	e51b300c 	ldr	r3, [fp, #-12]
30002c1c:	e55b200d 	ldrb	r2, [fp, #-13]
30002c20:	e5c3201e 	strb	r2, [r3, #30]
        ptcb->OSTCBStat      = OS_STAT_RDY;                
30002c24:	e51b300c 	ldr	r3, [fp, #-12]
30002c28:	e3a02000 	mov	r2, #0
30002c2c:	e5c3201f 	strb	r2, [r3, #31]
        ptcb->OSTCBDly       = 0;                          
30002c30:	e51b300c 	ldr	r3, [fp, #-12]
30002c34:	e3a02000 	mov	r2, #0
30002c38:	e1c321bc 	strh	r2, [r3, #28]
        ptcb->OSTCBDelReq    = OS_NO_ERR;
30002c3c:	e51b300c 	ldr	r3, [fp, #-12]
30002c40:	e3a02000 	mov	r2, #0
30002c44:	e5c32024 	strb	r2, [r3, #36]	@ 0x24
        ptcb->OSTCBY         = prio >> 3;                  
30002c48:	e55b300d 	ldrb	r3, [fp, #-13]
30002c4c:	e1a031a3 	lsr	r3, r3, #3
30002c50:	e20320ff 	and	r2, r3, #255	@ 0xff
30002c54:	e51b300c 	ldr	r3, [fp, #-12]
30002c58:	e5c32021 	strb	r2, [r3, #33]	@ 0x21
        ptcb->OSTCBBitY      = OSMapTbl[ptcb->OSTCBY];
30002c5c:	e51b300c 	ldr	r3, [fp, #-12]
30002c60:	e5d33021 	ldrb	r3, [r3, #33]	@ 0x21
30002c64:	e1a02003 	mov	r2, r3
30002c68:	e59f3150 	ldr	r3, [pc, #336]	@ 30002dc0 <OS_TCBInit+0x214>
30002c6c:	e7d32002 	ldrb	r2, [r3, r2]
30002c70:	e51b300c 	ldr	r3, [fp, #-12]
30002c74:	e5c32023 	strb	r2, [r3, #35]	@ 0x23
        ptcb->OSTCBX         = prio & 0x07;
30002c78:	e55b300d 	ldrb	r3, [fp, #-13]
30002c7c:	e2033007 	and	r3, r3, #7
30002c80:	e20320ff 	and	r2, r3, #255	@ 0xff
30002c84:	e51b300c 	ldr	r3, [fp, #-12]
30002c88:	e5c32020 	strb	r2, [r3, #32]
        ptcb->OSTCBBitX      = OSMapTbl[ptcb->OSTCBX];
30002c8c:	e51b300c 	ldr	r3, [fp, #-12]
30002c90:	e5d33020 	ldrb	r3, [r3, #32]
30002c94:	e1a02003 	mov	r2, r3
30002c98:	e59f3120 	ldr	r3, [pc, #288]	@ 30002dc0 <OS_TCBInit+0x214>
30002c9c:	e7d32002 	ldrb	r2, [r3, r2]
30002ca0:	e51b300c 	ldr	r3, [fp, #-12]
30002ca4:	e5c32022 	strb	r2, [r3, #34]	@ 0x22
        ptcb->OSTCBEventPtr  = (OS_EVENT *)0;            
30002ca8:	e51b300c 	ldr	r3, [fp, #-12]
30002cac:	e3a02000 	mov	r2, #0
30002cb0:	e583200c 	str	r2, [r3, #12]
        ptcb->OSTCBFlagNode  = (OS_FLAG_NODE *)0;      
30002cb4:	e51b300c 	ldr	r3, [fp, #-12]
30002cb8:	e3a02000 	mov	r2, #0
30002cbc:	e5832014 	str	r2, [r3, #20]
        ptcb->OSTCBMsg       = (void *)0;     
30002cc0:	e51b300c 	ldr	r3, [fp, #-12]
30002cc4:	e3a02000 	mov	r2, #0
30002cc8:	e5832010 	str	r2, [r3, #16]
        OSTCBInitHook(ptcb);
30002ccc:	e51b000c 	ldr	r0, [fp, #-12]
30002cd0:	ebfff88a 	bl	30000f00 <OSTCBInitHook>

        OSTaskCreateHook(ptcb);                            
30002cd4:	e51b000c 	ldr	r0, [fp, #-12]
30002cd8:	ebfff850 	bl	30000e20 <OSTaskCreateHook>
        OS_ENTER_CRITICAL();
30002cdc:	ebfff5b6 	bl	300003bc <OS_CPU_SR_Save>
30002ce0:	e50b0008 	str	r0, [fp, #-8]
        OSTCBPrioTbl[prio] = ptcb;
30002ce4:	e55b300d 	ldrb	r3, [fp, #-13]
30002ce8:	e59f10d4 	ldr	r1, [pc, #212]	@ 30002dc4 <OS_TCBInit+0x218>
30002cec:	e51b200c 	ldr	r2, [fp, #-12]
30002cf0:	e7812103 	str	r2, [r1, r3, lsl #2]
        ptcb->OSTCBNext    = OSTCBList;                    
30002cf4:	e59f30cc 	ldr	r3, [pc, #204]	@ 30002dc8 <OS_TCBInit+0x21c>
30002cf8:	e5932000 	ldr	r2, [r3]
30002cfc:	e51b300c 	ldr	r3, [fp, #-12]
30002d00:	e5832008 	str	r2, [r3, #8]
        ptcb->OSTCBPrev    = (OS_TCB *)0;
30002d04:	e51b300c 	ldr	r3, [fp, #-12]
30002d08:	e3a02000 	mov	r2, #0
30002d0c:	e5832004 	str	r2, [r3, #4]
        if (OSTCBList != (OS_TCB *)0) {
30002d10:	e59f30b0 	ldr	r3, [pc, #176]	@ 30002dc8 <OS_TCBInit+0x21c>
30002d14:	e5933000 	ldr	r3, [r3]
30002d18:	e3530000 	cmp	r3, #0
30002d1c:	0a000003 	beq	30002d30 <OS_TCBInit+0x184>
            OSTCBList->OSTCBPrev = ptcb;
30002d20:	e59f30a0 	ldr	r3, [pc, #160]	@ 30002dc8 <OS_TCBInit+0x21c>
30002d24:	e5933000 	ldr	r3, [r3]
30002d28:	e51b200c 	ldr	r2, [fp, #-12]
30002d2c:	e5832004 	str	r2, [r3, #4]
        }
        OSTCBList               = ptcb;
30002d30:	e59f2090 	ldr	r2, [pc, #144]	@ 30002dc8 <OS_TCBInit+0x21c>
30002d34:	e51b300c 	ldr	r3, [fp, #-12]
30002d38:	e5823000 	str	r3, [r2]
        OSRdyGrp               |= ptcb->OSTCBBitY;         
30002d3c:	e51b300c 	ldr	r3, [fp, #-12]
30002d40:	e5d32023 	ldrb	r2, [r3, #35]	@ 0x23
30002d44:	e59f3080 	ldr	r3, [pc, #128]	@ 30002dcc <OS_TCBInit+0x220>
30002d48:	e5d33000 	ldrb	r3, [r3]
30002d4c:	e1823003 	orr	r3, r2, r3
30002d50:	e20320ff 	and	r2, r3, #255	@ 0xff
30002d54:	e59f3070 	ldr	r3, [pc, #112]	@ 30002dcc <OS_TCBInit+0x220>
30002d58:	e5c32000 	strb	r2, [r3]
        OSRdyTbl[ptcb->OSTCBY] |= ptcb->OSTCBBitX;
30002d5c:	e51b300c 	ldr	r3, [fp, #-12]
30002d60:	e5d33021 	ldrb	r3, [r3, #33]	@ 0x21
30002d64:	e1a02003 	mov	r2, r3
30002d68:	e59f3060 	ldr	r3, [pc, #96]	@ 30002dd0 <OS_TCBInit+0x224>
30002d6c:	e7d32002 	ldrb	r2, [r3, r2]
30002d70:	e51b300c 	ldr	r3, [fp, #-12]
30002d74:	e5d33022 	ldrb	r3, [r3, #34]	@ 0x22
30002d78:	e51b100c 	ldr	r1, [fp, #-12]
30002d7c:	e5d11021 	ldrb	r1, [r1, #33]	@ 0x21
30002d80:	e1823003 	orr	r3, r2, r3
30002d84:	e20320ff 	and	r2, r3, #255	@ 0xff
30002d88:	e59f3040 	ldr	r3, [pc, #64]	@ 30002dd0 <OS_TCBInit+0x224>
30002d8c:	e7c32001 	strb	r2, [r3, r1]
        OS_EXIT_CRITICAL();
30002d90:	e51b0008 	ldr	r0, [fp, #-8]
30002d94:	ebfff58c 	bl	300003cc <OS_CPU_SR_Restore>
        return (OS_NO_ERR);
30002d98:	e3a03000 	mov	r3, #0
30002d9c:	ea000002 	b	30002dac <OS_TCBInit+0x200>
    }
    OS_EXIT_CRITICAL();
30002da0:	e51b0008 	ldr	r0, [fp, #-8]
30002da4:	ebfff588 	bl	300003cc <OS_CPU_SR_Restore>
    return (OS_NO_MORE_TCB);
30002da8:	e3a03046 	mov	r3, #70	@ 0x46
}
30002dac:	e1a00003 	mov	r0, r3
30002db0:	e24bd004 	sub	sp, fp, #4
30002db4:	e8bd4800 	pop	{fp, lr}
30002db8:	e12fff1e 	bx	lr
30002dbc:	3000b5bc 	.word	0x3000b5bc
30002dc0:	300080b8 	.word	0x300080b8
30002dc4:	3000b5c8 	.word	0x3000b5c8
30002dc8:	3000b5c4 	.word	0x3000b5c4
30002dcc:	3000ac95 	.word	0x3000ac95
30002dd0:	3000ac98 	.word	0x3000ac98

30002dd4 <OSFlagAccept>:
* 移植要点:
* - OS_FLAGS 通常定义为 8位、16位或32位。在 Mini2440 上，建议定义为 32 位 (INT32U) 以最大化性能和容量。
*********************************************************************************************************
*/
OS_FLAGS  OSFlagAccept (OS_FLAG_GRP *pgrp, OS_FLAGS flags, INT8U wait_type, INT8U *err)
{
30002dd4:	e92d4800 	push	{fp, lr}
30002dd8:	e28db004 	add	fp, sp, #4
30002ddc:	e24dd020 	sub	sp, sp, #32
30002de0:	e50b0018 	str	r0, [fp, #-24]	@ 0xffffffe8
30002de4:	e50b101c 	str	r1, [fp, #-28]	@ 0xffffffe4
30002de8:	e50b3024 	str	r3, [fp, #-36]	@ 0xffffffdc
30002dec:	e1a03002 	mov	r3, r2
30002df0:	e54b301d 	strb	r3, [fp, #-29]	@ 0xffffffe3
    OS_CPU_SR     cpu_sr;
    OS_FLAGS      flags_cur;
    OS_FLAGS      flags_rdy;
    BOOLEAN       consume;

    if (pgrp == (OS_FLAG_GRP *)0) {                        /* Validate 'pgrp'                          */
30002df4:	e51b3018 	ldr	r3, [fp, #-24]	@ 0xffffffe8
30002df8:	e3530000 	cmp	r3, #0
30002dfc:	1a000004 	bne	30002e14 <OSFlagAccept+0x40>
        *err = OS_FLAG_INVALID_PGRP;
30002e00:	e51b3024 	ldr	r3, [fp, #-36]	@ 0xffffffdc
30002e04:	e3e02069 	mvn	r2, #105	@ 0x69
30002e08:	e5c32000 	strb	r2, [r3]
        return ((OS_FLAGS)0);
30002e0c:	e3a03000 	mov	r3, #0
30002e10:	ea00009b 	b	30003084 <OSFlagAccept+0x2b0>
    }
    if (pgrp->OSFlagType != OS_EVENT_TYPE_FLAG) {          /* Validate event block type                */
30002e14:	e51b3018 	ldr	r3, [fp, #-24]	@ 0xffffffe8
30002e18:	e5d33000 	ldrb	r3, [r3]
30002e1c:	e3530005 	cmp	r3, #5
30002e20:	0a000004 	beq	30002e38 <OSFlagAccept+0x64>
        *err = OS_ERR_EVENT_TYPE;
30002e24:	e51b3024 	ldr	r3, [fp, #-36]	@ 0xffffffdc
30002e28:	e3a02001 	mov	r2, #1
30002e2c:	e5c32000 	strb	r2, [r3]
        return ((OS_FLAGS)0);
30002e30:	e3a03000 	mov	r3, #0
30002e34:	ea000092 	b	30003084 <OSFlagAccept+0x2b0>
    }
    if (wait_type & OS_FLAG_CONSUME) {                     /* See if we need to consume the flags      */
30002e38:	e15b31dd 	ldrsb	r3, [fp, #-29]	@ 0xffffffe3
30002e3c:	e3530000 	cmp	r3, #0
30002e40:	aa000005 	bge	30002e5c <OSFlagAccept+0x88>
        wait_type &= ~OS_FLAG_CONSUME;
30002e44:	e55b301d 	ldrb	r3, [fp, #-29]	@ 0xffffffe3
30002e48:	e203307f 	and	r3, r3, #127	@ 0x7f
30002e4c:	e54b301d 	strb	r3, [fp, #-29]	@ 0xffffffe3
        consume    = TRUE;
30002e50:	e3a03001 	mov	r3, #1
30002e54:	e54b3009 	strb	r3, [fp, #-9]
30002e58:	ea000001 	b	30002e64 <OSFlagAccept+0x90>
    } 
    else {
        consume    = FALSE;
30002e5c:	e3a03000 	mov	r3, #0
30002e60:	e54b3009 	strb	r3, [fp, #-9]
    }
    *err = OS_NO_ERR;                                      /* Assume NO error until proven otherwise.  */
30002e64:	e51b3024 	ldr	r3, [fp, #-36]	@ 0xffffffdc
30002e68:	e3a02000 	mov	r2, #0
30002e6c:	e5c32000 	strb	r2, [r3]
    OS_ENTER_CRITICAL();
30002e70:	ebfff551 	bl	300003bc <OS_CPU_SR_Save>
30002e74:	e50b0010 	str	r0, [fp, #-16]
    switch (wait_type) {
30002e78:	e55b301d 	ldrb	r3, [fp, #-29]	@ 0xffffffe3
30002e7c:	e3530003 	cmp	r3, #3
30002e80:	979ff103 	ldrls	pc, [pc, r3, lsl #2]
30002e84:	ea000075 	b	30003060 <OSFlagAccept+0x28c>
30002e88:	30002f7c 	.word	0x30002f7c
30002e8c:	30002ff0 	.word	0x30002ff0
30002e90:	30002e98 	.word	0x30002e98
30002e94:	30002f0c 	.word	0x30002f0c
        case OS_FLAG_WAIT_SET_ALL:                         /* See if all required flags are set        */
             flags_rdy = pgrp->OSFlagFlags & flags;        /* Extract only the bits we want            */
30002e98:	e51b3018 	ldr	r3, [fp, #-24]	@ 0xffffffe8
30002e9c:	e5933008 	ldr	r3, [r3, #8]
30002ea0:	e51b201c 	ldr	r2, [fp, #-28]	@ 0xffffffe4
30002ea4:	e0033002 	and	r3, r3, r2
30002ea8:	e50b3014 	str	r3, [fp, #-20]	@ 0xffffffec
             if (flags_rdy == flags) {                     /* Must match ALL the bits that we want     */
30002eac:	e51b2014 	ldr	r2, [fp, #-20]	@ 0xffffffec
30002eb0:	e51b301c 	ldr	r3, [fp, #-28]	@ 0xffffffe4
30002eb4:	e1520003 	cmp	r2, r3
30002eb8:	1a00000a 	bne	30002ee8 <OSFlagAccept+0x114>
                 if (consume == TRUE) {                    /* See if we need to consume the flags      */
30002ebc:	e55b3009 	ldrb	r3, [fp, #-9]
30002ec0:	e3530001 	cmp	r3, #1
30002ec4:	1a00000a 	bne	30002ef4 <OSFlagAccept+0x120>
                     pgrp->OSFlagFlags &= ~flags_rdy;      /* Clear ONLY the flags that we wanted      */
30002ec8:	e51b3018 	ldr	r3, [fp, #-24]	@ 0xffffffe8
30002ecc:	e5932008 	ldr	r2, [r3, #8]
30002ed0:	e51b3014 	ldr	r3, [fp, #-20]	@ 0xffffffec
30002ed4:	e1e03003 	mvn	r3, r3
30002ed8:	e0022003 	and	r2, r2, r3
30002edc:	e51b3018 	ldr	r3, [fp, #-24]	@ 0xffffffe8
30002ee0:	e5832008 	str	r2, [r3, #8]
30002ee4:	ea000002 	b	30002ef4 <OSFlagAccept+0x120>
                 }
             } else {
                 *err  = OS_FLAG_ERR_NOT_RDY;
30002ee8:	e51b3024 	ldr	r3, [fp, #-36]	@ 0xffffffdc
30002eec:	e3e02067 	mvn	r2, #103	@ 0x67
30002ef0:	e5c32000 	strb	r2, [r3]
             }
             flags_cur = pgrp->OSFlagFlags;                /* Will return the state of the group       */
30002ef4:	e51b3018 	ldr	r3, [fp, #-24]	@ 0xffffffe8
30002ef8:	e5933008 	ldr	r3, [r3, #8]
30002efc:	e50b3008 	str	r3, [fp, #-8]
             OS_EXIT_CRITICAL();
30002f00:	e51b0010 	ldr	r0, [fp, #-16]
30002f04:	ebfff530 	bl	300003cc <OS_CPU_SR_Restore>
             break;
30002f08:	ea00005c 	b	30003080 <OSFlagAccept+0x2ac>

        case OS_FLAG_WAIT_SET_ANY:
             flags_rdy = pgrp->OSFlagFlags & flags;        /* Extract only the bits we want            */
30002f0c:	e51b3018 	ldr	r3, [fp, #-24]	@ 0xffffffe8
30002f10:	e5933008 	ldr	r3, [r3, #8]
30002f14:	e51b201c 	ldr	r2, [fp, #-28]	@ 0xffffffe4
30002f18:	e0033002 	and	r3, r3, r2
30002f1c:	e50b3014 	str	r3, [fp, #-20]	@ 0xffffffec
             if (flags_rdy != (OS_FLAGS)0) {               /* See if any flag set                      */
30002f20:	e51b3014 	ldr	r3, [fp, #-20]	@ 0xffffffec
30002f24:	e3530000 	cmp	r3, #0
30002f28:	0a00000a 	beq	30002f58 <OSFlagAccept+0x184>
                 if (consume == TRUE) {                    /* See if we need to consume the flags      */
30002f2c:	e55b3009 	ldrb	r3, [fp, #-9]
30002f30:	e3530001 	cmp	r3, #1
30002f34:	1a00000a 	bne	30002f64 <OSFlagAccept+0x190>
                     pgrp->OSFlagFlags &= ~flags_rdy;      /* Clear ONLY the flags that we got         */
30002f38:	e51b3018 	ldr	r3, [fp, #-24]	@ 0xffffffe8
30002f3c:	e5932008 	ldr	r2, [r3, #8]
30002f40:	e51b3014 	ldr	r3, [fp, #-20]	@ 0xffffffec
30002f44:	e1e03003 	mvn	r3, r3
30002f48:	e0022003 	and	r2, r2, r3
30002f4c:	e51b3018 	ldr	r3, [fp, #-24]	@ 0xffffffe8
30002f50:	e5832008 	str	r2, [r3, #8]
30002f54:	ea000002 	b	30002f64 <OSFlagAccept+0x190>
                 }
             } else {
                 *err  = OS_FLAG_ERR_NOT_RDY;
30002f58:	e51b3024 	ldr	r3, [fp, #-36]	@ 0xffffffdc
30002f5c:	e3e02067 	mvn	r2, #103	@ 0x67
30002f60:	e5c32000 	strb	r2, [r3]
             }
             flags_cur = pgrp->OSFlagFlags;                /* Will return the state of the group       */
30002f64:	e51b3018 	ldr	r3, [fp, #-24]	@ 0xffffffe8
30002f68:	e5933008 	ldr	r3, [r3, #8]
30002f6c:	e50b3008 	str	r3, [fp, #-8]
             OS_EXIT_CRITICAL();
30002f70:	e51b0010 	ldr	r0, [fp, #-16]
30002f74:	ebfff514 	bl	300003cc <OS_CPU_SR_Restore>
             break;
30002f78:	ea000040 	b	30003080 <OSFlagAccept+0x2ac>

        case OS_FLAG_WAIT_CLR_ALL:                         /* See if all required flags are cleared    */
             flags_rdy = ~pgrp->OSFlagFlags & flags;       /* Extract only the bits we want            */
30002f7c:	e51b3018 	ldr	r3, [fp, #-24]	@ 0xffffffe8
30002f80:	e5933008 	ldr	r3, [r3, #8]
30002f84:	e1e03003 	mvn	r3, r3
30002f88:	e51b201c 	ldr	r2, [fp, #-28]	@ 0xffffffe4
30002f8c:	e0033002 	and	r3, r3, r2
30002f90:	e50b3014 	str	r3, [fp, #-20]	@ 0xffffffec
             if (flags_rdy == flags) {                     /* Must match ALL the bits that we want     */
30002f94:	e51b2014 	ldr	r2, [fp, #-20]	@ 0xffffffec
30002f98:	e51b301c 	ldr	r3, [fp, #-28]	@ 0xffffffe4
30002f9c:	e1520003 	cmp	r2, r3
30002fa0:	1a000009 	bne	30002fcc <OSFlagAccept+0x1f8>
                 if (consume == TRUE) {                    /* See if we need to consume the flags      */
30002fa4:	e55b3009 	ldrb	r3, [fp, #-9]
30002fa8:	e3530001 	cmp	r3, #1
30002fac:	1a000009 	bne	30002fd8 <OSFlagAccept+0x204>
                     pgrp->OSFlagFlags |= flags_rdy;       /* Set ONLY the flags that we wanted        */
30002fb0:	e51b3018 	ldr	r3, [fp, #-24]	@ 0xffffffe8
30002fb4:	e5932008 	ldr	r2, [r3, #8]
30002fb8:	e51b3014 	ldr	r3, [fp, #-20]	@ 0xffffffec
30002fbc:	e1822003 	orr	r2, r2, r3
30002fc0:	e51b3018 	ldr	r3, [fp, #-24]	@ 0xffffffe8
30002fc4:	e5832008 	str	r2, [r3, #8]
30002fc8:	ea000002 	b	30002fd8 <OSFlagAccept+0x204>
                 }
             } else {
                 *err  = OS_FLAG_ERR_NOT_RDY;
30002fcc:	e51b3024 	ldr	r3, [fp, #-36]	@ 0xffffffdc
30002fd0:	e3e02067 	mvn	r2, #103	@ 0x67
30002fd4:	e5c32000 	strb	r2, [r3]
             }
             flags_cur = pgrp->OSFlagFlags;                /* Will return the state of the group       */
30002fd8:	e51b3018 	ldr	r3, [fp, #-24]	@ 0xffffffe8
30002fdc:	e5933008 	ldr	r3, [r3, #8]
30002fe0:	e50b3008 	str	r3, [fp, #-8]
             OS_EXIT_CRITICAL();
30002fe4:	e51b0010 	ldr	r0, [fp, #-16]
30002fe8:	ebfff4f7 	bl	300003cc <OS_CPU_SR_Restore>
             break;
30002fec:	ea000023 	b	30003080 <OSFlagAccept+0x2ac>

        case OS_FLAG_WAIT_CLR_ANY:
             flags_rdy = ~pgrp->OSFlagFlags & flags;       /* Extract only the bits we want            */
30002ff0:	e51b3018 	ldr	r3, [fp, #-24]	@ 0xffffffe8
30002ff4:	e5933008 	ldr	r3, [r3, #8]
30002ff8:	e1e03003 	mvn	r3, r3
30002ffc:	e51b201c 	ldr	r2, [fp, #-28]	@ 0xffffffe4
30003000:	e0033002 	and	r3, r3, r2
30003004:	e50b3014 	str	r3, [fp, #-20]	@ 0xffffffec
             if (flags_rdy != (OS_FLAGS)0) {               /* See if any flag cleared                  */
30003008:	e51b3014 	ldr	r3, [fp, #-20]	@ 0xffffffec
3000300c:	e3530000 	cmp	r3, #0
30003010:	0a000009 	beq	3000303c <OSFlagAccept+0x268>
                 if (consume == TRUE) {                    /* See if we need to consume the flags      */
30003014:	e55b3009 	ldrb	r3, [fp, #-9]
30003018:	e3530001 	cmp	r3, #1
3000301c:	1a000009 	bne	30003048 <OSFlagAccept+0x274>
                     pgrp->OSFlagFlags |= flags_rdy;       /* Set ONLY the flags that we got           */
30003020:	e51b3018 	ldr	r3, [fp, #-24]	@ 0xffffffe8
30003024:	e5932008 	ldr	r2, [r3, #8]
30003028:	e51b3014 	ldr	r3, [fp, #-20]	@ 0xffffffec
3000302c:	e1822003 	orr	r2, r2, r3
30003030:	e51b3018 	ldr	r3, [fp, #-24]	@ 0xffffffe8
30003034:	e5832008 	str	r2, [r3, #8]
30003038:	ea000002 	b	30003048 <OSFlagAccept+0x274>
                 }
             } else {
                 *err  = OS_FLAG_ERR_NOT_RDY;
3000303c:	e51b3024 	ldr	r3, [fp, #-36]	@ 0xffffffdc
30003040:	e3e02067 	mvn	r2, #103	@ 0x67
30003044:	e5c32000 	strb	r2, [r3]
             }
             flags_cur = pgrp->OSFlagFlags;                /* Will return the state of the group       */
30003048:	e51b3018 	ldr	r3, [fp, #-24]	@ 0xffffffe8
3000304c:	e5933008 	ldr	r3, [r3, #8]
30003050:	e50b3008 	str	r3, [fp, #-8]
             OS_EXIT_CRITICAL();
30003054:	e51b0010 	ldr	r0, [fp, #-16]
30003058:	ebfff4db 	bl	300003cc <OS_CPU_SR_Restore>
             break;
3000305c:	ea000007 	b	30003080 <OSFlagAccept+0x2ac>
        default:
             OS_EXIT_CRITICAL();
30003060:	e51b0010 	ldr	r0, [fp, #-16]
30003064:	ebfff4d8 	bl	300003cc <OS_CPU_SR_Restore>
             flags_cur = (OS_FLAGS)0;
30003068:	e3a03000 	mov	r3, #0
3000306c:	e50b3008 	str	r3, [fp, #-8]
             *err      = OS_FLAG_ERR_WAIT_TYPE;
30003070:	e51b3024 	ldr	r3, [fp, #-36]	@ 0xffffffdc
30003074:	e3e02068 	mvn	r2, #104	@ 0x68
30003078:	e5c32000 	strb	r2, [r3]
             break;
3000307c:	e1a00000 	nop			@ (mov r0, r0)
    }
    return (flags_cur);
30003080:	e51b3008 	ldr	r3, [fp, #-8]
}
30003084:	e1a00003 	mov	r0, r3
30003088:	e24bd004 	sub	sp, fp, #4
3000308c:	e8bd4800 	pop	{fp, lr}
30003090:	e12fff1e 	bx	lr

30003094 <OSFlagCreate>:
* 移植要点:
* - 无。
*********************************************************************************************************
*/
OS_FLAG_GRP  *OSFlagCreate (OS_FLAGS flags, INT8U *err)
{
30003094:	e92d4800 	push	{fp, lr}
30003098:	e28db004 	add	fp, sp, #4
3000309c:	e24dd010 	sub	sp, sp, #16
300030a0:	e50b0010 	str	r0, [fp, #-16]
300030a4:	e50b1014 	str	r1, [fp, #-20]	@ 0xffffffec
    // 在此输入代码
    OS_CPU_SR    cpu_sr;
    OS_FLAG_GRP  *pflag;

    if(OSIntNesting > 0){
300030a8:	e59f30b4 	ldr	r3, [pc, #180]	@ 30003164 <OSFlagCreate+0xd0>
300030ac:	e5d33000 	ldrb	r3, [r3]
300030b0:	e3530000 	cmp	r3, #0
300030b4:	0a000004 	beq	300030cc <OSFlagCreate+0x38>
        *err = OS_ERR_CREATE_ISR;
300030b8:	e51b3014 	ldr	r3, [fp, #-20]	@ 0xffffffec
300030bc:	e3e02072 	mvn	r2, #114	@ 0x72
300030c0:	e5c32000 	strb	r2, [r3]
        return ((OS_FLAG_GRP *)0);
300030c4:	e3a03000 	mov	r3, #0
300030c8:	ea000021 	b	30003154 <OSFlagCreate+0xc0>
    }
    OS_ENTER_CRITICAL();
300030cc:	ebfff4ba 	bl	300003bc <OS_CPU_SR_Save>
300030d0:	e50b0008 	str	r0, [fp, #-8]
    pflag = OSFlagFreeList;
300030d4:	e59f308c 	ldr	r3, [pc, #140]	@ 30003168 <OSFlagCreate+0xd4>
300030d8:	e5933000 	ldr	r3, [r3]
300030dc:	e50b300c 	str	r3, [fp, #-12]
    if(pflag != (OS_FLAG_GRP *)0){
300030e0:	e51b300c 	ldr	r3, [fp, #-12]
300030e4:	e3530000 	cmp	r3, #0
300030e8:	0a000013 	beq	3000313c <OSFlagCreate+0xa8>
        OSFlagFreeList = (OS_FLAG_GRP *)OSFlagFreeList->OSFlagWaitList;
300030ec:	e59f3074 	ldr	r3, [pc, #116]	@ 30003168 <OSFlagCreate+0xd4>
300030f0:	e5933000 	ldr	r3, [r3]
300030f4:	e5933004 	ldr	r3, [r3, #4]
300030f8:	e59f2068 	ldr	r2, [pc, #104]	@ 30003168 <OSFlagCreate+0xd4>
300030fc:	e5823000 	str	r3, [r2]
        OS_EXIT_CRITICAL();
30003100:	e51b0008 	ldr	r0, [fp, #-8]
30003104:	ebfff4b0 	bl	300003cc <OS_CPU_SR_Restore>
        pflag->OSFlagType = OS_EVENT_TYPE_FLAG;
30003108:	e51b300c 	ldr	r3, [fp, #-12]
3000310c:	e3a02005 	mov	r2, #5
30003110:	e5c32000 	strb	r2, [r3]
        pflag->OSFlagFlags = flags;
30003114:	e51b300c 	ldr	r3, [fp, #-12]
30003118:	e51b2010 	ldr	r2, [fp, #-16]
3000311c:	e5832008 	str	r2, [r3, #8]
        pflag->OSFlagWaitList = (void *)0;
30003120:	e51b300c 	ldr	r3, [fp, #-12]
30003124:	e3a02000 	mov	r2, #0
30003128:	e5832004 	str	r2, [r3, #4]
        *err = OS_NO_ERR;
3000312c:	e51b3014 	ldr	r3, [fp, #-20]	@ 0xffffffec
30003130:	e3a02000 	mov	r2, #0
30003134:	e5c32000 	strb	r2, [r3]
30003138:	ea000004 	b	30003150 <OSFlagCreate+0xbc>
    }
    else{
        OS_EXIT_CRITICAL();
3000313c:	e51b0008 	ldr	r0, [fp, #-8]
30003140:	ebfff4a1 	bl	300003cc <OS_CPU_SR_Restore>
        *err =OS_FLAG_GRP_DEPLETED;
30003144:	e51b3014 	ldr	r3, [fp, #-20]	@ 0xffffffec
30003148:	e3e02065 	mvn	r2, #101	@ 0x65
3000314c:	e5c32000 	strb	r2, [r3]
    }
    return(pflag);
30003150:	e51b300c 	ldr	r3, [fp, #-12]
}
30003154:	e1a00003 	mov	r0, r3
30003158:	e24bd004 	sub	sp, fp, #4
3000315c:	e8bd4800 	pop	{fp, lr}
30003160:	e12fff1e 	bx	lr
30003164:	3000ac90 	.word	0x3000ac90
30003168:	3000b86c 	.word	0x3000b86c

3000316c <OSFlagDel>:
* 移植要点:
* - 无。
*********************************************************************************************************
*/
OS_FLAG_GRP  *OSFlagDel (OS_FLAG_GRP *pgrp, INT8U opt, INT8U *err)
{
3000316c:	e92d4800 	push	{fp, lr}
30003170:	e28db004 	add	fp, sp, #4
30003174:	e24dd020 	sub	sp, sp, #32
30003178:	e50b0018 	str	r0, [fp, #-24]	@ 0xffffffe8
3000317c:	e1a03001 	mov	r3, r1
30003180:	e50b2020 	str	r2, [fp, #-32]	@ 0xffffffe0
30003184:	e54b3019 	strb	r3, [fp, #-25]	@ 0xffffffe7
    OS_CPU_SR     cpu_sr;
    BOOLEAN       tasks_waiting;
    OS_FLAG_NODE *pnode;


    if (OSIntNesting > 0) {                                /* See if called from ISR ...               */
30003188:	e59f31c0 	ldr	r3, [pc, #448]	@ 30003350 <OSFlagDel+0x1e4>
3000318c:	e5d33000 	ldrb	r3, [r3]
30003190:	e3530000 	cmp	r3, #0
30003194:	0a000004 	beq	300031ac <OSFlagDel+0x40>
        *err = OS_ERR_DEL_ISR;                             /* ... can't DELETE from an ISR             */
30003198:	e51b3020 	ldr	r3, [fp, #-32]	@ 0xffffffe0
3000319c:	e3e02073 	mvn	r2, #115	@ 0x73
300031a0:	e5c32000 	strb	r2, [r3]
        return (pgrp);
300031a4:	e51b3018 	ldr	r3, [fp, #-24]	@ 0xffffffe8
300031a8:	ea000064 	b	30003340 <OSFlagDel+0x1d4>
    }
    if (pgrp == (OS_FLAG_GRP *)0) {                        /* Validate 'pgrp'                          */
300031ac:	e51b3018 	ldr	r3, [fp, #-24]	@ 0xffffffe8
300031b0:	e3530000 	cmp	r3, #0
300031b4:	1a000004 	bne	300031cc <OSFlagDel+0x60>
        *err = OS_FLAG_INVALID_PGRP;
300031b8:	e51b3020 	ldr	r3, [fp, #-32]	@ 0xffffffe0
300031bc:	e3e02069 	mvn	r2, #105	@ 0x69
300031c0:	e5c32000 	strb	r2, [r3]
        return (pgrp);
300031c4:	e51b3018 	ldr	r3, [fp, #-24]	@ 0xffffffe8
300031c8:	ea00005c 	b	30003340 <OSFlagDel+0x1d4>
    }
    if (pgrp->OSFlagType != OS_EVENT_TYPE_FLAG) {          /* Validate event group type                */
300031cc:	e51b3018 	ldr	r3, [fp, #-24]	@ 0xffffffe8
300031d0:	e5d33000 	ldrb	r3, [r3]
300031d4:	e3530005 	cmp	r3, #5
300031d8:	0a000004 	beq	300031f0 <OSFlagDel+0x84>
        *err = OS_ERR_EVENT_TYPE;
300031dc:	e51b3020 	ldr	r3, [fp, #-32]	@ 0xffffffe0
300031e0:	e3a02001 	mov	r2, #1
300031e4:	e5c32000 	strb	r2, [r3]
        return (pgrp);
300031e8:	e51b3018 	ldr	r3, [fp, #-24]	@ 0xffffffe8
300031ec:	ea000053 	b	30003340 <OSFlagDel+0x1d4>
    }
    OS_ENTER_CRITICAL();
300031f0:	ebfff471 	bl	300003bc <OS_CPU_SR_Save>
300031f4:	e50b0010 	str	r0, [fp, #-16]
    if (pgrp->OSFlagWaitList != (void *)0) {               /* See if any tasks waiting on event flags  */
300031f8:	e51b3018 	ldr	r3, [fp, #-24]	@ 0xffffffe8
300031fc:	e5933004 	ldr	r3, [r3, #4]
30003200:	e3530000 	cmp	r3, #0
30003204:	0a000002 	beq	30003214 <OSFlagDel+0xa8>
        tasks_waiting = TRUE;                              /* Yes                                      */
30003208:	e3a03001 	mov	r3, #1
3000320c:	e54b3005 	strb	r3, [fp, #-5]
30003210:	ea000001 	b	3000321c <OSFlagDel+0xb0>
    } else {
        tasks_waiting = FALSE;                             /* No                                       */
30003214:	e3a03000 	mov	r3, #0
30003218:	e54b3005 	strb	r3, [fp, #-5]
    }
    switch (opt) {
3000321c:	e55b3019 	ldrb	r3, [fp, #-25]	@ 0xffffffe7
30003220:	e3530000 	cmp	r3, #0
30003224:	0a000002 	beq	30003234 <OSFlagDel+0xc8>
30003228:	e3530001 	cmp	r3, #1
3000322c:	0a00001b 	beq	300032a0 <OSFlagDel+0x134>
30003230:	ea00003c 	b	30003328 <OSFlagDel+0x1bc>
        case OS_DEL_NO_PEND:                               /* Delete group if no task waiting          */
             if (tasks_waiting == FALSE) {
30003234:	e55b3005 	ldrb	r3, [fp, #-5]
30003238:	e3530000 	cmp	r3, #0
3000323c:	1a000010 	bne	30003284 <OSFlagDel+0x118>
                 pgrp->OSFlagType     = OS_EVENT_TYPE_UNUSED;
30003240:	e51b3018 	ldr	r3, [fp, #-24]	@ 0xffffffe8
30003244:	e3a02000 	mov	r2, #0
30003248:	e5c32000 	strb	r2, [r3]
                 pgrp->OSFlagWaitList = (void *)OSFlagFreeList; /* Return group to free list           */
3000324c:	e59f3100 	ldr	r3, [pc, #256]	@ 30003354 <OSFlagDel+0x1e8>
30003250:	e5932000 	ldr	r2, [r3]
30003254:	e51b3018 	ldr	r3, [fp, #-24]	@ 0xffffffe8
30003258:	e5832004 	str	r2, [r3, #4]
                 OSFlagFreeList       = pgrp;
3000325c:	e59f20f0 	ldr	r2, [pc, #240]	@ 30003354 <OSFlagDel+0x1e8>
30003260:	e51b3018 	ldr	r3, [fp, #-24]	@ 0xffffffe8
30003264:	e5823000 	str	r3, [r2]
                 OS_EXIT_CRITICAL();
30003268:	e51b0010 	ldr	r0, [fp, #-16]
3000326c:	ebfff456 	bl	300003cc <OS_CPU_SR_Restore>
                 *err                 = OS_NO_ERR;
30003270:	e51b3020 	ldr	r3, [fp, #-32]	@ 0xffffffe0
30003274:	e3a02000 	mov	r2, #0
30003278:	e5c32000 	strb	r2, [r3]
                 return ((OS_FLAG_GRP *)0);                /* Event Flag Group has been deleted        */
3000327c:	e3a03000 	mov	r3, #0
30003280:	ea00002e 	b	30003340 <OSFlagDel+0x1d4>
             } else {
                 OS_EXIT_CRITICAL();
30003284:	e51b0010 	ldr	r0, [fp, #-16]
30003288:	ebfff44f 	bl	300003cc <OS_CPU_SR_Restore>
                 *err                 = OS_ERR_TASK_WAITING;
3000328c:	e51b3020 	ldr	r3, [fp, #-32]	@ 0xffffffe0
30003290:	e3a02008 	mov	r2, #8
30003294:	e5c32000 	strb	r2, [r3]
                 return (pgrp);
30003298:	e51b3018 	ldr	r3, [fp, #-24]	@ 0xffffffe8
3000329c:	ea000027 	b	30003340 <OSFlagDel+0x1d4>
             }

        case OS_DEL_ALWAYS:                                /* Always delete the event flag group       */
             pnode = (OS_FLAG_NODE *)pgrp->OSFlagWaitList;
300032a0:	e51b3018 	ldr	r3, [fp, #-24]	@ 0xffffffe8
300032a4:	e5933004 	ldr	r3, [r3, #4]
300032a8:	e50b300c 	str	r3, [fp, #-12]
             while (pnode != (OS_FLAG_NODE *)0) {          /* Ready ALL tasks waiting for flags        */
300032ac:	ea000005 	b	300032c8 <OSFlagDel+0x15c>
                 OS_FlagTaskRdy(pnode, (OS_FLAGS)0);
300032b0:	e3a01000 	mov	r1, #0
300032b4:	e51b000c 	ldr	r0, [fp, #-12]
300032b8:	eb00024f 	bl	30003bfc <OS_FlagTaskRdy>
                 pnode = (OS_FLAG_NODE *)pnode->OSFlagNodeNext;
300032bc:	e51b300c 	ldr	r3, [fp, #-12]
300032c0:	e5933000 	ldr	r3, [r3]
300032c4:	e50b300c 	str	r3, [fp, #-12]
             while (pnode != (OS_FLAG_NODE *)0) {          /* Ready ALL tasks waiting for flags        */
300032c8:	e51b300c 	ldr	r3, [fp, #-12]
300032cc:	e3530000 	cmp	r3, #0
300032d0:	1afffff6 	bne	300032b0 <OSFlagDel+0x144>
             }
             pgrp->OSFlagType     = OS_EVENT_TYPE_UNUSED;
300032d4:	e51b3018 	ldr	r3, [fp, #-24]	@ 0xffffffe8
300032d8:	e3a02000 	mov	r2, #0
300032dc:	e5c32000 	strb	r2, [r3]
             pgrp->OSFlagWaitList = (void *)OSFlagFreeList;/* Return group to free list                */
300032e0:	e59f306c 	ldr	r3, [pc, #108]	@ 30003354 <OSFlagDel+0x1e8>
300032e4:	e5932000 	ldr	r2, [r3]
300032e8:	e51b3018 	ldr	r3, [fp, #-24]	@ 0xffffffe8
300032ec:	e5832004 	str	r2, [r3, #4]
             OSFlagFreeList       = pgrp;
300032f0:	e59f205c 	ldr	r2, [pc, #92]	@ 30003354 <OSFlagDel+0x1e8>
300032f4:	e51b3018 	ldr	r3, [fp, #-24]	@ 0xffffffe8
300032f8:	e5823000 	str	r3, [r2]
             OS_EXIT_CRITICAL();
300032fc:	e51b0010 	ldr	r0, [fp, #-16]
30003300:	ebfff431 	bl	300003cc <OS_CPU_SR_Restore>
             if (tasks_waiting == TRUE) {                  /* Reschedule only if task(s) were waiting  */
30003304:	e55b3005 	ldrb	r3, [fp, #-5]
30003308:	e3530001 	cmp	r3, #1
3000330c:	1a000000 	bne	30003314 <OSFlagDel+0x1a8>
                 OS_Sched();                               /* Find highest priority task ready to run  */
30003310:	ebfffd89 	bl	3000293c <OS_Sched>
             }
             *err = OS_NO_ERR;
30003314:	e51b3020 	ldr	r3, [fp, #-32]	@ 0xffffffe0
30003318:	e3a02000 	mov	r2, #0
3000331c:	e5c32000 	strb	r2, [r3]
             return ((OS_FLAG_GRP *)0);                    /* Event Flag Group has been deleted        */
30003320:	e3a03000 	mov	r3, #0
30003324:	ea000005 	b	30003340 <OSFlagDel+0x1d4>

        default:
             OS_EXIT_CRITICAL();
30003328:	e51b0010 	ldr	r0, [fp, #-16]
3000332c:	ebfff426 	bl	300003cc <OS_CPU_SR_Restore>
             *err = OS_ERR_INVALID_OPT;
30003330:	e51b3020 	ldr	r3, [fp, #-32]	@ 0xffffffe0
30003334:	e3a02007 	mov	r2, #7
30003338:	e5c32000 	strb	r2, [r3]
             return (pgrp);
3000333c:	e51b3018 	ldr	r3, [fp, #-24]	@ 0xffffffe8
    }
}
30003340:	e1a00003 	mov	r0, r3
30003344:	e24bd004 	sub	sp, fp, #4
30003348:	e8bd4800 	pop	{fp, lr}
3000334c:	e12fff1e 	bx	lr
30003350:	3000ac90 	.word	0x3000ac90
30003354:	3000b86c 	.word	0x3000b86c

30003358 <OSFlagPend>:
* - OS_FLAG_NODE 是临时分配在任务堆栈上的局部变量吗？不，通常它是一个结构体，这里 uC/OS-II 的实现比较特殊，
* 它使用 `OS_FLAG_NODE` 结构，任务被挂起时，这个节点被链接到标志组的链表中。
*********************************************************************************************************
*/
OS_FLAGS  OSFlagPend (OS_FLAG_GRP *pgrp, OS_FLAGS flags, INT8U wait_type, INT16U timeout, INT8U *err)
{
30003358:	e92d4800 	push	{fp, lr}
3000335c:	e28db004 	add	fp, sp, #4
30003360:	e24dd040 	sub	sp, sp, #64	@ 0x40
30003364:	e50b0030 	str	r0, [fp, #-48]	@ 0xffffffd0
30003368:	e50b1034 	str	r1, [fp, #-52]	@ 0xffffffcc
3000336c:	e1a01002 	mov	r1, r2
30003370:	e1a02003 	mov	r2, r3
30003374:	e1a03001 	mov	r3, r1
30003378:	e54b3035 	strb	r3, [fp, #-53]	@ 0xffffffcb
3000337c:	e1a03002 	mov	r3, r2
30003380:	e14b33b8 	strh	r3, [fp, #-56]	@ 0xffffffc8
    OS_FLAG_NODE  node;
    OS_FLAGS      flags_cur;
    OS_FLAGS      flags_rdy;
    BOOLEAN       consume;

    if (OSIntNesting > 0) {                                /* See if called from ISR ...               */
30003384:	e59f3460 	ldr	r3, [pc, #1120]	@ 300037ec <OSFlagPend+0x494>
30003388:	e5d33000 	ldrb	r3, [r3]
3000338c:	e3530000 	cmp	r3, #0
30003390:	0a000004 	beq	300033a8 <OSFlagPend+0x50>
        *err = OS_ERR_PEND_ISR;                            /* ... can't PEND from an ISR               */
30003394:	e59b3004 	ldr	r3, [fp, #4]
30003398:	e3a02002 	mov	r2, #2
3000339c:	e5c32000 	strb	r2, [r3]
        return ((OS_FLAGS)0);
300033a0:	e3a03000 	mov	r3, #0
300033a4:	ea00010c 	b	300037dc <OSFlagPend+0x484>
    }

    if (pgrp == (OS_FLAG_GRP *)0) {                        /* Validate 'pgrp'                          */
300033a8:	e51b3030 	ldr	r3, [fp, #-48]	@ 0xffffffd0
300033ac:	e3530000 	cmp	r3, #0
300033b0:	1a000004 	bne	300033c8 <OSFlagPend+0x70>
        *err = OS_FLAG_INVALID_PGRP;
300033b4:	e59b3004 	ldr	r3, [fp, #4]
300033b8:	e3e02069 	mvn	r2, #105	@ 0x69
300033bc:	e5c32000 	strb	r2, [r3]
        return ((OS_FLAGS)0);
300033c0:	e3a03000 	mov	r3, #0
300033c4:	ea000104 	b	300037dc <OSFlagPend+0x484>
    }
    if (pgrp->OSFlagType != OS_EVENT_TYPE_FLAG) {          /* Validate event block type                */
300033c8:	e51b3030 	ldr	r3, [fp, #-48]	@ 0xffffffd0
300033cc:	e5d33000 	ldrb	r3, [r3]
300033d0:	e3530005 	cmp	r3, #5
300033d4:	0a000004 	beq	300033ec <OSFlagPend+0x94>
        *err = OS_ERR_EVENT_TYPE;
300033d8:	e59b3004 	ldr	r3, [fp, #4]
300033dc:	e3a02001 	mov	r2, #1
300033e0:	e5c32000 	strb	r2, [r3]
        return ((OS_FLAGS)0);
300033e4:	e3a03000 	mov	r3, #0
300033e8:	ea0000fb 	b	300037dc <OSFlagPend+0x484>
    }
    if (wait_type & OS_FLAG_CONSUME) {                     /* See if we need to consume the flags      */
300033ec:	e15b33d5 	ldrsb	r3, [fp, #-53]	@ 0xffffffcb
300033f0:	e3530000 	cmp	r3, #0
300033f4:	aa000005 	bge	30003410 <OSFlagPend+0xb8>
        wait_type &= ~OS_FLAG_CONSUME;
300033f8:	e55b3035 	ldrb	r3, [fp, #-53]	@ 0xffffffcb
300033fc:	e203307f 	and	r3, r3, #127	@ 0x7f
30003400:	e54b3035 	strb	r3, [fp, #-53]	@ 0xffffffcb
        consume    = TRUE;
30003404:	e3a03001 	mov	r3, #1
30003408:	e54b3009 	strb	r3, [fp, #-9]
3000340c:	ea000001 	b	30003418 <OSFlagPend+0xc0>
    } else {
        consume    = FALSE;
30003410:	e3a03000 	mov	r3, #0
30003414:	e54b3009 	strb	r3, [fp, #-9]
    }
    OS_ENTER_CRITICAL();
30003418:	ebfff3e7 	bl	300003bc <OS_CPU_SR_Save>
3000341c:	e50b0010 	str	r0, [fp, #-16]
    switch (wait_type) {
30003420:	e55b3035 	ldrb	r3, [fp, #-53]	@ 0xffffffcb
30003424:	e3530003 	cmp	r3, #3
30003428:	979ff103 	ldrls	pc, [pc, r3, lsl #2]
3000342c:	ea0000a1 	b	300036b8 <OSFlagPend+0x360>
30003430:	3000357c 	.word	0x3000357c
30003434:	3000361c 	.word	0x3000361c
30003438:	30003440 	.word	0x30003440
3000343c:	300034e0 	.word	0x300034e0
        case OS_FLAG_WAIT_SET_ALL:                         /* See if all required flags are set        */
             flags_rdy = pgrp->OSFlagFlags & flags;        /* Extract only the bits we want            */
30003440:	e51b3030 	ldr	r3, [fp, #-48]	@ 0xffffffd0
30003444:	e5933008 	ldr	r3, [r3, #8]
30003448:	e51b2034 	ldr	r2, [fp, #-52]	@ 0xffffffcc
3000344c:	e0033002 	and	r3, r3, r2
30003450:	e50b3014 	str	r3, [fp, #-20]	@ 0xffffffec
             if (flags_rdy == flags) {                     /* Must match ALL the bits that we want     */
30003454:	e51b2014 	ldr	r2, [fp, #-20]	@ 0xffffffec
30003458:	e51b3034 	ldr	r3, [fp, #-52]	@ 0xffffffcc
3000345c:	e1520003 	cmp	r2, r3
30003460:	1a000013 	bne	300034b4 <OSFlagPend+0x15c>
                 if (consume == TRUE) {                    /* See if we need to consume the flags      */
30003464:	e55b3009 	ldrb	r3, [fp, #-9]
30003468:	e3530001 	cmp	r3, #1
3000346c:	1a000006 	bne	3000348c <OSFlagPend+0x134>
                     pgrp->OSFlagFlags &= ~flags_rdy;      /* Clear ONLY the flags that we wanted      */
30003470:	e51b3030 	ldr	r3, [fp, #-48]	@ 0xffffffd0
30003474:	e5932008 	ldr	r2, [r3, #8]
30003478:	e51b3014 	ldr	r3, [fp, #-20]	@ 0xffffffec
3000347c:	e1e03003 	mvn	r3, r3
30003480:	e0022003 	and	r2, r2, r3
30003484:	e51b3030 	ldr	r3, [fp, #-48]	@ 0xffffffd0
30003488:	e5832008 	str	r2, [r3, #8]
                 }
                 flags_cur = pgrp->OSFlagFlags;            /* Will return the state of the group       */
3000348c:	e51b3030 	ldr	r3, [fp, #-48]	@ 0xffffffd0
30003490:	e5933008 	ldr	r3, [r3, #8]
30003494:	e50b3008 	str	r3, [fp, #-8]
                 OS_EXIT_CRITICAL();                       /* Yes, condition met, return to caller     */
30003498:	e51b0010 	ldr	r0, [fp, #-16]
3000349c:	ebfff3ca 	bl	300003cc <OS_CPU_SR_Restore>
                 *err      = OS_NO_ERR;
300034a0:	e59b3004 	ldr	r3, [fp, #4]
300034a4:	e3a02000 	mov	r2, #0
300034a8:	e5c32000 	strb	r2, [r3]
                 return (flags_cur);
300034ac:	e51b3008 	ldr	r3, [fp, #-8]
300034b0:	ea0000c9 	b	300037dc <OSFlagPend+0x484>
             } else {                                      /* Block task until events occur or timeout */
                 OS_FlagBlock(pgrp, &node, flags, wait_type, timeout);
300034b4:	e55b2035 	ldrb	r2, [fp, #-53]	@ 0xffffffcb
300034b8:	e24b102c 	sub	r1, fp, #44	@ 0x2c
300034bc:	e15b33b8 	ldrh	r3, [fp, #-56]	@ 0xffffffc8
300034c0:	e58d3000 	str	r3, [sp]
300034c4:	e1a03002 	mov	r3, r2
300034c8:	e51b2034 	ldr	r2, [fp, #-52]	@ 0xffffffcc
300034cc:	e51b0030 	ldr	r0, [fp, #-48]	@ 0xffffffd0
300034d0:	eb000204 	bl	30003ce8 <OS_FlagBlock>
                 OS_EXIT_CRITICAL();
300034d4:	e51b0010 	ldr	r0, [fp, #-16]
300034d8:	ebfff3bb 	bl	300003cc <OS_CPU_SR_Restore>
             }
             break;
300034dc:	ea00007e 	b	300036dc <OSFlagPend+0x384>

        case OS_FLAG_WAIT_SET_ANY:
             flags_rdy = pgrp->OSFlagFlags & flags;        /* Extract only the bits we want            */
300034e0:	e51b3030 	ldr	r3, [fp, #-48]	@ 0xffffffd0
300034e4:	e5933008 	ldr	r3, [r3, #8]
300034e8:	e51b2034 	ldr	r2, [fp, #-52]	@ 0xffffffcc
300034ec:	e0033002 	and	r3, r3, r2
300034f0:	e50b3014 	str	r3, [fp, #-20]	@ 0xffffffec
             if (flags_rdy != (OS_FLAGS)0) {               /* See if any flag set                      */
300034f4:	e51b3014 	ldr	r3, [fp, #-20]	@ 0xffffffec
300034f8:	e3530000 	cmp	r3, #0
300034fc:	0a000013 	beq	30003550 <OSFlagPend+0x1f8>
                 if (consume == TRUE) {                    /* See if we need to consume the flags      */
30003500:	e55b3009 	ldrb	r3, [fp, #-9]
30003504:	e3530001 	cmp	r3, #1
30003508:	1a000006 	bne	30003528 <OSFlagPend+0x1d0>
                     pgrp->OSFlagFlags &= ~flags_rdy;      /* Clear ONLY the flags that we got         */
3000350c:	e51b3030 	ldr	r3, [fp, #-48]	@ 0xffffffd0
30003510:	e5932008 	ldr	r2, [r3, #8]
30003514:	e51b3014 	ldr	r3, [fp, #-20]	@ 0xffffffec
30003518:	e1e03003 	mvn	r3, r3
3000351c:	e0022003 	and	r2, r2, r3
30003520:	e51b3030 	ldr	r3, [fp, #-48]	@ 0xffffffd0
30003524:	e5832008 	str	r2, [r3, #8]
                 }
                 flags_cur = pgrp->OSFlagFlags;            /* Will return the state of the group       */
30003528:	e51b3030 	ldr	r3, [fp, #-48]	@ 0xffffffd0
3000352c:	e5933008 	ldr	r3, [r3, #8]
30003530:	e50b3008 	str	r3, [fp, #-8]
                 OS_EXIT_CRITICAL();                       /* Yes, condition met, return to caller     */
30003534:	e51b0010 	ldr	r0, [fp, #-16]
30003538:	ebfff3a3 	bl	300003cc <OS_CPU_SR_Restore>
                 *err      = OS_NO_ERR;
3000353c:	e59b3004 	ldr	r3, [fp, #4]
30003540:	e3a02000 	mov	r2, #0
30003544:	e5c32000 	strb	r2, [r3]
                 return (flags_cur);
30003548:	e51b3008 	ldr	r3, [fp, #-8]
3000354c:	ea0000a2 	b	300037dc <OSFlagPend+0x484>
             } else {                                      /* Block task until events occur or timeout */
                 OS_FlagBlock(pgrp, &node, flags, wait_type, timeout);
30003550:	e55b2035 	ldrb	r2, [fp, #-53]	@ 0xffffffcb
30003554:	e24b102c 	sub	r1, fp, #44	@ 0x2c
30003558:	e15b33b8 	ldrh	r3, [fp, #-56]	@ 0xffffffc8
3000355c:	e58d3000 	str	r3, [sp]
30003560:	e1a03002 	mov	r3, r2
30003564:	e51b2034 	ldr	r2, [fp, #-52]	@ 0xffffffcc
30003568:	e51b0030 	ldr	r0, [fp, #-48]	@ 0xffffffd0
3000356c:	eb0001dd 	bl	30003ce8 <OS_FlagBlock>
                 OS_EXIT_CRITICAL();
30003570:	e51b0010 	ldr	r0, [fp, #-16]
30003574:	ebfff394 	bl	300003cc <OS_CPU_SR_Restore>
             }
             break;
30003578:	ea000057 	b	300036dc <OSFlagPend+0x384>

        case OS_FLAG_WAIT_CLR_ALL:                         /* See if all required flags are cleared    */
             flags_rdy = ~pgrp->OSFlagFlags & flags;       /* Extract only the bits we want            */
3000357c:	e51b3030 	ldr	r3, [fp, #-48]	@ 0xffffffd0
30003580:	e5933008 	ldr	r3, [r3, #8]
30003584:	e1e03003 	mvn	r3, r3
30003588:	e51b2034 	ldr	r2, [fp, #-52]	@ 0xffffffcc
3000358c:	e0033002 	and	r3, r3, r2
30003590:	e50b3014 	str	r3, [fp, #-20]	@ 0xffffffec
             if (flags_rdy == flags) {                     /* Must match ALL the bits that we want     */
30003594:	e51b2014 	ldr	r2, [fp, #-20]	@ 0xffffffec
30003598:	e51b3034 	ldr	r3, [fp, #-52]	@ 0xffffffcc
3000359c:	e1520003 	cmp	r2, r3
300035a0:	1a000012 	bne	300035f0 <OSFlagPend+0x298>
                 if (consume == TRUE) {                    /* See if we need to consume the flags      */
300035a4:	e55b3009 	ldrb	r3, [fp, #-9]
300035a8:	e3530001 	cmp	r3, #1
300035ac:	1a000005 	bne	300035c8 <OSFlagPend+0x270>
                     pgrp->OSFlagFlags |= flags_rdy;       /* Set ONLY the flags that we wanted        */
300035b0:	e51b3030 	ldr	r3, [fp, #-48]	@ 0xffffffd0
300035b4:	e5932008 	ldr	r2, [r3, #8]
300035b8:	e51b3014 	ldr	r3, [fp, #-20]	@ 0xffffffec
300035bc:	e1822003 	orr	r2, r2, r3
300035c0:	e51b3030 	ldr	r3, [fp, #-48]	@ 0xffffffd0
300035c4:	e5832008 	str	r2, [r3, #8]
                 }
                 flags_cur = pgrp->OSFlagFlags;            /* Will return the state of the group       */
300035c8:	e51b3030 	ldr	r3, [fp, #-48]	@ 0xffffffd0
300035cc:	e5933008 	ldr	r3, [r3, #8]
300035d0:	e50b3008 	str	r3, [fp, #-8]
                 OS_EXIT_CRITICAL();                       /* Yes, condition met, return to caller     */
300035d4:	e51b0010 	ldr	r0, [fp, #-16]
300035d8:	ebfff37b 	bl	300003cc <OS_CPU_SR_Restore>
                 *err      = OS_NO_ERR;
300035dc:	e59b3004 	ldr	r3, [fp, #4]
300035e0:	e3a02000 	mov	r2, #0
300035e4:	e5c32000 	strb	r2, [r3]
                 return (flags_cur);
300035e8:	e51b3008 	ldr	r3, [fp, #-8]
300035ec:	ea00007a 	b	300037dc <OSFlagPend+0x484>
             } else {                                      /* Block task until events occur or timeout */
                 OS_FlagBlock(pgrp, &node, flags, wait_type, timeout);
300035f0:	e55b2035 	ldrb	r2, [fp, #-53]	@ 0xffffffcb
300035f4:	e24b102c 	sub	r1, fp, #44	@ 0x2c
300035f8:	e15b33b8 	ldrh	r3, [fp, #-56]	@ 0xffffffc8
300035fc:	e58d3000 	str	r3, [sp]
30003600:	e1a03002 	mov	r3, r2
30003604:	e51b2034 	ldr	r2, [fp, #-52]	@ 0xffffffcc
30003608:	e51b0030 	ldr	r0, [fp, #-48]	@ 0xffffffd0
3000360c:	eb0001b5 	bl	30003ce8 <OS_FlagBlock>
                 OS_EXIT_CRITICAL();
30003610:	e51b0010 	ldr	r0, [fp, #-16]
30003614:	ebfff36c 	bl	300003cc <OS_CPU_SR_Restore>
             }
             break;
30003618:	ea00002f 	b	300036dc <OSFlagPend+0x384>

        case OS_FLAG_WAIT_CLR_ANY:
             flags_rdy = ~pgrp->OSFlagFlags & flags;       /* Extract only the bits we want            */
3000361c:	e51b3030 	ldr	r3, [fp, #-48]	@ 0xffffffd0
30003620:	e5933008 	ldr	r3, [r3, #8]
30003624:	e1e03003 	mvn	r3, r3
30003628:	e51b2034 	ldr	r2, [fp, #-52]	@ 0xffffffcc
3000362c:	e0033002 	and	r3, r3, r2
30003630:	e50b3014 	str	r3, [fp, #-20]	@ 0xffffffec
             if (flags_rdy != (OS_FLAGS)0) {               /* See if any flag cleared                  */
30003634:	e51b3014 	ldr	r3, [fp, #-20]	@ 0xffffffec
30003638:	e3530000 	cmp	r3, #0
3000363c:	0a000012 	beq	3000368c <OSFlagPend+0x334>
                 if (consume == TRUE) {                    /* See if we need to consume the flags      */
30003640:	e55b3009 	ldrb	r3, [fp, #-9]
30003644:	e3530001 	cmp	r3, #1
30003648:	1a000005 	bne	30003664 <OSFlagPend+0x30c>
                     pgrp->OSFlagFlags |= flags_rdy;       /* Set ONLY the flags that we got           */
3000364c:	e51b3030 	ldr	r3, [fp, #-48]	@ 0xffffffd0
30003650:	e5932008 	ldr	r2, [r3, #8]
30003654:	e51b3014 	ldr	r3, [fp, #-20]	@ 0xffffffec
30003658:	e1822003 	orr	r2, r2, r3
3000365c:	e51b3030 	ldr	r3, [fp, #-48]	@ 0xffffffd0
30003660:	e5832008 	str	r2, [r3, #8]
                 }
                 flags_cur = pgrp->OSFlagFlags;            /* Will return the state of the group       */
30003664:	e51b3030 	ldr	r3, [fp, #-48]	@ 0xffffffd0
30003668:	e5933008 	ldr	r3, [r3, #8]
3000366c:	e50b3008 	str	r3, [fp, #-8]
                 OS_EXIT_CRITICAL();                       /* Yes, condition met, return to caller     */
30003670:	e51b0010 	ldr	r0, [fp, #-16]
30003674:	ebfff354 	bl	300003cc <OS_CPU_SR_Restore>
                 *err      = OS_NO_ERR;
30003678:	e59b3004 	ldr	r3, [fp, #4]
3000367c:	e3a02000 	mov	r2, #0
30003680:	e5c32000 	strb	r2, [r3]
                 return (flags_cur);
30003684:	e51b3008 	ldr	r3, [fp, #-8]
30003688:	ea000053 	b	300037dc <OSFlagPend+0x484>
             } else {                                      /* Block task until events occur or timeout */
                 OS_FlagBlock(pgrp, &node, flags, wait_type, timeout);
3000368c:	e55b2035 	ldrb	r2, [fp, #-53]	@ 0xffffffcb
30003690:	e24b102c 	sub	r1, fp, #44	@ 0x2c
30003694:	e15b33b8 	ldrh	r3, [fp, #-56]	@ 0xffffffc8
30003698:	e58d3000 	str	r3, [sp]
3000369c:	e1a03002 	mov	r3, r2
300036a0:	e51b2034 	ldr	r2, [fp, #-52]	@ 0xffffffcc
300036a4:	e51b0030 	ldr	r0, [fp, #-48]	@ 0xffffffd0
300036a8:	eb00018e 	bl	30003ce8 <OS_FlagBlock>
                 OS_EXIT_CRITICAL();
300036ac:	e51b0010 	ldr	r0, [fp, #-16]
300036b0:	ebfff345 	bl	300003cc <OS_CPU_SR_Restore>
             }
             break;
300036b4:	ea000008 	b	300036dc <OSFlagPend+0x384>

        default:
             OS_EXIT_CRITICAL();
300036b8:	e51b0010 	ldr	r0, [fp, #-16]
300036bc:	ebfff342 	bl	300003cc <OS_CPU_SR_Restore>
             flags_cur = (OS_FLAGS)0;
300036c0:	e3a03000 	mov	r3, #0
300036c4:	e50b3008 	str	r3, [fp, #-8]
             *err      = OS_FLAG_ERR_WAIT_TYPE;
300036c8:	e59b3004 	ldr	r3, [fp, #4]
300036cc:	e3e02068 	mvn	r2, #104	@ 0x68
300036d0:	e5c32000 	strb	r2, [r3]
             return (flags_cur);
300036d4:	e51b3008 	ldr	r3, [fp, #-8]
300036d8:	ea00003f 	b	300037dc <OSFlagPend+0x484>
    }
    OS_Sched();                                            /* Find next HPT ready to run               */
300036dc:	ebfffc96 	bl	3000293c <OS_Sched>
    OS_ENTER_CRITICAL();
300036e0:	ebfff335 	bl	300003bc <OS_CPU_SR_Save>
300036e4:	e50b0010 	str	r0, [fp, #-16]
    if (OSTCBCur->OSTCBStat & OS_STAT_FLAG) {              /* Have we timed-out?                       */
300036e8:	e59f3100 	ldr	r3, [pc, #256]	@ 300037f0 <OSFlagPend+0x498>
300036ec:	e5933000 	ldr	r3, [r3]
300036f0:	e5d3301f 	ldrb	r3, [r3, #31]
300036f4:	e2033020 	and	r3, r3, #32
300036f8:	e3530000 	cmp	r3, #0
300036fc:	0a00000e 	beq	3000373c <OSFlagPend+0x3e4>
        OS_FlagUnlink(&node);
30003700:	e24b302c 	sub	r3, fp, #44	@ 0x2c
30003704:	e1a00003 	mov	r0, r3
30003708:	eb0001e3 	bl	30003e9c <OS_FlagUnlink>
        OSTCBCur->OSTCBStat = OS_STAT_RDY;                 /* Yes, make task ready-to-run              */
3000370c:	e59f30dc 	ldr	r3, [pc, #220]	@ 300037f0 <OSFlagPend+0x498>
30003710:	e5933000 	ldr	r3, [r3]
30003714:	e3a02000 	mov	r2, #0
30003718:	e5c3201f 	strb	r2, [r3, #31]
        OS_EXIT_CRITICAL();
3000371c:	e51b0010 	ldr	r0, [fp, #-16]
30003720:	ebfff329 	bl	300003cc <OS_CPU_SR_Restore>
        flags_cur           = (OS_FLAGS)0;
30003724:	e3a03000 	mov	r3, #0
30003728:	e50b3008 	str	r3, [fp, #-8]
        *err                = OS_TIMEOUT;                  /* Indicate that we timed-out waiting       */
3000372c:	e59b3004 	ldr	r3, [fp, #4]
30003730:	e3a0200a 	mov	r2, #10
30003734:	e5c32000 	strb	r2, [r3]
30003738:	ea000026 	b	300037d8 <OSFlagPend+0x480>
    } 
    else {
        if (consume == TRUE) {                             /* See if we need to consume the flags      */
3000373c:	e55b3009 	ldrb	r3, [fp, #-9]
30003740:	e3530001 	cmp	r3, #1
30003744:	1a00001b 	bne	300037b8 <OSFlagPend+0x460>
            switch (wait_type) {
30003748:	e55b3035 	ldrb	r3, [fp, #-53]	@ 0xffffffcb
3000374c:	e3530001 	cmp	r3, #1
30003750:	ca000002 	bgt	30003760 <OSFlagPend+0x408>
30003754:	e3530000 	cmp	r3, #0
30003758:	aa00000d 	bge	30003794 <OSFlagPend+0x43c>
3000375c:	ea000015 	b	300037b8 <OSFlagPend+0x460>
30003760:	e2433002 	sub	r3, r3, #2
30003764:	e3530001 	cmp	r3, #1
30003768:	8a000012 	bhi	300037b8 <OSFlagPend+0x460>
                case OS_FLAG_WAIT_SET_ALL:
                case OS_FLAG_WAIT_SET_ANY:                 /* Clear ONLY the flags we got              */
                     pgrp->OSFlagFlags &= ~OSTCBCur->OSTCBFlagsRdy;
3000376c:	e51b3030 	ldr	r3, [fp, #-48]	@ 0xffffffd0
30003770:	e5932008 	ldr	r2, [r3, #8]
30003774:	e59f3074 	ldr	r3, [pc, #116]	@ 300037f0 <OSFlagPend+0x498>
30003778:	e5933000 	ldr	r3, [r3]
3000377c:	e5933018 	ldr	r3, [r3, #24]
30003780:	e1e03003 	mvn	r3, r3
30003784:	e0022003 	and	r2, r2, r3
30003788:	e51b3030 	ldr	r3, [fp, #-48]	@ 0xffffffd0
3000378c:	e5832008 	str	r2, [r3, #8]
                     break;
30003790:	ea000008 	b	300037b8 <OSFlagPend+0x460>

                case OS_FLAG_WAIT_CLR_ALL:
                case OS_FLAG_WAIT_CLR_ANY:                 /* Set   ONLY the flags we got              */
                     pgrp->OSFlagFlags |= OSTCBCur->OSTCBFlagsRdy;
30003794:	e51b3030 	ldr	r3, [fp, #-48]	@ 0xffffffd0
30003798:	e5932008 	ldr	r2, [r3, #8]
3000379c:	e59f304c 	ldr	r3, [pc, #76]	@ 300037f0 <OSFlagPend+0x498>
300037a0:	e5933000 	ldr	r3, [r3]
300037a4:	e5933018 	ldr	r3, [r3, #24]
300037a8:	e1822003 	orr	r2, r2, r3
300037ac:	e51b3030 	ldr	r3, [fp, #-48]	@ 0xffffffd0
300037b0:	e5832008 	str	r2, [r3, #8]
                     break;
300037b4:	e1a00000 	nop			@ (mov r0, r0)
            }
        }
        flags_cur = pgrp->OSFlagFlags;
300037b8:	e51b3030 	ldr	r3, [fp, #-48]	@ 0xffffffd0
300037bc:	e5933008 	ldr	r3, [r3, #8]
300037c0:	e50b3008 	str	r3, [fp, #-8]
        OS_EXIT_CRITICAL();
300037c4:	e51b0010 	ldr	r0, [fp, #-16]
300037c8:	ebfff2ff 	bl	300003cc <OS_CPU_SR_Restore>
        *err      = OS_NO_ERR;                             /* Event(s) must have occurred              */
300037cc:	e59b3004 	ldr	r3, [fp, #4]
300037d0:	e3a02000 	mov	r2, #0
300037d4:	e5c32000 	strb	r2, [r3]
    }
    return (flags_cur);
300037d8:	e51b3008 	ldr	r3, [fp, #-8]
}
300037dc:	e1a00003 	mov	r0, r3
300037e0:	e24bd004 	sub	sp, fp, #4
300037e4:	e8bd4800 	pop	{fp, lr}
300037e8:	e12fff1e 	bx	lr
300037ec:	3000ac90 	.word	0x3000ac90
300037f0:	3000b5b8 	.word	0x3000b5b8

300037f4 <OSFlagPost>:
* 移植要点:
* - 这里的链表遍历在临界区内，如果是长链表，在 ARM9 上需注意中断延迟。
*********************************************************************************************************
*/
OS_FLAGS  OSFlagPost (OS_FLAG_GRP *pgrp, OS_FLAGS flags, INT8U opt, INT8U *err)
{
300037f4:	e92d4800 	push	{fp, lr}
300037f8:	e28db004 	add	fp, sp, #4
300037fc:	e24dd028 	sub	sp, sp, #40	@ 0x28
30003800:	e50b0020 	str	r0, [fp, #-32]	@ 0xffffffe0
30003804:	e50b1024 	str	r1, [fp, #-36]	@ 0xffffffdc
30003808:	e50b302c 	str	r3, [fp, #-44]	@ 0xffffffd4
3000380c:	e1a03002 	mov	r3, r2
30003810:	e54b3025 	strb	r3, [fp, #-37]	@ 0xffffffdb
    OS_FLAG_NODE *pnode;
    BOOLEAN sched;
    OS_FLAGS flags_cur;
    OS_FLAGS flags_rdy;

    if (pgrp == (OS_FLAG_GRP *)0) {                        
30003814:	e51b3020 	ldr	r3, [fp, #-32]	@ 0xffffffe0
30003818:	e3530000 	cmp	r3, #0
3000381c:	1a000004 	bne	30003834 <OSFlagPost+0x40>
        *err = OS_FLAG_INVALID_PGRP;
30003820:	e51b302c 	ldr	r3, [fp, #-44]	@ 0xffffffd4
30003824:	e3e02069 	mvn	r2, #105	@ 0x69
30003828:	e5c32000 	strb	r2, [r3]
        return ((OS_FLAGS)0);
3000382c:	e3a03000 	mov	r3, #0
30003830:	ea00009f 	b	30003ab4 <OSFlagPost+0x2c0>
    }
    if (pgrp->OSFlagType != OS_EVENT_TYPE_FLAG) {   
30003834:	e51b3020 	ldr	r3, [fp, #-32]	@ 0xffffffe0
30003838:	e5d33000 	ldrb	r3, [r3]
3000383c:	e3530005 	cmp	r3, #5
30003840:	0a000004 	beq	30003858 <OSFlagPost+0x64>
        *err = OS_ERR_EVENT_TYPE;
30003844:	e51b302c 	ldr	r3, [fp, #-44]	@ 0xffffffd4
30003848:	e3a02001 	mov	r2, #1
3000384c:	e5c32000 	strb	r2, [r3]
        return ((OS_FLAGS)0);
30003850:	e3a03000 	mov	r3, #0
30003854:	ea000096 	b	30003ab4 <OSFlagPost+0x2c0>
    }
    switch (opt) {
30003858:	e55b3025 	ldrb	r3, [fp, #-37]	@ 0xffffffdb
3000385c:	e3530000 	cmp	r3, #0
30003860:	0a000002 	beq	30003870 <OSFlagPost+0x7c>
30003864:	e3530001 	cmp	r3, #1
30003868:	0a000008 	beq	30003890 <OSFlagPost+0x9c>
3000386c:	ea00000e 	b	300038ac <OSFlagPost+0xb8>
        case OS_FLAG_CLR:
            pgrp->OSFlagFlags &= ~flags;            /* Clear the flags specified in the group         */
30003870:	e51b3020 	ldr	r3, [fp, #-32]	@ 0xffffffe0
30003874:	e5932008 	ldr	r2, [r3, #8]
30003878:	e51b3024 	ldr	r3, [fp, #-36]	@ 0xffffffdc
3000387c:	e1e03003 	mvn	r3, r3
30003880:	e0022003 	and	r2, r2, r3
30003884:	e51b3020 	ldr	r3, [fp, #-32]	@ 0xffffffe0
30003888:	e5832008 	str	r2, [r3, #8]
            break;
3000388c:	ea00000b 	b	300038c0 <OSFlagPost+0xcc>

        case OS_FLAG_SET:
            pgrp->OSFlagFlags |=  flags;            /* Set   the flags specified in the group         */
30003890:	e51b3020 	ldr	r3, [fp, #-32]	@ 0xffffffe0
30003894:	e5932008 	ldr	r2, [r3, #8]
30003898:	e51b3024 	ldr	r3, [fp, #-36]	@ 0xffffffdc
3000389c:	e1822003 	orr	r2, r2, r3
300038a0:	e51b3020 	ldr	r3, [fp, #-32]	@ 0xffffffe0
300038a4:	e5832008 	str	r2, [r3, #8]
            break;
300038a8:	ea000004 	b	300038c0 <OSFlagPost+0xcc>

        default:                                    /* INVALID option                                 */
            *err = OS_FLAG_INVALID_OPT;
300038ac:	e51b302c 	ldr	r3, [fp, #-44]	@ 0xffffffd4
300038b0:	e3e02066 	mvn	r2, #102	@ 0x66
300038b4:	e5c32000 	strb	r2, [r3]
            return ((OS_FLAGS)0);
300038b8:	e3a03000 	mov	r3, #0
300038bc:	ea00007c 	b	30003ab4 <OSFlagPost+0x2c0>
    }
    OS_ENTER_CRITICAL();
300038c0:	ebfff2bd 	bl	300003bc <OS_CPU_SR_Save>
300038c4:	e50b0010 	str	r0, [fp, #-16]
    sched = FALSE;                                   /* Indicate that we don't need rescheduling       */
300038c8:	e3a03000 	mov	r3, #0
300038cc:	e54b3009 	strb	r3, [fp, #-9]
    pnode = (OS_FLAG_NODE *)pgrp->OSFlagWaitList;
300038d0:	e51b3020 	ldr	r3, [fp, #-32]	@ 0xffffffe0
300038d4:	e5933004 	ldr	r3, [r3, #4]
300038d8:	e50b3008 	str	r3, [fp, #-8]
    while (pnode != (OS_FLAG_NODE *)0) {             /* Go through all tasks waiting on event flag(s)  */
300038dc:	ea000060 	b	30003a64 <OSFlagPost+0x270>
        switch (pnode->OSFlagNodeWaitType) {
300038e0:	e51b3008 	ldr	r3, [fp, #-8]
300038e4:	e5d33014 	ldrb	r3, [r3, #20]
300038e8:	e3530003 	cmp	r3, #3
300038ec:	979ff103 	ldrls	pc, [pc, r3, lsl #2]
300038f0:	ea000058 	b	30003a58 <OSFlagPost+0x264>
300038f4:	3000399c 	.word	0x3000399c
300038f8:	300039f0 	.word	0x300039f0
300038fc:	30003904 	.word	0x30003904
30003900:	30003954 	.word	0x30003954
            case OS_FLAG_WAIT_SET_ALL:               /* See if all req. flags are set for current node */
                flags_rdy = pgrp->OSFlagFlags & pnode->OSFlagNodeFlags;
30003904:	e51b3020 	ldr	r3, [fp, #-32]	@ 0xffffffe0
30003908:	e5932008 	ldr	r2, [r3, #8]
3000390c:	e51b3008 	ldr	r3, [fp, #-8]
30003910:	e5933010 	ldr	r3, [r3, #16]
30003914:	e0033002 	and	r3, r3, r2
30003918:	e50b3018 	str	r3, [fp, #-24]	@ 0xffffffe8
                if (flags_rdy == pnode->OSFlagNodeFlags) {
3000391c:	e51b3008 	ldr	r3, [fp, #-8]
30003920:	e5933010 	ldr	r3, [r3, #16]
30003924:	e51b2018 	ldr	r2, [fp, #-24]	@ 0xffffffe8
30003928:	e1520003 	cmp	r2, r3
3000392c:	1a000042 	bne	30003a3c <OSFlagPost+0x248>
                    if (OS_FlagTaskRdy(pnode, flags_rdy) == TRUE) { /* Make task RTR, event(s) Rx'd   */
30003930:	e51b1018 	ldr	r1, [fp, #-24]	@ 0xffffffe8
30003934:	e51b0008 	ldr	r0, [fp, #-8]
30003938:	eb0000af 	bl	30003bfc <OS_FlagTaskRdy>
3000393c:	e1a03000 	mov	r3, r0
30003940:	e3530001 	cmp	r3, #1
30003944:	1a00003c 	bne	30003a3c <OSFlagPost+0x248>
                        sched = TRUE;                               /* When done we will reschedule   */
30003948:	e3a03001 	mov	r3, #1
3000394c:	e54b3009 	strb	r3, [fp, #-9]
                    }
                }
                break;
30003950:	ea000039 	b	30003a3c <OSFlagPost+0x248>

            case OS_FLAG_WAIT_SET_ANY:               /* See if any flag set                            */
                flags_rdy = pgrp->OSFlagFlags & pnode->OSFlagNodeFlags;
30003954:	e51b3020 	ldr	r3, [fp, #-32]	@ 0xffffffe0
30003958:	e5932008 	ldr	r2, [r3, #8]
3000395c:	e51b3008 	ldr	r3, [fp, #-8]
30003960:	e5933010 	ldr	r3, [r3, #16]
30003964:	e0033002 	and	r3, r3, r2
30003968:	e50b3018 	str	r3, [fp, #-24]	@ 0xffffffe8
                if (flags_rdy != (OS_FLAGS)0) {
3000396c:	e51b3018 	ldr	r3, [fp, #-24]	@ 0xffffffe8
30003970:	e3530000 	cmp	r3, #0
30003974:	0a000032 	beq	30003a44 <OSFlagPost+0x250>
                    if (OS_FlagTaskRdy(pnode, flags_rdy) == TRUE) { /* Make task RTR, event(s) Rx'd   */
30003978:	e51b1018 	ldr	r1, [fp, #-24]	@ 0xffffffe8
3000397c:	e51b0008 	ldr	r0, [fp, #-8]
30003980:	eb00009d 	bl	30003bfc <OS_FlagTaskRdy>
30003984:	e1a03000 	mov	r3, r0
30003988:	e3530001 	cmp	r3, #1
3000398c:	1a00002c 	bne	30003a44 <OSFlagPost+0x250>
                        sched = TRUE;                               /* When done we will reschedule   */
30003990:	e3a03001 	mov	r3, #1
30003994:	e54b3009 	strb	r3, [fp, #-9]
                    }
                }
                break;
30003998:	ea000029 	b	30003a44 <OSFlagPost+0x250>

            case OS_FLAG_WAIT_CLR_ALL:               /* See if all req. flags are set for current node */
                flags_rdy = ~pgrp->OSFlagFlags & pnode->OSFlagNodeFlags;
3000399c:	e51b3020 	ldr	r3, [fp, #-32]	@ 0xffffffe0
300039a0:	e5933008 	ldr	r3, [r3, #8]
300039a4:	e1e02003 	mvn	r2, r3
300039a8:	e51b3008 	ldr	r3, [fp, #-8]
300039ac:	e5933010 	ldr	r3, [r3, #16]
300039b0:	e0033002 	and	r3, r3, r2
300039b4:	e50b3018 	str	r3, [fp, #-24]	@ 0xffffffe8
                if (flags_rdy == pnode->OSFlagNodeFlags) {
300039b8:	e51b3008 	ldr	r3, [fp, #-8]
300039bc:	e5933010 	ldr	r3, [r3, #16]
300039c0:	e51b2018 	ldr	r2, [fp, #-24]	@ 0xffffffe8
300039c4:	e1520003 	cmp	r2, r3
300039c8:	1a00001f 	bne	30003a4c <OSFlagPost+0x258>
                    if (OS_FlagTaskRdy(pnode, flags_rdy) == TRUE) { /* Make task RTR, event(s) Rx'd   */
300039cc:	e51b1018 	ldr	r1, [fp, #-24]	@ 0xffffffe8
300039d0:	e51b0008 	ldr	r0, [fp, #-8]
300039d4:	eb000088 	bl	30003bfc <OS_FlagTaskRdy>
300039d8:	e1a03000 	mov	r3, r0
300039dc:	e3530001 	cmp	r3, #1
300039e0:	1a000019 	bne	30003a4c <OSFlagPost+0x258>
                        sched = TRUE;                               /* When done we will reschedule   */
300039e4:	e3a03001 	mov	r3, #1
300039e8:	e54b3009 	strb	r3, [fp, #-9]
                    }
                }
                break;
300039ec:	ea000016 	b	30003a4c <OSFlagPost+0x258>

            case OS_FLAG_WAIT_CLR_ANY:               /* See if any flag set                            */
                flags_rdy = ~pgrp->OSFlagFlags & pnode->OSFlagNodeFlags;
300039f0:	e51b3020 	ldr	r3, [fp, #-32]	@ 0xffffffe0
300039f4:	e5933008 	ldr	r3, [r3, #8]
300039f8:	e1e02003 	mvn	r2, r3
300039fc:	e51b3008 	ldr	r3, [fp, #-8]
30003a00:	e5933010 	ldr	r3, [r3, #16]
30003a04:	e0033002 	and	r3, r3, r2
30003a08:	e50b3018 	str	r3, [fp, #-24]	@ 0xffffffe8
                if (flags_rdy != (OS_FLAGS)0) {
30003a0c:	e51b3018 	ldr	r3, [fp, #-24]	@ 0xffffffe8
30003a10:	e3530000 	cmp	r3, #0
30003a14:	0a00000e 	beq	30003a54 <OSFlagPost+0x260>
                    if (OS_FlagTaskRdy(pnode, flags_rdy) == TRUE) { /* Make task RTR, event(s) Rx'd   */
30003a18:	e51b1018 	ldr	r1, [fp, #-24]	@ 0xffffffe8
30003a1c:	e51b0008 	ldr	r0, [fp, #-8]
30003a20:	eb000075 	bl	30003bfc <OS_FlagTaskRdy>
30003a24:	e1a03000 	mov	r3, r0
30003a28:	e3530001 	cmp	r3, #1
30003a2c:	1a000008 	bne	30003a54 <OSFlagPost+0x260>
                        sched = TRUE;                               /* When done we will reschedule   */
30003a30:	e3a03001 	mov	r3, #1
30003a34:	e54b3009 	strb	r3, [fp, #-9]
                    }
                }
                break;
30003a38:	ea000005 	b	30003a54 <OSFlagPost+0x260>
                break;
30003a3c:	e1a00000 	nop			@ (mov r0, r0)
30003a40:	ea000004 	b	30003a58 <OSFlagPost+0x264>
                break;
30003a44:	e1a00000 	nop			@ (mov r0, r0)
30003a48:	ea000002 	b	30003a58 <OSFlagPost+0x264>
                break;
30003a4c:	e1a00000 	nop			@ (mov r0, r0)
30003a50:	ea000000 	b	30003a58 <OSFlagPost+0x264>
                break;
30003a54:	e1a00000 	nop			@ (mov r0, r0)
        }
        pnode = (OS_FLAG_NODE *)pnode->OSFlagNodeNext; /* Point to next task waiting for event flag(s) */
30003a58:	e51b3008 	ldr	r3, [fp, #-8]
30003a5c:	e5933000 	ldr	r3, [r3]
30003a60:	e50b3008 	str	r3, [fp, #-8]
    while (pnode != (OS_FLAG_NODE *)0) {             /* Go through all tasks waiting on event flag(s)  */
30003a64:	e51b3008 	ldr	r3, [fp, #-8]
30003a68:	e3530000 	cmp	r3, #0
30003a6c:	1affff9b 	bne	300038e0 <OSFlagPost+0xec>
    }
    OS_EXIT_CRITICAL();
30003a70:	e51b0010 	ldr	r0, [fp, #-16]
30003a74:	ebfff254 	bl	300003cc <OS_CPU_SR_Restore>
    if (sched == TRUE) {
30003a78:	e55b3009 	ldrb	r3, [fp, #-9]
30003a7c:	e3530001 	cmp	r3, #1
30003a80:	1a000000 	bne	30003a88 <OSFlagPost+0x294>
        OS_Sched();
30003a84:	ebfffbac 	bl	3000293c <OS_Sched>
    }
    OS_ENTER_CRITICAL();
30003a88:	ebfff24b 	bl	300003bc <OS_CPU_SR_Save>
30003a8c:	e50b0010 	str	r0, [fp, #-16]
    flags_cur = pgrp->OSFlagFlags;
30003a90:	e51b3020 	ldr	r3, [fp, #-32]	@ 0xffffffe0
30003a94:	e5933008 	ldr	r3, [r3, #8]
30003a98:	e50b3014 	str	r3, [fp, #-20]	@ 0xffffffec
    OS_EXIT_CRITICAL();
30003a9c:	e51b0010 	ldr	r0, [fp, #-16]
30003aa0:	ebfff249 	bl	300003cc <OS_CPU_SR_Restore>
    *err      = OS_NO_ERR;
30003aa4:	e51b302c 	ldr	r3, [fp, #-44]	@ 0xffffffd4
30003aa8:	e3a02000 	mov	r2, #0
30003aac:	e5c32000 	strb	r2, [r3]
    return (flags_cur);
30003ab0:	e51b3014 	ldr	r3, [fp, #-20]	@ 0xffffffec
}        
30003ab4:	e1a00003 	mov	r0, r3
30003ab8:	e24bd004 	sub	sp, fp, #4
30003abc:	e8bd4800 	pop	{fp, lr}
30003ac0:	e12fff1e 	bx	lr

30003ac4 <OSFlagQuery>:
* 移植要点:
* - 无。
*********************************************************************************************************
*/
OS_FLAGS  OSFlagQuery (OS_FLAG_GRP *pgrp, INT8U *err)
{
30003ac4:	e92d4800 	push	{fp, lr}
30003ac8:	e28db004 	add	fp, sp, #4
30003acc:	e24dd010 	sub	sp, sp, #16
30003ad0:	e50b0010 	str	r0, [fp, #-16]
30003ad4:	e50b1014 	str	r1, [fp, #-20]	@ 0xffffffec
    OS_CPU_SR cpu_sr;
    OS_FLAGS flags;

    if(pgrp == (OS_FLAG_GRP *)0){
30003ad8:	e51b3010 	ldr	r3, [fp, #-16]
30003adc:	e3530000 	cmp	r3, #0
30003ae0:	1a000004 	bne	30003af8 <OSFlagQuery+0x34>
        *err = OS_FLAG_INVALID_PGRP;
30003ae4:	e51b3014 	ldr	r3, [fp, #-20]	@ 0xffffffec
30003ae8:	e3e02069 	mvn	r2, #105	@ 0x69
30003aec:	e5c32000 	strb	r2, [r3]
        return ((OS_FLAGS)0);
30003af0:	e3a03000 	mov	r3, #0
30003af4:	ea000013 	b	30003b48 <OSFlagQuery+0x84>
    }
    if(pgrp->OSFlagType != OS_EVENT_TYPE_FLAG){
30003af8:	e51b3010 	ldr	r3, [fp, #-16]
30003afc:	e5d33000 	ldrb	r3, [r3]
30003b00:	e3530005 	cmp	r3, #5
30003b04:	0a000004 	beq	30003b1c <OSFlagQuery+0x58>
        *err = OS_ERR_EVENT_TYPE;
30003b08:	e51b3014 	ldr	r3, [fp, #-20]	@ 0xffffffec
30003b0c:	e3a02001 	mov	r2, #1
30003b10:	e5c32000 	strb	r2, [r3]
        return ((OS_FLAGS)0);
30003b14:	e3a03000 	mov	r3, #0
30003b18:	ea00000a 	b	30003b48 <OSFlagQuery+0x84>
    }
    OS_ENTER_CRITICAL();
30003b1c:	ebfff226 	bl	300003bc <OS_CPU_SR_Save>
30003b20:	e50b0008 	str	r0, [fp, #-8]
    flags = pgrp->OSFlagFlags;
30003b24:	e51b3010 	ldr	r3, [fp, #-16]
30003b28:	e5933008 	ldr	r3, [r3, #8]
30003b2c:	e50b300c 	str	r3, [fp, #-12]
    OS_EXIT_CRITICAL();
30003b30:	e51b0008 	ldr	r0, [fp, #-8]
30003b34:	ebfff224 	bl	300003cc <OS_CPU_SR_Restore>
    *err = OS_NO_ERR;
30003b38:	e51b3014 	ldr	r3, [fp, #-20]	@ 0xffffffec
30003b3c:	e3a02000 	mov	r2, #0
30003b40:	e5c32000 	strb	r2, [r3]
    return (flags);
30003b44:	e51b300c 	ldr	r3, [fp, #-12]
}
30003b48:	e1a00003 	mov	r0, r3
30003b4c:	e24bd004 	sub	sp, fp, #4
30003b50:	e8bd4800 	pop	{fp, lr}
30003b54:	e12fff1e 	bx	lr

30003b58 <OS_FlagInit>:
* 移植要点:
* - 无。
*********************************************************************************************************
*/
void  OS_FlagInit (void)
{
30003b58:	e52db004 	push	{fp}		@ (str fp, [sp, #-4]!)
30003b5c:	e28db000 	add	fp, sp, #0
30003b60:	e24dd014 	sub	sp, sp, #20
    OSFlagFreeList = (OS_FLAG_GRP *)&OSFlagTbl[0];
    OSFlagFreeList->OSFlagType = OS_EVENT_TYPE_UNUSED;
    OSFlagFreeList->OSFlagWaitList = (void *)0;
#elif OS_MAX_FLAGS >= 2
    OS_FLAG_GRP *pgrp1, *pgrp2;
    pgrp1 = &OSFlagTbl[0];
30003b64:	e59f3084 	ldr	r3, [pc, #132]	@ 30003bf0 <OS_FlagInit+0x98>
30003b68:	e50b3008 	str	r3, [fp, #-8]
    pgrp2 = &OSFlagTbl[1];
30003b6c:	e59f3080 	ldr	r3, [pc, #128]	@ 30003bf4 <OS_FlagInit+0x9c>
30003b70:	e50b300c 	str	r3, [fp, #-12]
    for(INT16U i = 0; i < (OS_MAX_FLAGS - 1); i++){
30003b74:	e3a03000 	mov	r3, #0
30003b78:	e14b30be 	strh	r3, [fp, #-14]
30003b7c:	ea00000e 	b	30003bbc <OS_FlagInit+0x64>
        pgrp1->OSFlagType = OS_EVENT_TYPE_UNUSED;
30003b80:	e51b3008 	ldr	r3, [fp, #-8]
30003b84:	e3a02000 	mov	r2, #0
30003b88:	e5c32000 	strb	r2, [r3]
        pgrp1->OSFlagWaitList = (void *)pgrp2;
30003b8c:	e51b3008 	ldr	r3, [fp, #-8]
30003b90:	e51b200c 	ldr	r2, [fp, #-12]
30003b94:	e5832004 	str	r2, [r3, #4]
        pgrp1++;
30003b98:	e51b3008 	ldr	r3, [fp, #-8]
30003b9c:	e283300c 	add	r3, r3, #12
30003ba0:	e50b3008 	str	r3, [fp, #-8]
        pgrp2++;
30003ba4:	e51b300c 	ldr	r3, [fp, #-12]
30003ba8:	e283300c 	add	r3, r3, #12
30003bac:	e50b300c 	str	r3, [fp, #-12]
    for(INT16U i = 0; i < (OS_MAX_FLAGS - 1); i++){
30003bb0:	e15b30be 	ldrh	r3, [fp, #-14]
30003bb4:	e2833001 	add	r3, r3, #1
30003bb8:	e14b30be 	strh	r3, [fp, #-14]
30003bbc:	e15b30be 	ldrh	r3, [fp, #-14]
30003bc0:	e3530003 	cmp	r3, #3
30003bc4:	9affffed 	bls	30003b80 <OS_FlagInit+0x28>
    }
    pgrp1->OSFlagWaitList = (void *)0;
30003bc8:	e51b3008 	ldr	r3, [fp, #-8]
30003bcc:	e3a02000 	mov	r2, #0
30003bd0:	e5832004 	str	r2, [r3, #4]
    OSFlagFreeList = (OS_FLAG_GRP *)&OSFlagTbl[0];
30003bd4:	e59f301c 	ldr	r3, [pc, #28]	@ 30003bf8 <OS_FlagInit+0xa0>
30003bd8:	e59f2010 	ldr	r2, [pc, #16]	@ 30003bf0 <OS_FlagInit+0x98>
30003bdc:	e5832000 	str	r2, [r3]
#endif
}
30003be0:	e1a00000 	nop			@ (mov r0, r0)
30003be4:	e28bd000 	add	sp, fp, #0
30003be8:	e49db004 	pop	{fp}		@ (ldr fp, [sp], #4)
30003bec:	e12fff1e 	bx	lr
30003bf0:	3000b870 	.word	0x3000b870
30003bf4:	3000b87c 	.word	0x3000b87c
30003bf8:	3000b86c 	.word	0x3000b86c

30003bfc <OS_FlagTaskRdy>:
* 移植要点:
* - 无。
*********************************************************************************************************
*/
static  BOOLEAN  OS_FlagTaskRdy (OS_FLAG_NODE *pnode, OS_FLAGS flags_rdy)
{
30003bfc:	e92d4800 	push	{fp, lr}
30003c00:	e28db004 	add	fp, sp, #4
30003c04:	e24dd010 	sub	sp, sp, #16
30003c08:	e50b0010 	str	r0, [fp, #-16]
30003c0c:	e50b1014 	str	r1, [fp, #-20]	@ 0xffffffec
    OS_TCB   *ptcb;
    BOOLEAN   sched;

    ptcb                = (OS_TCB *)pnode->OSFlagNodeTCB;  /* Point to TCB of waiting task             */
30003c10:	e51b3010 	ldr	r3, [fp, #-16]
30003c14:	e5933008 	ldr	r3, [r3, #8]
30003c18:	e50b300c 	str	r3, [fp, #-12]
    ptcb->OSTCBDly      = 0;
30003c1c:	e51b300c 	ldr	r3, [fp, #-12]
30003c20:	e3a02000 	mov	r2, #0
30003c24:	e1c321bc 	strh	r2, [r3, #28]
    ptcb->OSTCBFlagsRdy = flags_rdy;
30003c28:	e51b300c 	ldr	r3, [fp, #-12]
30003c2c:	e51b2014 	ldr	r2, [fp, #-20]	@ 0xffffffec
30003c30:	e5832018 	str	r2, [r3, #24]
    ptcb->OSTCBStat    &= ~OS_STAT_FLAG;
30003c34:	e51b300c 	ldr	r3, [fp, #-12]
30003c38:	e5d3301f 	ldrb	r3, [r3, #31]
30003c3c:	e3c33020 	bic	r3, r3, #32
30003c40:	e20320ff 	and	r2, r3, #255	@ 0xff
30003c44:	e51b300c 	ldr	r3, [fp, #-12]
30003c48:	e5c3201f 	strb	r2, [r3, #31]
    if (ptcb->OSTCBStat == OS_STAT_RDY) {                  /* Put task into ready list                 */
30003c4c:	e51b300c 	ldr	r3, [fp, #-12]
30003c50:	e5d3301f 	ldrb	r3, [r3, #31]
30003c54:	e3530000 	cmp	r3, #0
30003c58:	1a000017 	bne	30003cbc <OS_FlagTaskRdy+0xc0>
        OSRdyGrp               |= ptcb->OSTCBBitY;
30003c5c:	e51b300c 	ldr	r3, [fp, #-12]
30003c60:	e5d32023 	ldrb	r2, [r3, #35]	@ 0x23
30003c64:	e59f3074 	ldr	r3, [pc, #116]	@ 30003ce0 <OS_FlagTaskRdy+0xe4>
30003c68:	e5d33000 	ldrb	r3, [r3]
30003c6c:	e1823003 	orr	r3, r2, r3
30003c70:	e20320ff 	and	r2, r3, #255	@ 0xff
30003c74:	e59f3064 	ldr	r3, [pc, #100]	@ 30003ce0 <OS_FlagTaskRdy+0xe4>
30003c78:	e5c32000 	strb	r2, [r3]
        OSRdyTbl[ptcb->OSTCBY] |= ptcb->OSTCBBitX;
30003c7c:	e51b300c 	ldr	r3, [fp, #-12]
30003c80:	e5d33021 	ldrb	r3, [r3, #33]	@ 0x21
30003c84:	e1a02003 	mov	r2, r3
30003c88:	e59f3054 	ldr	r3, [pc, #84]	@ 30003ce4 <OS_FlagTaskRdy+0xe8>
30003c8c:	e7d32002 	ldrb	r2, [r3, r2]
30003c90:	e51b300c 	ldr	r3, [fp, #-12]
30003c94:	e5d33022 	ldrb	r3, [r3, #34]	@ 0x22
30003c98:	e51b100c 	ldr	r1, [fp, #-12]
30003c9c:	e5d11021 	ldrb	r1, [r1, #33]	@ 0x21
30003ca0:	e1823003 	orr	r3, r2, r3
30003ca4:	e20320ff 	and	r2, r3, #255	@ 0xff
30003ca8:	e59f3034 	ldr	r3, [pc, #52]	@ 30003ce4 <OS_FlagTaskRdy+0xe8>
30003cac:	e7c32001 	strb	r2, [r3, r1]
        sched                   = TRUE;
30003cb0:	e3a03001 	mov	r3, #1
30003cb4:	e54b3005 	strb	r3, [fp, #-5]
30003cb8:	ea000001 	b	30003cc4 <OS_FlagTaskRdy+0xc8>
    } else {
        sched                   = FALSE;
30003cbc:	e3a03000 	mov	r3, #0
30003cc0:	e54b3005 	strb	r3, [fp, #-5]
    }
    OS_FlagUnlink(pnode);
30003cc4:	e51b0010 	ldr	r0, [fp, #-16]
30003cc8:	eb000073 	bl	30003e9c <OS_FlagUnlink>
    return (sched);
30003ccc:	e55b3005 	ldrb	r3, [fp, #-5]
}
30003cd0:	e1a00003 	mov	r0, r3
30003cd4:	e24bd004 	sub	sp, fp, #4
30003cd8:	e8bd4800 	pop	{fp, lr}
30003cdc:	e12fff1e 	bx	lr
30003ce0:	3000ac95 	.word	0x3000ac95
30003ce4:	3000ac98 	.word	0x3000ac98

30003ce8 <OS_FlagBlock>:
* 移植要点:
* - 无。
*********************************************************************************************************
*/
static  void  OS_FlagBlock (OS_FLAG_GRP *pgrp, OS_FLAG_NODE *pnode, OS_FLAGS flags, INT8U wait_type, INT16U timeout)
{
30003ce8:	e52db004 	push	{fp}		@ (str fp, [sp, #-4]!)
30003cec:	e28db000 	add	fp, sp, #0
30003cf0:	e24dd01c 	sub	sp, sp, #28
30003cf4:	e50b0010 	str	r0, [fp, #-16]
30003cf8:	e50b1014 	str	r1, [fp, #-20]	@ 0xffffffec
30003cfc:	e50b2018 	str	r2, [fp, #-24]	@ 0xffffffe8
30003d00:	e54b3019 	strb	r3, [fp, #-25]	@ 0xffffffe7
    OS_FLAG_NODE  *pnode_next;

    OSTCBCur->OSTCBStat      |= OS_STAT_FLAG;
30003d04:	e59f3184 	ldr	r3, [pc, #388]	@ 30003e90 <OS_FlagBlock+0x1a8>
30003d08:	e5933000 	ldr	r3, [r3]
30003d0c:	e5d3201f 	ldrb	r2, [r3, #31]
30003d10:	e59f3178 	ldr	r3, [pc, #376]	@ 30003e90 <OS_FlagBlock+0x1a8>
30003d14:	e5933000 	ldr	r3, [r3]
30003d18:	e3822020 	orr	r2, r2, #32
30003d1c:	e20220ff 	and	r2, r2, #255	@ 0xff
30003d20:	e5c3201f 	strb	r2, [r3, #31]
    OSTCBCur->OSTCBDly        = timeout;              /* Store timeout in task's TCB                   */
30003d24:	e59f3164 	ldr	r3, [pc, #356]	@ 30003e90 <OS_FlagBlock+0x1a8>
30003d28:	e5933000 	ldr	r3, [r3]
30003d2c:	e1db20b4 	ldrh	r2, [fp, #4]
30003d30:	e1c321bc 	strh	r2, [r3, #28]
    OSTCBCur->OSTCBFlagNode   = pnode;                /* TCB to link to node                           */
30003d34:	e59f3154 	ldr	r3, [pc, #340]	@ 30003e90 <OS_FlagBlock+0x1a8>
30003d38:	e5933000 	ldr	r3, [r3]
30003d3c:	e51b2014 	ldr	r2, [fp, #-20]	@ 0xffffffec
30003d40:	e5832014 	str	r2, [r3, #20]
    pnode->OSFlagNodeFlags    = flags;                /* Save the flags that we need to wait for       */
30003d44:	e51b3014 	ldr	r3, [fp, #-20]	@ 0xffffffec
30003d48:	e51b2018 	ldr	r2, [fp, #-24]	@ 0xffffffe8
30003d4c:	e5832010 	str	r2, [r3, #16]
    pnode->OSFlagNodeWaitType = wait_type;            /* Save the type of wait we are doing            */
30003d50:	e51b3014 	ldr	r3, [fp, #-20]	@ 0xffffffec
30003d54:	e55b2019 	ldrb	r2, [fp, #-25]	@ 0xffffffe7
30003d58:	e5c32014 	strb	r2, [r3, #20]
    pnode->OSFlagNodeTCB      = (void *)OSTCBCur;     /* Link to task's TCB                            */
30003d5c:	e59f312c 	ldr	r3, [pc, #300]	@ 30003e90 <OS_FlagBlock+0x1a8>
30003d60:	e5932000 	ldr	r2, [r3]
30003d64:	e51b3014 	ldr	r3, [fp, #-20]	@ 0xffffffec
30003d68:	e5832008 	str	r2, [r3, #8]
    pnode->OSFlagNodeNext     = pgrp->OSFlagWaitList; /* Add node at beginning of event flag wait list */
30003d6c:	e51b3010 	ldr	r3, [fp, #-16]
30003d70:	e5932004 	ldr	r2, [r3, #4]
30003d74:	e51b3014 	ldr	r3, [fp, #-20]	@ 0xffffffec
30003d78:	e5832000 	str	r2, [r3]
    pnode->OSFlagNodePrev     = (void *)0;
30003d7c:	e51b3014 	ldr	r3, [fp, #-20]	@ 0xffffffec
30003d80:	e3a02000 	mov	r2, #0
30003d84:	e5832004 	str	r2, [r3, #4]
    pnode->OSFlagNodeFlagGrp  = (void *)pgrp;         /* Link to Event Flag Group                      */
30003d88:	e51b3014 	ldr	r3, [fp, #-20]	@ 0xffffffec
30003d8c:	e51b2010 	ldr	r2, [fp, #-16]
30003d90:	e583200c 	str	r2, [r3, #12]
    pnode_next                = (OS_FLAG_NODE *)pgrp->OSFlagWaitList;
30003d94:	e51b3010 	ldr	r3, [fp, #-16]
30003d98:	e5933004 	ldr	r3, [r3, #4]
30003d9c:	e50b3008 	str	r3, [fp, #-8]
    if (pnode_next != (void *)0) {                    /* Is this the first NODE to insert?             */
30003da0:	e51b3008 	ldr	r3, [fp, #-8]
30003da4:	e3530000 	cmp	r3, #0
30003da8:	0a000002 	beq	30003db8 <OS_FlagBlock+0xd0>
        pnode_next->OSFlagNodePrev = pnode;           /* No, link in doubly linked list                */
30003dac:	e51b3008 	ldr	r3, [fp, #-8]
30003db0:	e51b2014 	ldr	r2, [fp, #-20]	@ 0xffffffec
30003db4:	e5832004 	str	r2, [r3, #4]
    }
    pgrp->OSFlagWaitList = (void *)pnode;
30003db8:	e51b3010 	ldr	r3, [fp, #-16]
30003dbc:	e51b2014 	ldr	r2, [fp, #-20]	@ 0xffffffec
30003dc0:	e5832004 	str	r2, [r3, #4]
                                                      /* Suspend current task until flag(s) received   */
    if ((OSRdyTbl[OSTCBCur->OSTCBY] &= ~OSTCBCur->OSTCBBitX) == 0) {
30003dc4:	e59f30c4 	ldr	r3, [pc, #196]	@ 30003e90 <OS_FlagBlock+0x1a8>
30003dc8:	e5933000 	ldr	r3, [r3]
30003dcc:	e5d33021 	ldrb	r3, [r3, #33]	@ 0x21
30003dd0:	e1a02003 	mov	r2, r3
30003dd4:	e59f30b8 	ldr	r3, [pc, #184]	@ 30003e94 <OS_FlagBlock+0x1ac>
30003dd8:	e7d33002 	ldrb	r3, [r3, r2]
30003ddc:	e1a03c03 	lsl	r3, r3, #24
30003de0:	e1a02c43 	asr	r2, r3, #24
30003de4:	e59f30a4 	ldr	r3, [pc, #164]	@ 30003e90 <OS_FlagBlock+0x1a8>
30003de8:	e5933000 	ldr	r3, [r3]
30003dec:	e5d33022 	ldrb	r3, [r3, #34]	@ 0x22
30003df0:	e1a03c03 	lsl	r3, r3, #24
30003df4:	e1a03c43 	asr	r3, r3, #24
30003df8:	e1e03003 	mvn	r3, r3
30003dfc:	e1a03c03 	lsl	r3, r3, #24
30003e00:	e1a03c43 	asr	r3, r3, #24
30003e04:	e0033002 	and	r3, r3, r2
30003e08:	e1a03c03 	lsl	r3, r3, #24
30003e0c:	e1a02c43 	asr	r2, r3, #24
30003e10:	e59f3078 	ldr	r3, [pc, #120]	@ 30003e90 <OS_FlagBlock+0x1a8>
30003e14:	e5933000 	ldr	r3, [r3]
30003e18:	e5d33021 	ldrb	r3, [r3, #33]	@ 0x21
30003e1c:	e20210ff 	and	r1, r2, #255	@ 0xff
30003e20:	e59f206c 	ldr	r2, [pc, #108]	@ 30003e94 <OS_FlagBlock+0x1ac>
30003e24:	e7c21003 	strb	r1, [r2, r3]
30003e28:	e59f2064 	ldr	r2, [pc, #100]	@ 30003e94 <OS_FlagBlock+0x1ac>
30003e2c:	e7d23003 	ldrb	r3, [r2, r3]
30003e30:	e3530000 	cmp	r3, #0
30003e34:	1a000011 	bne	30003e80 <OS_FlagBlock+0x198>
        OSRdyGrp &= ~OSTCBCur->OSTCBBitY;
30003e38:	e59f3050 	ldr	r3, [pc, #80]	@ 30003e90 <OS_FlagBlock+0x1a8>
30003e3c:	e5933000 	ldr	r3, [r3]
30003e40:	e5d33023 	ldrb	r3, [r3, #35]	@ 0x23
30003e44:	e1a03c03 	lsl	r3, r3, #24
30003e48:	e1a03c43 	asr	r3, r3, #24
30003e4c:	e1e03003 	mvn	r3, r3
30003e50:	e1a03c03 	lsl	r3, r3, #24
30003e54:	e1a02c43 	asr	r2, r3, #24
30003e58:	e59f3038 	ldr	r3, [pc, #56]	@ 30003e98 <OS_FlagBlock+0x1b0>
30003e5c:	e5d33000 	ldrb	r3, [r3]
30003e60:	e1a03c03 	lsl	r3, r3, #24
30003e64:	e1a03c43 	asr	r3, r3, #24
30003e68:	e0033002 	and	r3, r3, r2
30003e6c:	e1a03c03 	lsl	r3, r3, #24
30003e70:	e1a03c43 	asr	r3, r3, #24
30003e74:	e20320ff 	and	r2, r3, #255	@ 0xff
30003e78:	e59f3018 	ldr	r3, [pc, #24]	@ 30003e98 <OS_FlagBlock+0x1b0>
30003e7c:	e5c32000 	strb	r2, [r3]
    }
}
30003e80:	e1a00000 	nop			@ (mov r0, r0)
30003e84:	e28bd000 	add	sp, fp, #0
30003e88:	e49db004 	pop	{fp}		@ (ldr fp, [sp], #4)
30003e8c:	e12fff1e 	bx	lr
30003e90:	3000b5b8 	.word	0x3000b5b8
30003e94:	3000ac98 	.word	0x3000ac98
30003e98:	3000ac95 	.word	0x3000ac95

30003e9c <OS_FlagUnlink>:
* 移植要点:
* - 无。
*********************************************************************************************************
*/
void  OS_FlagUnlink (OS_FLAG_NODE *pnode)
{
30003e9c:	e52db004 	push	{fp}		@ (str fp, [sp, #-4]!)
30003ea0:	e28db000 	add	fp, sp, #0
30003ea4:	e24dd01c 	sub	sp, sp, #28
30003ea8:	e50b0018 	str	r0, [fp, #-24]	@ 0xffffffe8
    OS_TCB *ptcb;
    OS_FLAG_GRP *pflag;
    OS_FLAG_NODE *pnode_prev;
    OS_FLAG_NODE *pnode_next;

    pnode_prev = (OS_FLAG_NODE *)pnode->OSFlagNodePrev;
30003eac:	e51b3018 	ldr	r3, [fp, #-24]	@ 0xffffffe8
30003eb0:	e5933004 	ldr	r3, [r3, #4]
30003eb4:	e50b3008 	str	r3, [fp, #-8]
    pnode_next = (OS_FLAG_NODE *)pnode->OSFlagNodeNext;
30003eb8:	e51b3018 	ldr	r3, [fp, #-24]	@ 0xffffffe8
30003ebc:	e5933000 	ldr	r3, [r3]
30003ec0:	e50b300c 	str	r3, [fp, #-12]
    if(pnode_prev == (OS_FLAG_NODE *)0){
30003ec4:	e51b3008 	ldr	r3, [fp, #-8]
30003ec8:	e3530000 	cmp	r3, #0
30003ecc:	1a00000c 	bne	30003f04 <OS_FlagUnlink+0x68>
        pflag = (OS_FLAG_GRP *)pnode->OSFlagNodeFlagGrp;
30003ed0:	e51b3018 	ldr	r3, [fp, #-24]	@ 0xffffffe8
30003ed4:	e593300c 	ldr	r3, [r3, #12]
30003ed8:	e50b3010 	str	r3, [fp, #-16]
        pflag->OSFlagWaitList = (void *)pnode_next;
30003edc:	e51b3010 	ldr	r3, [fp, #-16]
30003ee0:	e51b200c 	ldr	r2, [fp, #-12]
30003ee4:	e5832004 	str	r2, [r3, #4]
        if(pnode_next != (OS_FLAG_NODE *)0){
30003ee8:	e51b300c 	ldr	r3, [fp, #-12]
30003eec:	e3530000 	cmp	r3, #0
30003ef0:	0a00000c 	beq	30003f28 <OS_FlagUnlink+0x8c>
            pnode_next->OSFlagNodePrev = (OS_FLAG_NODE *)0;
30003ef4:	e51b300c 	ldr	r3, [fp, #-12]
30003ef8:	e3a02000 	mov	r2, #0
30003efc:	e5832004 	str	r2, [r3, #4]
30003f00:	ea000008 	b	30003f28 <OS_FlagUnlink+0x8c>
        }
    }
    else{
        pnode_prev->OSFlagNodeNext = pnode_next;
30003f04:	e51b3008 	ldr	r3, [fp, #-8]
30003f08:	e51b200c 	ldr	r2, [fp, #-12]
30003f0c:	e5832000 	str	r2, [r3]
        if(pnode_next != (OS_FLAG_NODE *)0){
30003f10:	e51b300c 	ldr	r3, [fp, #-12]
30003f14:	e3530000 	cmp	r3, #0
30003f18:	0a000002 	beq	30003f28 <OS_FlagUnlink+0x8c>
            pnode_next->OSFlagNodePrev = pnode_prev;
30003f1c:	e51b300c 	ldr	r3, [fp, #-12]
30003f20:	e51b2008 	ldr	r2, [fp, #-8]
30003f24:	e5832004 	str	r2, [r3, #4]
        }
    }
    ptcb = (OS_TCB *)pnode->OSFlagNodeTCB;
30003f28:	e51b3018 	ldr	r3, [fp, #-24]	@ 0xffffffe8
30003f2c:	e5933008 	ldr	r3, [r3, #8]
30003f30:	e50b3014 	str	r3, [fp, #-20]	@ 0xffffffec
    ptcb->OSTCBFlagNode = (OS_FLAG_NODE *)0;
30003f34:	e51b3014 	ldr	r3, [fp, #-20]	@ 0xffffffec
30003f38:	e3a02000 	mov	r2, #0
30003f3c:	e5832014 	str	r2, [r3, #20]
}
30003f40:	e1a00000 	nop			@ (mov r0, r0)
30003f44:	e28bd000 	add	sp, fp, #0
30003f48:	e49db004 	pop	{fp}		@ (ldr fp, [sp], #4)
30003f4c:	e12fff1e 	bx	lr

30003f50 <OSMboxAccept>:
* 移植要点:
* - 指针操作在 Mini2440 (32位 ARM) 上是原子的，但为了逻辑完整性仍需临界区保护。
*********************************************************************************************************
*/
void  *OSMboxAccept (OS_EVENT *pevent)
{
30003f50:	e92d4800 	push	{fp, lr}
30003f54:	e28db004 	add	fp, sp, #4
30003f58:	e24dd010 	sub	sp, sp, #16
30003f5c:	e50b0010 	str	r0, [fp, #-16]
    OS_CPU_SR cpu_sr;
    void *msg;

    if(pevent == (OS_EVENT *)0){
30003f60:	e51b3010 	ldr	r3, [fp, #-16]
30003f64:	e3530000 	cmp	r3, #0
30003f68:	1a000001 	bne	30003f74 <OSMboxAccept+0x24>
        return ((void *)0);
30003f6c:	e3a03000 	mov	r3, #0
30003f70:	ea000010 	b	30003fb8 <OSMboxAccept+0x68>
    }
    if(pevent->OSEventType != OS_EVENT_TYPE_MBOX){
30003f74:	e51b3010 	ldr	r3, [fp, #-16]
30003f78:	e5d33000 	ldrb	r3, [r3]
30003f7c:	e3530001 	cmp	r3, #1
30003f80:	0a000001 	beq	30003f8c <OSMboxAccept+0x3c>
        return ((void *)0);
30003f84:	e3a03000 	mov	r3, #0
30003f88:	ea00000a 	b	30003fb8 <OSMboxAccept+0x68>
    }
    OS_ENTER_CRITICAL();
30003f8c:	ebfff10a 	bl	300003bc <OS_CPU_SR_Save>
30003f90:	e50b0008 	str	r0, [fp, #-8]
    msg = pevent->OSEventPtr;
30003f94:	e51b3010 	ldr	r3, [fp, #-16]
30003f98:	e5933004 	ldr	r3, [r3, #4]
30003f9c:	e50b300c 	str	r3, [fp, #-12]
    pevent->OSEventPtr = (void *)0;
30003fa0:	e51b3010 	ldr	r3, [fp, #-16]
30003fa4:	e3a02000 	mov	r2, #0
30003fa8:	e5832004 	str	r2, [r3, #4]
    OS_EXIT_CRITICAL();
30003fac:	e51b0008 	ldr	r0, [fp, #-8]
30003fb0:	ebfff105 	bl	300003cc <OS_CPU_SR_Restore>
    return msg;
30003fb4:	e51b300c 	ldr	r3, [fp, #-12]
}
30003fb8:	e1a00003 	mov	r0, r3
30003fbc:	e24bd004 	sub	sp, fp, #4
30003fc0:	e8bd4800 	pop	{fp, lr}
30003fc4:	e12fff1e 	bx	lr

30003fc8 <OSMboxCreate>:
* 移植要点:
* - 无。
*********************************************************************************************************
*/
OS_EVENT  *OSMboxCreate (void *msg)
{
30003fc8:	e92d4800 	push	{fp, lr}
30003fcc:	e28db004 	add	fp, sp, #4
30003fd0:	e24dd010 	sub	sp, sp, #16
30003fd4:	e50b0010 	str	r0, [fp, #-16]
    OS_CPU_SR cpu_sr;
    OS_EVENT *pevent;

    if(OSIntNesting > 0){
30003fd8:	e59f309c 	ldr	r3, [pc, #156]	@ 3000407c <OSMboxCreate+0xb4>
30003fdc:	e5d33000 	ldrb	r3, [r3]
30003fe0:	e3530000 	cmp	r3, #0
30003fe4:	0a000001 	beq	30003ff0 <OSMboxCreate+0x28>
        return((OS_EVENT *)0);
30003fe8:	e3a03000 	mov	r3, #0
30003fec:	ea00001e 	b	3000406c <OSMboxCreate+0xa4>
    }
    OS_ENTER_CRITICAL();
30003ff0:	ebfff0f1 	bl	300003bc <OS_CPU_SR_Save>
30003ff4:	e50b0008 	str	r0, [fp, #-8]
    pevent = OSEventFreeList;
30003ff8:	e59f3080 	ldr	r3, [pc, #128]	@ 30004080 <OSMboxCreate+0xb8>
30003ffc:	e5933000 	ldr	r3, [r3]
30004000:	e50b300c 	str	r3, [fp, #-12]
    if(OSEventFreeList != (OS_EVENT *)0){
30004004:	e59f3074 	ldr	r3, [pc, #116]	@ 30004080 <OSMboxCreate+0xb8>
30004008:	e5933000 	ldr	r3, [r3]
3000400c:	e3530000 	cmp	r3, #0
30004010:	0a000004 	beq	30004028 <OSMboxCreate+0x60>
        OSEventFreeList = (OS_EVENT *)OSEventFreeList->OSEventPtr;
30004014:	e59f3064 	ldr	r3, [pc, #100]	@ 30004080 <OSMboxCreate+0xb8>
30004018:	e5933000 	ldr	r3, [r3]
3000401c:	e5933004 	ldr	r3, [r3, #4]
30004020:	e59f2058 	ldr	r2, [pc, #88]	@ 30004080 <OSMboxCreate+0xb8>
30004024:	e5823000 	str	r3, [r2]
    }
    OS_EXIT_CRITICAL();
30004028:	e51b0008 	ldr	r0, [fp, #-8]
3000402c:	ebfff0e6 	bl	300003cc <OS_CPU_SR_Restore>
    if(pevent != (OS_EVENT *)0){
30004030:	e51b300c 	ldr	r3, [fp, #-12]
30004034:	e3530000 	cmp	r3, #0
30004038:	0a00000a 	beq	30004068 <OSMboxCreate+0xa0>
        pevent->OSEventType = OS_EVENT_TYPE_MBOX;
3000403c:	e51b300c 	ldr	r3, [fp, #-12]
30004040:	e3a02001 	mov	r2, #1
30004044:	e5c32000 	strb	r2, [r3]
        pevent->OSEventCnt = 0;    // 计数器没用，清零！
30004048:	e51b300c 	ldr	r3, [fp, #-12]
3000404c:	e3a02000 	mov	r2, #0
30004050:	e5832008 	str	r2, [r3, #8]
        pevent->OSEventPtr = msg;  // 把信件的地址存入指针槽
30004054:	e51b300c 	ldr	r3, [fp, #-12]
30004058:	e51b2010 	ldr	r2, [fp, #-16]
3000405c:	e5832004 	str	r2, [r3, #4]
        OS_EventWaitListInit(pevent);
30004060:	e51b000c 	ldr	r0, [fp, #-12]
30004064:	ebfff9de 	bl	300027e4 <OS_EventWaitListInit>
    }
    return(pevent);
30004068:	e51b300c 	ldr	r3, [fp, #-12]
}
3000406c:	e1a00003 	mov	r0, r3
30004070:	e24bd004 	sub	sp, fp, #4
30004074:	e8bd4800 	pop	{fp, lr}
30004078:	e12fff1e 	bx	lr
3000407c:	3000ac90 	.word	0x3000ac90
30004080:	3000b804 	.word	0x3000b804

30004084 <OSMboxDel>:
* 移植要点:
* - 无。
*********************************************************************************************************
*/
OS_EVENT  *OSMboxDel (OS_EVENT *pevent, INT8U opt, INT8U *err)
{
30004084:	e92d4800 	push	{fp, lr}
30004088:	e28db004 	add	fp, sp, #4
3000408c:	e24dd018 	sub	sp, sp, #24
30004090:	e50b0010 	str	r0, [fp, #-16]
30004094:	e1a03001 	mov	r3, r1
30004098:	e50b2018 	str	r2, [fp, #-24]	@ 0xffffffe8
3000409c:	e54b3011 	strb	r3, [fp, #-17]	@ 0xffffffef
    OS_CPU_SR  cpu_sr; 
    BOOLEAN    tasks_waiting;

    if (OSIntNesting > 0) {                                // See if called from ISR ...
300040a0:	e59f31ac 	ldr	r3, [pc, #428]	@ 30004254 <OSMboxDel+0x1d0>
300040a4:	e5d33000 	ldrb	r3, [r3]
300040a8:	e3530000 	cmp	r3, #0
300040ac:	0a000004 	beq	300040c4 <OSMboxDel+0x40>
        *err = OS_ERR_DEL_ISR;                             // ... can't DELETE from an ISR
300040b0:	e51b3018 	ldr	r3, [fp, #-24]	@ 0xffffffe8
300040b4:	e3e02073 	mvn	r2, #115	@ 0x73
300040b8:	e5c32000 	strb	r2, [r3]
        return (pevent);
300040bc:	e51b3010 	ldr	r3, [fp, #-16]
300040c0:	ea00005f 	b	30004244 <OSMboxDel+0x1c0>
    }
    if (pevent == (OS_EVENT *)0) {                         // Validate 'pevent'
300040c4:	e51b3010 	ldr	r3, [fp, #-16]
300040c8:	e3530000 	cmp	r3, #0
300040cc:	1a000004 	bne	300040e4 <OSMboxDel+0x60>
        *err = OS_ERR_PEVENT_NULL;
300040d0:	e51b3018 	ldr	r3, [fp, #-24]	@ 0xffffffe8
300040d4:	e3a02004 	mov	r2, #4
300040d8:	e5c32000 	strb	r2, [r3]
        return (pevent);
300040dc:	e51b3010 	ldr	r3, [fp, #-16]
300040e0:	ea000057 	b	30004244 <OSMboxDel+0x1c0>
    }
    if (pevent->OSEventType != OS_EVENT_TYPE_MBOX) {       // Validate event block type
300040e4:	e51b3010 	ldr	r3, [fp, #-16]
300040e8:	e5d33000 	ldrb	r3, [r3]
300040ec:	e3530001 	cmp	r3, #1
300040f0:	0a000004 	beq	30004108 <OSMboxDel+0x84>
        *err = OS_ERR_EVENT_TYPE;
300040f4:	e51b3018 	ldr	r3, [fp, #-24]	@ 0xffffffe8
300040f8:	e3a02001 	mov	r2, #1
300040fc:	e5c32000 	strb	r2, [r3]
        return (pevent);
30004100:	e51b3010 	ldr	r3, [fp, #-16]
30004104:	ea00004e 	b	30004244 <OSMboxDel+0x1c0>
    }
    OS_ENTER_CRITICAL();
30004108:	ebfff0ab 	bl	300003bc <OS_CPU_SR_Save>
3000410c:	e50b000c 	str	r0, [fp, #-12]
    if (pevent->OSEventGrp != 0x00) {                      // See if any tasks waiting on mailbox
30004110:	e51b3010 	ldr	r3, [fp, #-16]
30004114:	e5d33001 	ldrb	r3, [r3, #1]
30004118:	e3530000 	cmp	r3, #0
3000411c:	0a000002 	beq	3000412c <OSMboxDel+0xa8>
        tasks_waiting = TRUE;                              // Yes
30004120:	e3a03001 	mov	r3, #1
30004124:	e54b3005 	strb	r3, [fp, #-5]
30004128:	ea000001 	b	30004134 <OSMboxDel+0xb0>
    } else {
        tasks_waiting = FALSE;                             // No
3000412c:	e3a03000 	mov	r3, #0
30004130:	e54b3005 	strb	r3, [fp, #-5]
    }
    switch (opt) {
30004134:	e55b3011 	ldrb	r3, [fp, #-17]	@ 0xffffffef
30004138:	e3530000 	cmp	r3, #0
3000413c:	0a000002 	beq	3000414c <OSMboxDel+0xc8>
30004140:	e3530001 	cmp	r3, #1
30004144:	0a00001f 	beq	300041c8 <OSMboxDel+0x144>
30004148:	ea000037 	b	3000422c <OSMboxDel+0x1a8>
        case OS_DEL_NO_PEND:                               // Delete mailbox only if no task waiting
             if (tasks_waiting == FALSE) {
3000414c:	e55b3005 	ldrb	r3, [fp, #-5]
30004150:	e3530000 	cmp	r3, #0
30004154:	1a000010 	bne	3000419c <OSMboxDel+0x118>
                 pevent->OSEventType = OS_EVENT_TYPE_UNUSED;
30004158:	e51b3010 	ldr	r3, [fp, #-16]
3000415c:	e3a02000 	mov	r2, #0
30004160:	e5c32000 	strb	r2, [r3]
                 pevent->OSEventPtr  = OSEventFreeList;    // Return Event Control Block to free list
30004164:	e59f30ec 	ldr	r3, [pc, #236]	@ 30004258 <OSMboxDel+0x1d4>
30004168:	e5932000 	ldr	r2, [r3]
3000416c:	e51b3010 	ldr	r3, [fp, #-16]
30004170:	e5832004 	str	r2, [r3, #4]
                 OSEventFreeList     = pevent;             // Get next free event control block
30004174:	e59f20dc 	ldr	r2, [pc, #220]	@ 30004258 <OSMboxDel+0x1d4>
30004178:	e51b3010 	ldr	r3, [fp, #-16]
3000417c:	e5823000 	str	r3, [r2]
                 OS_EXIT_CRITICAL();
30004180:	e51b000c 	ldr	r0, [fp, #-12]
30004184:	ebfff090 	bl	300003cc <OS_CPU_SR_Restore>
                 *err = OS_NO_ERR;
30004188:	e51b3018 	ldr	r3, [fp, #-24]	@ 0xffffffe8
3000418c:	e3a02000 	mov	r2, #0
30004190:	e5c32000 	strb	r2, [r3]
                 return ((OS_EVENT *)0);                   // Mailbox has been deleted
30004194:	e3a03000 	mov	r3, #0
30004198:	ea000029 	b	30004244 <OSMboxDel+0x1c0>
             } else {
                 OS_EXIT_CRITICAL();
3000419c:	e51b000c 	ldr	r0, [fp, #-12]
300041a0:	ebfff089 	bl	300003cc <OS_CPU_SR_Restore>
                 *err = OS_ERR_TASK_WAITING;
300041a4:	e51b3018 	ldr	r3, [fp, #-24]	@ 0xffffffe8
300041a8:	e3a02008 	mov	r2, #8
300041ac:	e5c32000 	strb	r2, [r3]
                 return (pevent);
300041b0:	e51b3010 	ldr	r3, [fp, #-16]
300041b4:	ea000022 	b	30004244 <OSMboxDel+0x1c0>
             }

        case OS_DEL_ALWAYS:                                // Always delete the mailbox
             while (pevent->OSEventGrp != 0x00) {          // Ready ALL tasks waiting for mailbox
                 OS_EventTaskRdy(pevent, (void *)0, OS_STAT_MBOX);
300041b8:	e3a02002 	mov	r2, #2
300041bc:	e3a01000 	mov	r1, #0
300041c0:	e51b0010 	ldr	r0, [fp, #-16]
300041c4:	ebfff876 	bl	300023a4 <OS_EventTaskRdy>
             while (pevent->OSEventGrp != 0x00) {          // Ready ALL tasks waiting for mailbox
300041c8:	e51b3010 	ldr	r3, [fp, #-16]
300041cc:	e5d33001 	ldrb	r3, [r3, #1]
300041d0:	e3530000 	cmp	r3, #0
300041d4:	1afffff7 	bne	300041b8 <OSMboxDel+0x134>
             }
             pevent->OSEventType = OS_EVENT_TYPE_UNUSED;
300041d8:	e51b3010 	ldr	r3, [fp, #-16]
300041dc:	e3a02000 	mov	r2, #0
300041e0:	e5c32000 	strb	r2, [r3]
             pevent->OSEventPtr  = OSEventFreeList;        // Return Event Control Block to free list
300041e4:	e59f306c 	ldr	r3, [pc, #108]	@ 30004258 <OSMboxDel+0x1d4>
300041e8:	e5932000 	ldr	r2, [r3]
300041ec:	e51b3010 	ldr	r3, [fp, #-16]
300041f0:	e5832004 	str	r2, [r3, #4]
             OSEventFreeList     = pevent;                 // Get next free event control block
300041f4:	e59f205c 	ldr	r2, [pc, #92]	@ 30004258 <OSMboxDel+0x1d4>
300041f8:	e51b3010 	ldr	r3, [fp, #-16]
300041fc:	e5823000 	str	r3, [r2]
             OS_EXIT_CRITICAL();
30004200:	e51b000c 	ldr	r0, [fp, #-12]
30004204:	ebfff070 	bl	300003cc <OS_CPU_SR_Restore>
             if (tasks_waiting == TRUE) {                  // Reschedule only if task(s) were waiting
30004208:	e55b3005 	ldrb	r3, [fp, #-5]
3000420c:	e3530001 	cmp	r3, #1
30004210:	1a000000 	bne	30004218 <OSMboxDel+0x194>
                 OS_Sched();                               // Find highest priority task ready to run
30004214:	ebfff9c8 	bl	3000293c <OS_Sched>
             }
             *err = OS_NO_ERR;
30004218:	e51b3018 	ldr	r3, [fp, #-24]	@ 0xffffffe8
3000421c:	e3a02000 	mov	r2, #0
30004220:	e5c32000 	strb	r2, [r3]
             return ((OS_EVENT *)0);                       // Mailbox has been deleted
30004224:	e3a03000 	mov	r3, #0
30004228:	ea000005 	b	30004244 <OSMboxDel+0x1c0>

        default:
             OS_EXIT_CRITICAL();
3000422c:	e51b000c 	ldr	r0, [fp, #-12]
30004230:	ebfff065 	bl	300003cc <OS_CPU_SR_Restore>
             *err = OS_ERR_INVALID_OPT;
30004234:	e51b3018 	ldr	r3, [fp, #-24]	@ 0xffffffe8
30004238:	e3a02007 	mov	r2, #7
3000423c:	e5c32000 	strb	r2, [r3]
             return (pevent);
30004240:	e51b3010 	ldr	r3, [fp, #-16]
    }
}
30004244:	e1a00003 	mov	r0, r3
30004248:	e24bd004 	sub	sp, fp, #4
3000424c:	e8bd4800 	pop	{fp, lr}
30004250:	e12fff1e 	bx	lr
30004254:	3000ac90 	.word	0x3000ac90
30004258:	3000b804 	.word	0x3000b804

3000425c <OSMboxPend>:
* 移植要点:
* - 无。
*********************************************************************************************************
*/
void  *OSMboxPend (OS_EVENT *pevent, INT16U timeout, INT8U *err)
{
3000425c:	e92d4800 	push	{fp, lr}
30004260:	e28db004 	add	fp, sp, #4
30004264:	e24dd018 	sub	sp, sp, #24
30004268:	e50b0010 	str	r0, [fp, #-16]
3000426c:	e1a03001 	mov	r3, r1
30004270:	e50b2018 	str	r2, [fp, #-24]	@ 0xffffffe8
30004274:	e14b31b2 	strh	r3, [fp, #-18]	@ 0xffffffee
    OS_CPU_SR  cpu_sr;
    void      *msg;

    if (OSIntNesting > 0) {                           // See if called from ISR ...
30004278:	e59f318c 	ldr	r3, [pc, #396]	@ 3000440c <OSMboxPend+0x1b0>
3000427c:	e5d33000 	ldrb	r3, [r3]
30004280:	e3530000 	cmp	r3, #0
30004284:	0a000004 	beq	3000429c <OSMboxPend+0x40>
        *err = OS_ERR_PEND_ISR;                       // ... can't PEND from an ISR
30004288:	e51b3018 	ldr	r3, [fp, #-24]	@ 0xffffffe8
3000428c:	e3a02002 	mov	r2, #2
30004290:	e5c32000 	strb	r2, [r3]
        return ((void *)0);
30004294:	e3a03000 	mov	r3, #0
30004298:	ea000057 	b	300043fc <OSMboxPend+0x1a0>
    }
    if (pevent == (OS_EVENT *)0) {                    // Validate 'pevent'
3000429c:	e51b3010 	ldr	r3, [fp, #-16]
300042a0:	e3530000 	cmp	r3, #0
300042a4:	1a000004 	bne	300042bc <OSMboxPend+0x60>
        *err = OS_ERR_PEVENT_NULL;
300042a8:	e51b3018 	ldr	r3, [fp, #-24]	@ 0xffffffe8
300042ac:	e3a02004 	mov	r2, #4
300042b0:	e5c32000 	strb	r2, [r3]
        return ((void *)0);
300042b4:	e3a03000 	mov	r3, #0
300042b8:	ea00004f 	b	300043fc <OSMboxPend+0x1a0>
    }
    if (pevent->OSEventType != OS_EVENT_TYPE_MBOX) {  // Validate event block type
300042bc:	e51b3010 	ldr	r3, [fp, #-16]
300042c0:	e5d33000 	ldrb	r3, [r3]
300042c4:	e3530001 	cmp	r3, #1
300042c8:	0a000004 	beq	300042e0 <OSMboxPend+0x84>
        *err = OS_ERR_EVENT_TYPE;
300042cc:	e51b3018 	ldr	r3, [fp, #-24]	@ 0xffffffe8
300042d0:	e3a02001 	mov	r2, #1
300042d4:	e5c32000 	strb	r2, [r3]
        return ((void *)0);
300042d8:	e3a03000 	mov	r3, #0
300042dc:	ea000046 	b	300043fc <OSMboxPend+0x1a0>
    }
    OS_ENTER_CRITICAL();
300042e0:	ebfff035 	bl	300003bc <OS_CPU_SR_Save>
300042e4:	e50b0008 	str	r0, [fp, #-8]
    msg = pevent->OSEventPtr;
300042e8:	e51b3010 	ldr	r3, [fp, #-16]
300042ec:	e5933004 	ldr	r3, [r3, #4]
300042f0:	e50b300c 	str	r3, [fp, #-12]
    if (msg != (void *)0) {                           // See if there is already a message
300042f4:	e51b300c 	ldr	r3, [fp, #-12]
300042f8:	e3530000 	cmp	r3, #0
300042fc:	0a000009 	beq	30004328 <OSMboxPend+0xcc>
        pevent->OSEventPtr = (void *)0;               // Clear the mailbox
30004300:	e51b3010 	ldr	r3, [fp, #-16]
30004304:	e3a02000 	mov	r2, #0
30004308:	e5832004 	str	r2, [r3, #4]
        OS_EXIT_CRITICAL();
3000430c:	e51b0008 	ldr	r0, [fp, #-8]
30004310:	ebfff02d 	bl	300003cc <OS_CPU_SR_Restore>
        *err = OS_NO_ERR;
30004314:	e51b3018 	ldr	r3, [fp, #-24]	@ 0xffffffe8
30004318:	e3a02000 	mov	r2, #0
3000431c:	e5c32000 	strb	r2, [r3]
        return (msg);                                 // Return the message received (or NULL)
30004320:	e51b300c 	ldr	r3, [fp, #-12]
30004324:	ea000034 	b	300043fc <OSMboxPend+0x1a0>
    }
    OSTCBCur->OSTCBStat |= OS_STAT_MBOX;              // Message not available, task will pend
30004328:	e59f30e0 	ldr	r3, [pc, #224]	@ 30004410 <OSMboxPend+0x1b4>
3000432c:	e5933000 	ldr	r3, [r3]
30004330:	e5d3201f 	ldrb	r2, [r3, #31]
30004334:	e59f30d4 	ldr	r3, [pc, #212]	@ 30004410 <OSMboxPend+0x1b4>
30004338:	e5933000 	ldr	r3, [r3]
3000433c:	e3822002 	orr	r2, r2, #2
30004340:	e20220ff 	and	r2, r2, #255	@ 0xff
30004344:	e5c3201f 	strb	r2, [r3, #31]
    OSTCBCur->OSTCBDly   = timeout;                   // Load timeout in TCB
30004348:	e59f30c0 	ldr	r3, [pc, #192]	@ 30004410 <OSMboxPend+0x1b4>
3000434c:	e5933000 	ldr	r3, [r3]
30004350:	e15b21b2 	ldrh	r2, [fp, #-18]	@ 0xffffffee
30004354:	e1c321bc 	strh	r2, [r3, #28]
    OS_EventTaskWait(pevent);                         // Suspend task until event or timeout occurs
30004358:	e51b0010 	ldr	r0, [fp, #-16]
3000435c:	ebfff884 	bl	30002574 <OS_EventTaskWait>
    OS_EXIT_CRITICAL();
30004360:	e51b0008 	ldr	r0, [fp, #-8]
30004364:	ebfff018 	bl	300003cc <OS_CPU_SR_Restore>
    OS_Sched();                                       // Find next highest priority task ready to run
30004368:	ebfff973 	bl	3000293c <OS_Sched>
    OS_ENTER_CRITICAL();
3000436c:	ebfff012 	bl	300003bc <OS_CPU_SR_Save>
30004370:	e50b0008 	str	r0, [fp, #-8]
    msg = OSTCBCur->OSTCBMsg;
30004374:	e59f3094 	ldr	r3, [pc, #148]	@ 30004410 <OSMboxPend+0x1b4>
30004378:	e5933000 	ldr	r3, [r3]
3000437c:	e5933010 	ldr	r3, [r3, #16]
30004380:	e50b300c 	str	r3, [fp, #-12]
    if (msg != (void *)0) {                           // See if we were given the message
30004384:	e51b300c 	ldr	r3, [fp, #-12]
30004388:	e3530000 	cmp	r3, #0
3000438c:	0a000012 	beq	300043dc <OSMboxPend+0x180>
        OSTCBCur->OSTCBMsg      = (void *)0;          // Yes, clear message received
30004390:	e59f3078 	ldr	r3, [pc, #120]	@ 30004410 <OSMboxPend+0x1b4>
30004394:	e5933000 	ldr	r3, [r3]
30004398:	e3a02000 	mov	r2, #0
3000439c:	e5832010 	str	r2, [r3, #16]
        OSTCBCur->OSTCBStat     = OS_STAT_RDY;
300043a0:	e59f3068 	ldr	r3, [pc, #104]	@ 30004410 <OSMboxPend+0x1b4>
300043a4:	e5933000 	ldr	r3, [r3]
300043a8:	e3a02000 	mov	r2, #0
300043ac:	e5c3201f 	strb	r2, [r3, #31]
        OSTCBCur->OSTCBEventPtr = (OS_EVENT *)0;      // No longer waiting for event
300043b0:	e59f3058 	ldr	r3, [pc, #88]	@ 30004410 <OSMboxPend+0x1b4>
300043b4:	e5933000 	ldr	r3, [r3]
300043b8:	e3a02000 	mov	r2, #0
300043bc:	e583200c 	str	r2, [r3, #12]
        OS_EXIT_CRITICAL();
300043c0:	e51b0008 	ldr	r0, [fp, #-8]
300043c4:	ebfff000 	bl	300003cc <OS_CPU_SR_Restore>
        *err                    = OS_NO_ERR;
300043c8:	e51b3018 	ldr	r3, [fp, #-24]	@ 0xffffffe8
300043cc:	e3a02000 	mov	r2, #0
300043d0:	e5c32000 	strb	r2, [r3]
        return (msg);                                 // Return the message received
300043d4:	e51b300c 	ldr	r3, [fp, #-12]
300043d8:	ea000007 	b	300043fc <OSMboxPend+0x1a0>
    }
    OS_EventTO(pevent);                               // Timed out, Make task ready
300043dc:	e51b0010 	ldr	r0, [fp, #-16]
300043e0:	ebfff8bc 	bl	300026d8 <OS_EventTO>
    OS_EXIT_CRITICAL();
300043e4:	e51b0008 	ldr	r0, [fp, #-8]
300043e8:	ebffeff7 	bl	300003cc <OS_CPU_SR_Restore>
    *err = OS_TIMEOUT;                                // Indicate that a timeout occured
300043ec:	e51b3018 	ldr	r3, [fp, #-24]	@ 0xffffffe8
300043f0:	e3a0200a 	mov	r2, #10
300043f4:	e5c32000 	strb	r2, [r3]
    return ((void *)0);                               // Return a NULL message
300043f8:	e3a03000 	mov	r3, #0
}
300043fc:	e1a00003 	mov	r0, r3
30004400:	e24bd004 	sub	sp, fp, #4
30004404:	e8bd4800 	pop	{fp, lr}
30004408:	e12fff1e 	bx	lr
3000440c:	3000ac90 	.word	0x3000ac90
30004410:	3000b5b8 	.word	0x3000b5b8

30004414 <OSMboxPost>:
* 移植要点:
* - 在 Mini2440 上，指针赋值是 32 位操作。
*********************************************************************************************************
*/
INT8U  OSMboxPost (OS_EVENT *pevent, void *msg)
{
30004414:	e92d4800 	push	{fp, lr}
30004418:	e28db004 	add	fp, sp, #4
3000441c:	e24dd010 	sub	sp, sp, #16
30004420:	e50b0010 	str	r0, [fp, #-16]
30004424:	e50b1014 	str	r1, [fp, #-20]	@ 0xffffffec
    // 在此输入代码
    OS_CPU_SR cpu_sr;
    if(pevent == (OS_EVENT *)0){
30004428:	e51b3010 	ldr	r3, [fp, #-16]
3000442c:	e3530000 	cmp	r3, #0
30004430:	1a000001 	bne	3000443c <OSMboxPost+0x28>
        return (OS_ERR_PEVENT_NULL);
30004434:	e3a03004 	mov	r3, #4
30004438:	ea000027 	b	300044dc <OSMboxPost+0xc8>
    }
    if(msg == (void *)0){
3000443c:	e51b3014 	ldr	r3, [fp, #-20]	@ 0xffffffec
30004440:	e3530000 	cmp	r3, #0
30004444:	1a000001 	bne	30004450 <OSMboxPost+0x3c>
        return (OS_ERR_POST_NULL_PTR);
30004448:	e3a03003 	mov	r3, #3
3000444c:	ea000022 	b	300044dc <OSMboxPost+0xc8>
    }
    if(pevent->OSEventType != OS_EVENT_TYPE_MBOX){
30004450:	e51b3010 	ldr	r3, [fp, #-16]
30004454:	e5d33000 	ldrb	r3, [r3]
30004458:	e3530001 	cmp	r3, #1
3000445c:	0a000001 	beq	30004468 <OSMboxPost+0x54>
        return (OS_ERR_EVENT_TYPE);
30004460:	e3a03001 	mov	r3, #1
30004464:	ea00001c 	b	300044dc <OSMboxPost+0xc8>
    }

    OS_ENTER_CRITICAL();
30004468:	ebffefd3 	bl	300003bc <OS_CPU_SR_Save>
3000446c:	e50b0008 	str	r0, [fp, #-8]
    if(pevent->OSEventGrp != 0x00){
30004470:	e51b3010 	ldr	r3, [fp, #-16]
30004474:	e5d33001 	ldrb	r3, [r3, #1]
30004478:	e3530000 	cmp	r3, #0
3000447c:	0a000008 	beq	300044a4 <OSMboxPost+0x90>
        OS_EventTaskRdy(pevent, msg, OS_STAT_MBOX);
30004480:	e3a02002 	mov	r2, #2
30004484:	e51b1014 	ldr	r1, [fp, #-20]	@ 0xffffffec
30004488:	e51b0010 	ldr	r0, [fp, #-16]
3000448c:	ebfff7c4 	bl	300023a4 <OS_EventTaskRdy>
        OS_EXIT_CRITICAL();
30004490:	e51b0008 	ldr	r0, [fp, #-8]
30004494:	ebffefcc 	bl	300003cc <OS_CPU_SR_Restore>
        OS_Sched();
30004498:	ebfff927 	bl	3000293c <OS_Sched>
        return (OS_NO_ERR);
3000449c:	e3a03000 	mov	r3, #0
300044a0:	ea00000d 	b	300044dc <OSMboxPost+0xc8>
    }
    if(pevent->OSEventPtr != (void *)0){
300044a4:	e51b3010 	ldr	r3, [fp, #-16]
300044a8:	e5933004 	ldr	r3, [r3, #4]
300044ac:	e3530000 	cmp	r3, #0
300044b0:	0a000003 	beq	300044c4 <OSMboxPost+0xb0>
        OS_EXIT_CRITICAL();
300044b4:	e51b0008 	ldr	r0, [fp, #-8]
300044b8:	ebffefc3 	bl	300003cc <OS_CPU_SR_Restore>
        return (OS_MBOX_FULL);
300044bc:	e3a03014 	mov	r3, #20
300044c0:	ea000005 	b	300044dc <OSMboxPost+0xc8>
    }
    pevent->OSEventPtr = msg;
300044c4:	e51b3010 	ldr	r3, [fp, #-16]
300044c8:	e51b2014 	ldr	r2, [fp, #-20]	@ 0xffffffec
300044cc:	e5832004 	str	r2, [r3, #4]
    OS_EXIT_CRITICAL();
300044d0:	e51b0008 	ldr	r0, [fp, #-8]
300044d4:	ebffefbc 	bl	300003cc <OS_CPU_SR_Restore>
    return (OS_NO_ERR);
300044d8:	e3a03000 	mov	r3, #0
}
300044dc:	e1a00003 	mov	r0, r3
300044e0:	e24bd004 	sub	sp, fp, #4
300044e4:	e8bd4800 	pop	{fp, lr}
300044e8:	e12fff1e 	bx	lr

300044ec <OSMboxPostOpt>:
* 移植要点:
* - 广播操作在循环唤醒所有任务时会一直处于临界区 (关中断)。如果等待任务很多，在 ARM9 上可能会增加中断延迟，需评估系统实时性要求。
*********************************************************************************************************
*/
INT8U  OSMboxPostOpt (OS_EVENT *pevent, void *msg, INT8U opt)
{
300044ec:	e52db004 	push	{fp}		@ (str fp, [sp, #-4]!)
300044f0:	e28db000 	add	fp, sp, #0
300044f4:	e24dd014 	sub	sp, sp, #20
300044f8:	e50b0008 	str	r0, [fp, #-8]
300044fc:	e50b100c 	str	r1, [fp, #-12]
30004500:	e1a03002 	mov	r3, r2
30004504:	e54b300d 	strb	r3, [fp, #-13]
    //不实现
    return (OS_NO_ERR);
30004508:	e3a03000 	mov	r3, #0
}
3000450c:	e1a00003 	mov	r0, r3
30004510:	e28bd000 	add	sp, fp, #0
30004514:	e49db004 	pop	{fp}		@ (ldr fp, [sp], #4)
30004518:	e12fff1e 	bx	lr

3000451c <OSMboxQuery>:
* 移植要点:
* - 无。
*********************************************************************************************************
*/
INT8U  OSMboxQuery (OS_EVENT *pevent, OS_MBOX_DATA *pdata)
{
3000451c:	e92d4800 	push	{fp, lr}
30004520:	e28db004 	add	fp, sp, #4
30004524:	e24dd010 	sub	sp, sp, #16
30004528:	e50b0010 	str	r0, [fp, #-16]
3000452c:	e50b1014 	str	r1, [fp, #-20]	@ 0xffffffec
    OS_CPU_SR  cpu_sr;  

    if (pevent == (OS_EVENT *)0) {                         // Validate 'pevent'
30004530:	e51b3010 	ldr	r3, [fp, #-16]
30004534:	e3530000 	cmp	r3, #0
30004538:	1a000001 	bne	30004544 <OSMboxQuery+0x28>
        return (OS_ERR_PEVENT_NULL);
3000453c:	e3a03004 	mov	r3, #4
30004540:	ea000019 	b	300045ac <OSMboxQuery+0x90>
    }
    if (pevent->OSEventType != OS_EVENT_TYPE_MBOX) {       // Validate event block type
30004544:	e51b3010 	ldr	r3, [fp, #-16]
30004548:	e5d33000 	ldrb	r3, [r3]
3000454c:	e3530001 	cmp	r3, #1
30004550:	0a000001 	beq	3000455c <OSMboxQuery+0x40>
        return (OS_ERR_EVENT_TYPE);
30004554:	e3a03001 	mov	r3, #1
30004558:	ea000013 	b	300045ac <OSMboxQuery+0x90>
    }
    OS_ENTER_CRITICAL();
3000455c:	ebffef96 	bl	300003bc <OS_CPU_SR_Save>
30004560:	e50b0008 	str	r0, [fp, #-8]
    pdata->OSEventGrp = pevent->OSEventGrp;                // Copy message mailbox wait list
30004564:	e51b3010 	ldr	r3, [fp, #-16]
30004568:	e5d32001 	ldrb	r2, [r3, #1]
3000456c:	e51b3014 	ldr	r3, [fp, #-20]	@ 0xffffffec
30004570:	e5c3200c 	strb	r2, [r3, #12]
    memcpy(&pdata->OSEventTbl[0], &pevent->OSEventTbl[0], sizeof(pdata->OSEventTbl));
30004574:	e51b3014 	ldr	r3, [fp, #-20]	@ 0xffffffec
30004578:	e2830004 	add	r0, r3, #4
3000457c:	e51b3010 	ldr	r3, [fp, #-16]
30004580:	e283300c 	add	r3, r3, #12
30004584:	e3a02008 	mov	r2, #8
30004588:	e1a01003 	mov	r1, r3
3000458c:	eb000d8b 	bl	30007bc0 <memcpy>
    pdata->OSMsg = pevent->OSEventPtr;                     // Get message from mailbox
30004590:	e51b3010 	ldr	r3, [fp, #-16]
30004594:	e5932004 	ldr	r2, [r3, #4]
30004598:	e51b3014 	ldr	r3, [fp, #-20]	@ 0xffffffec
3000459c:	e5832000 	str	r2, [r3]
    OS_EXIT_CRITICAL();
300045a0:	e51b0008 	ldr	r0, [fp, #-8]
300045a4:	ebffef88 	bl	300003cc <OS_CPU_SR_Restore>
    return (OS_NO_ERR);
300045a8:	e3a03000 	mov	r3, #0
}
300045ac:	e1a00003 	mov	r0, r3
300045b0:	e24bd004 	sub	sp, fp, #4
300045b4:	e8bd4800 	pop	{fp, lr}
300045b8:	e12fff1e 	bx	lr

300045bc <OSMemCreate>:
* - `blksize` 必须至少是指针的大小 (4字节)，且最好是 4 字节对齐，否则在链表指针解引用时可能导致 Data Abort 异常。
* - 建议在代码中增加对 `addr` 和 `blksize` 的对齐检查。
*********************************************************************************************************
*/
OS_MEM  *OSMemCreate (void *addr, INT32U nblks, INT32U blksize, INT8U *err)
{
300045bc:	e92d4800 	push	{fp, lr}
300045c0:	e28db004 	add	fp, sp, #4
300045c4:	e24dd028 	sub	sp, sp, #40	@ 0x28
300045c8:	e50b0020 	str	r0, [fp, #-32]	@ 0xffffffe0
300045cc:	e50b1024 	str	r1, [fp, #-36]	@ 0xffffffdc
300045d0:	e50b2028 	str	r2, [fp, #-40]	@ 0xffffffd8
300045d4:	e50b302c 	str	r3, [fp, #-44]	@ 0xffffffd4
    OS_CPU_SR cpu_sr;
    OS_MEM  *pmem;
    INT8U   *pblk;
    void    **plink;

    if(addr == (void *)0){
300045d8:	e51b3020 	ldr	r3, [fp, #-32]	@ 0xffffffe0
300045dc:	e3530000 	cmp	r3, #0
300045e0:	1a000004 	bne	300045f8 <OSMemCreate+0x3c>
        *err = OS_MEM_INVALID_ADDR;
300045e4:	e51b302c 	ldr	r3, [fp, #-44]	@ 0xffffffd4
300045e8:	e3a02076 	mov	r2, #118	@ 0x76
300045ec:	e5c32000 	strb	r2, [r3]
        return ((OS_MEM *)0);
300045f0:	e3a03000 	mov	r3, #0
300045f4:	ea000054 	b	3000474c <OSMemCreate+0x190>
    }
    if(nblks < 2){
300045f8:	e51b3024 	ldr	r3, [fp, #-36]	@ 0xffffffdc
300045fc:	e3530001 	cmp	r3, #1
30004600:	8a000004 	bhi	30004618 <OSMemCreate+0x5c>
        *err = OS_MEM_NO_FREE_BLKS;
30004604:	e51b302c 	ldr	r3, [fp, #-44]	@ 0xffffffd4
30004608:	e3a02071 	mov	r2, #113	@ 0x71
3000460c:	e5c32000 	strb	r2, [r3]
        return ((OS_MEM *)0);
30004610:	e3a03000 	mov	r3, #0
30004614:	ea00004c 	b	3000474c <OSMemCreate+0x190>
    }
    if(blksize < sizeof(void *)){
30004618:	e51b3028 	ldr	r3, [fp, #-40]	@ 0xffffffd8
3000461c:	e3530003 	cmp	r3, #3
30004620:	8a000004 	bhi	30004638 <OSMemCreate+0x7c>
        *err = OS_MEM_INVALID_SIZE;
30004624:	e51b302c 	ldr	r3, [fp, #-44]	@ 0xffffffd4
30004628:	e3a02070 	mov	r2, #112	@ 0x70
3000462c:	e5c32000 	strb	r2, [r3]
        return ((OS_MEM *)0);
30004630:	e3a03000 	mov	r3, #0
30004634:	ea000044 	b	3000474c <OSMemCreate+0x190>
    }
    OS_ENTER_CRITICAL();
30004638:	ebffef5f 	bl	300003bc <OS_CPU_SR_Save>
3000463c:	e50b0014 	str	r0, [fp, #-20]	@ 0xffffffec
    pmem = OSMemFreeList;
30004640:	e59f3114 	ldr	r3, [pc, #276]	@ 3000475c <OSMemCreate+0x1a0>
30004644:	e5933000 	ldr	r3, [r3]
30004648:	e50b3018 	str	r3, [fp, #-24]	@ 0xffffffe8
    if(OSMemFreeList != (OS_MEM *)0){
3000464c:	e59f3108 	ldr	r3, [pc, #264]	@ 3000475c <OSMemCreate+0x1a0>
30004650:	e5933000 	ldr	r3, [r3]
30004654:	e3530000 	cmp	r3, #0
30004658:	0a000004 	beq	30004670 <OSMemCreate+0xb4>
        OSMemFreeList = (OS_MEM *)OSMemFreeList->OSMemFreeList;
3000465c:	e59f30f8 	ldr	r3, [pc, #248]	@ 3000475c <OSMemCreate+0x1a0>
30004660:	e5933000 	ldr	r3, [r3]
30004664:	e5933004 	ldr	r3, [r3, #4]
30004668:	e59f20ec 	ldr	r2, [pc, #236]	@ 3000475c <OSMemCreate+0x1a0>
3000466c:	e5823000 	str	r3, [r2]
    }
    OS_EXIT_CRITICAL();
30004670:	e51b0014 	ldr	r0, [fp, #-20]	@ 0xffffffec
30004674:	ebffef54 	bl	300003cc <OS_CPU_SR_Restore>
    if(pmem == (OS_MEM *)0){
30004678:	e51b3018 	ldr	r3, [fp, #-24]	@ 0xffffffe8
3000467c:	e3530000 	cmp	r3, #0
30004680:	1a000004 	bne	30004698 <OSMemCreate+0xdc>
        *err = OS_MEM_INVALID_PART;
30004684:	e51b302c 	ldr	r3, [fp, #-44]	@ 0xffffffd4
30004688:	e3a0206e 	mov	r2, #110	@ 0x6e
3000468c:	e5c32000 	strb	r2, [r3]
        return ((OS_MEM *)0);
30004690:	e3a03000 	mov	r3, #0
30004694:	ea00002c 	b	3000474c <OSMemCreate+0x190>
    }
    plink = (void **)addr;
30004698:	e51b3020 	ldr	r3, [fp, #-32]	@ 0xffffffe0
3000469c:	e50b300c 	str	r3, [fp, #-12]
    pblk = (INT8U *)addr + blksize;
300046a0:	e51b2020 	ldr	r2, [fp, #-32]	@ 0xffffffe0
300046a4:	e51b3028 	ldr	r3, [fp, #-40]	@ 0xffffffd8
300046a8:	e0823003 	add	r3, r2, r3
300046ac:	e50b3008 	str	r3, [fp, #-8]
    for(INT32U i = 0; i < (nblks - 1); i++){
300046b0:	e3a03000 	mov	r3, #0
300046b4:	e50b3010 	str	r3, [fp, #-16]
300046b8:	ea00000b 	b	300046ec <OSMemCreate+0x130>
        *plink = (void *)pblk;
300046bc:	e51b300c 	ldr	r3, [fp, #-12]
300046c0:	e51b2008 	ldr	r2, [fp, #-8]
300046c4:	e5832000 	str	r2, [r3]
        plink = (void **)pblk;
300046c8:	e51b3008 	ldr	r3, [fp, #-8]
300046cc:	e50b300c 	str	r3, [fp, #-12]
        pblk = pblk +blksize;
300046d0:	e51b2008 	ldr	r2, [fp, #-8]
300046d4:	e51b3028 	ldr	r3, [fp, #-40]	@ 0xffffffd8
300046d8:	e0823003 	add	r3, r2, r3
300046dc:	e50b3008 	str	r3, [fp, #-8]
    for(INT32U i = 0; i < (nblks - 1); i++){
300046e0:	e51b3010 	ldr	r3, [fp, #-16]
300046e4:	e2833001 	add	r3, r3, #1
300046e8:	e50b3010 	str	r3, [fp, #-16]
300046ec:	e51b3024 	ldr	r3, [fp, #-36]	@ 0xffffffdc
300046f0:	e2433001 	sub	r3, r3, #1
300046f4:	e51b2010 	ldr	r2, [fp, #-16]
300046f8:	e1520003 	cmp	r2, r3
300046fc:	3affffee 	bcc	300046bc <OSMemCreate+0x100>
    }
    *plink = (void *)0;
30004700:	e51b300c 	ldr	r3, [fp, #-12]
30004704:	e3a02000 	mov	r2, #0
30004708:	e5832000 	str	r2, [r3]
    pmem->OSMemAddr = addr;
3000470c:	e51b3018 	ldr	r3, [fp, #-24]	@ 0xffffffe8
30004710:	e51b2020 	ldr	r2, [fp, #-32]	@ 0xffffffe0
30004714:	e5832000 	str	r2, [r3]
    pmem->OSMemFreeList = addr;
30004718:	e51b3018 	ldr	r3, [fp, #-24]	@ 0xffffffe8
3000471c:	e51b2020 	ldr	r2, [fp, #-32]	@ 0xffffffe0
30004720:	e5832004 	str	r2, [r3, #4]
    pmem->OSMemNFree = nblks;
30004724:	e51b3018 	ldr	r3, [fp, #-24]	@ 0xffffffe8
30004728:	e51b2024 	ldr	r2, [fp, #-36]	@ 0xffffffdc
3000472c:	e5832010 	str	r2, [r3, #16]
    pmem->OSMemBlkSize = blksize;
30004730:	e51b3018 	ldr	r3, [fp, #-24]	@ 0xffffffe8
30004734:	e51b2028 	ldr	r2, [fp, #-40]	@ 0xffffffd8
30004738:	e5832008 	str	r2, [r3, #8]
    *err = OS_NO_ERR;
3000473c:	e51b302c 	ldr	r3, [fp, #-44]	@ 0xffffffd4
30004740:	e3a02000 	mov	r2, #0
30004744:	e5c32000 	strb	r2, [r3]
    return(pmem);
30004748:	e51b3018 	ldr	r3, [fp, #-24]	@ 0xffffffe8
}
3000474c:	e1a00003 	mov	r0, r3
30004750:	e24bd004 	sub	sp, fp, #4
30004754:	e8bd4800 	pop	{fp, lr}
30004758:	e12fff1e 	bx	lr
3000475c:	3000b8ac 	.word	0x3000b8ac

30004760 <OSMemGet>:
* 移植要点:
* - 纯逻辑操作。
*********************************************************************************************************
*/
void  *OSMemGet (OS_MEM *pmem, INT8U *err)
{
30004760:	e92d4800 	push	{fp, lr}
30004764:	e28db004 	add	fp, sp, #4
30004768:	e24dd010 	sub	sp, sp, #16
3000476c:	e50b0010 	str	r0, [fp, #-16]
30004770:	e50b1014 	str	r1, [fp, #-20]	@ 0xffffffec
    OS_CPU_SR cpu_sr;
    void *pblk;
    if(pmem == (OS_MEM *)0){
30004774:	e51b3010 	ldr	r3, [fp, #-16]
30004778:	e3530000 	cmp	r3, #0
3000477c:	1a000004 	bne	30004794 <OSMemGet+0x34>
        *err = OS_MEM_INVALID_PMEM;
30004780:	e51b3014 	ldr	r3, [fp, #-20]	@ 0xffffffec
30004784:	e3a02074 	mov	r2, #116	@ 0x74
30004788:	e5c32000 	strb	r2, [r3]
        return ((OS_MEM *)0);
3000478c:	e3a03000 	mov	r3, #0
30004790:	ea00001e 	b	30004810 <OSMemGet+0xb0>
    }
    OS_ENTER_CRITICAL();
30004794:	ebffef08 	bl	300003bc <OS_CPU_SR_Save>
30004798:	e50b0008 	str	r0, [fp, #-8]
    if(pmem->OSMemNFree > 0){
3000479c:	e51b3010 	ldr	r3, [fp, #-16]
300047a0:	e5933010 	ldr	r3, [r3, #16]
300047a4:	e3530000 	cmp	r3, #0
300047a8:	0a000012 	beq	300047f8 <OSMemGet+0x98>
        pblk = pmem->OSMemFreeList;
300047ac:	e51b3010 	ldr	r3, [fp, #-16]
300047b0:	e5933004 	ldr	r3, [r3, #4]
300047b4:	e50b300c 	str	r3, [fp, #-12]
        pmem->OSMemFreeList = *(void **)pblk;
300047b8:	e51b300c 	ldr	r3, [fp, #-12]
300047bc:	e5932000 	ldr	r2, [r3]
300047c0:	e51b3010 	ldr	r3, [fp, #-16]
300047c4:	e5832004 	str	r2, [r3, #4]
        pmem->OSMemNFree--;
300047c8:	e51b3010 	ldr	r3, [fp, #-16]
300047cc:	e5933010 	ldr	r3, [r3, #16]
300047d0:	e2432001 	sub	r2, r3, #1
300047d4:	e51b3010 	ldr	r3, [fp, #-16]
300047d8:	e5832010 	str	r2, [r3, #16]
        OS_EXIT_CRITICAL();
300047dc:	e51b0008 	ldr	r0, [fp, #-8]
300047e0:	ebffeef9 	bl	300003cc <OS_CPU_SR_Restore>
        *err = OS_NO_ERR;
300047e4:	e51b3014 	ldr	r3, [fp, #-20]	@ 0xffffffec
300047e8:	e3a02000 	mov	r2, #0
300047ec:	e5c32000 	strb	r2, [r3]
        return(pblk);
300047f0:	e51b300c 	ldr	r3, [fp, #-12]
300047f4:	ea000005 	b	30004810 <OSMemGet+0xb0>
    }
    OS_EXIT_CRITICAL();
300047f8:	e51b0008 	ldr	r0, [fp, #-8]
300047fc:	ebffeef2 	bl	300003cc <OS_CPU_SR_Restore>
    *err = OS_MEM_NO_FREE_BLKS;
30004800:	e51b3014 	ldr	r3, [fp, #-20]	@ 0xffffffec
30004804:	e3a02071 	mov	r2, #113	@ 0x71
30004808:	e5c32000 	strb	r2, [r3]
    return ((void *)0);
3000480c:	e3a03000 	mov	r3, #0
}
30004810:	e1a00003 	mov	r0, r3
30004814:	e24bd004 	sub	sp, fp, #4
30004818:	e8bd4800 	pop	{fp, lr}
3000481c:	e12fff1e 	bx	lr

30004820 <OSMemPut>:
* 移植要点:
* - 无。
*********************************************************************************************************
*/
INT8U  OSMemPut (OS_MEM  *pmem, void *pblk)
{
30004820:	e92d4800 	push	{fp, lr}
30004824:	e28db004 	add	fp, sp, #4
30004828:	e24dd010 	sub	sp, sp, #16
3000482c:	e50b0010 	str	r0, [fp, #-16]
30004830:	e50b1014 	str	r1, [fp, #-20]	@ 0xffffffec
    OS_CPU_SR cpu_sr;
    if(pmem == (OS_MEM *)0){
30004834:	e51b3010 	ldr	r3, [fp, #-16]
30004838:	e3530000 	cmp	r3, #0
3000483c:	1a000001 	bne	30004848 <OSMemPut+0x28>
        return (OS_MEM_INVALID_PMEM);
30004840:	e3a03074 	mov	r3, #116	@ 0x74
30004844:	ea00001f 	b	300048c8 <OSMemPut+0xa8>
    }
    if(pblk == (void *)0){
30004848:	e51b3014 	ldr	r3, [fp, #-20]	@ 0xffffffec
3000484c:	e3530000 	cmp	r3, #0
30004850:	1a000001 	bne	3000485c <OSMemPut+0x3c>
        return (OS_MEM_INVALID_PBLK);
30004854:	e3a03073 	mov	r3, #115	@ 0x73
30004858:	ea00001a 	b	300048c8 <OSMemPut+0xa8>
    }
    OS_ENTER_CRITICAL();
3000485c:	ebffeed6 	bl	300003bc <OS_CPU_SR_Save>
30004860:	e50b0008 	str	r0, [fp, #-8]
    if(pmem->OSMemNFree >= pmem->OSMemNBlks){
30004864:	e51b3010 	ldr	r3, [fp, #-16]
30004868:	e5932010 	ldr	r2, [r3, #16]
3000486c:	e51b3010 	ldr	r3, [fp, #-16]
30004870:	e593300c 	ldr	r3, [r3, #12]
30004874:	e1520003 	cmp	r2, r3
30004878:	3a000003 	bcc	3000488c <OSMemPut+0x6c>
        OS_EXIT_CRITICAL();
3000487c:	e51b0008 	ldr	r0, [fp, #-8]
30004880:	ebffeed1 	bl	300003cc <OS_CPU_SR_Restore>
        return (OS_MEM_FULL);
30004884:	e3a03072 	mov	r3, #114	@ 0x72
30004888:	ea00000e 	b	300048c8 <OSMemPut+0xa8>
    }
    *(void **)pblk = pmem->OSMemFreeList;
3000488c:	e51b3010 	ldr	r3, [fp, #-16]
30004890:	e5932004 	ldr	r2, [r3, #4]
30004894:	e51b3014 	ldr	r3, [fp, #-20]	@ 0xffffffec
30004898:	e5832000 	str	r2, [r3]
    pmem->OSMemFreeList = pblk;
3000489c:	e51b3010 	ldr	r3, [fp, #-16]
300048a0:	e51b2014 	ldr	r2, [fp, #-20]	@ 0xffffffec
300048a4:	e5832004 	str	r2, [r3, #4]
    pmem->OSMemNFree++;
300048a8:	e51b3010 	ldr	r3, [fp, #-16]
300048ac:	e5933010 	ldr	r3, [r3, #16]
300048b0:	e2832001 	add	r2, r3, #1
300048b4:	e51b3010 	ldr	r3, [fp, #-16]
300048b8:	e5832010 	str	r2, [r3, #16]
    OS_EXIT_CRITICAL();
300048bc:	e51b0008 	ldr	r0, [fp, #-8]
300048c0:	ebffeec1 	bl	300003cc <OS_CPU_SR_Restore>
    return (OS_NO_ERR);
300048c4:	e3a03000 	mov	r3, #0
}
300048c8:	e1a00003 	mov	r0, r3
300048cc:	e24bd004 	sub	sp, fp, #4
300048d0:	e8bd4800 	pop	{fp, lr}
300048d4:	e12fff1e 	bx	lr

300048d8 <OSMemQuery>:
* 移植要点:
* - 无。
*********************************************************************************************************
*/
INT8U  OSMemQuery (OS_MEM *pmem, OS_MEM_DATA *pdata)
{
300048d8:	e92d4800 	push	{fp, lr}
300048dc:	e28db004 	add	fp, sp, #4
300048e0:	e24dd010 	sub	sp, sp, #16
300048e4:	e50b0010 	str	r0, [fp, #-16]
300048e8:	e50b1014 	str	r1, [fp, #-20]	@ 0xffffffec

    OS_CPU_SR  cpu_sr;
    
    if (pmem == (OS_MEM *)0) {                   // Must point to a valid memory partition
300048ec:	e51b3010 	ldr	r3, [fp, #-16]
300048f0:	e3530000 	cmp	r3, #0
300048f4:	1a000001 	bne	30004900 <OSMemQuery+0x28>
        return (OS_MEM_INVALID_PMEM);
300048f8:	e3a03074 	mov	r3, #116	@ 0x74
300048fc:	ea000024 	b	30004994 <OSMemQuery+0xbc>
    }
    if (pdata == (OS_MEM_DATA *)0) {             // Must release a valid storage area for the data
30004900:	e51b3014 	ldr	r3, [fp, #-20]	@ 0xffffffec
30004904:	e3530000 	cmp	r3, #0
30004908:	1a000001 	bne	30004914 <OSMemQuery+0x3c>
        return (OS_MEM_INVALID_PDATA);
3000490c:	e3a03075 	mov	r3, #117	@ 0x75
30004910:	ea00001f 	b	30004994 <OSMemQuery+0xbc>
    }
    OS_ENTER_CRITICAL();
30004914:	ebffeea8 	bl	300003bc <OS_CPU_SR_Save>
30004918:	e50b0008 	str	r0, [fp, #-8]
    pdata->OSAddr     = pmem->OSMemAddr;
3000491c:	e51b3010 	ldr	r3, [fp, #-16]
30004920:	e5932000 	ldr	r2, [r3]
30004924:	e51b3014 	ldr	r3, [fp, #-20]	@ 0xffffffec
30004928:	e5832000 	str	r2, [r3]
    pdata->OSFreeList = pmem->OSMemFreeList;
3000492c:	e51b3010 	ldr	r3, [fp, #-16]
30004930:	e5932004 	ldr	r2, [r3, #4]
30004934:	e51b3014 	ldr	r3, [fp, #-20]	@ 0xffffffec
30004938:	e5832004 	str	r2, [r3, #4]
    pdata->OSBlkSize  = pmem->OSMemBlkSize;
3000493c:	e51b3010 	ldr	r3, [fp, #-16]
30004940:	e5932008 	ldr	r2, [r3, #8]
30004944:	e51b3014 	ldr	r3, [fp, #-20]	@ 0xffffffec
30004948:	e5832008 	str	r2, [r3, #8]
    pdata->OSNBlks    = pmem->OSMemNBlks;
3000494c:	e51b3010 	ldr	r3, [fp, #-16]
30004950:	e593200c 	ldr	r2, [r3, #12]
30004954:	e51b3014 	ldr	r3, [fp, #-20]	@ 0xffffffec
30004958:	e583200c 	str	r2, [r3, #12]
    pdata->OSNFree    = pmem->OSMemNFree;
3000495c:	e51b3010 	ldr	r3, [fp, #-16]
30004960:	e5932010 	ldr	r2, [r3, #16]
30004964:	e51b3014 	ldr	r3, [fp, #-20]	@ 0xffffffec
30004968:	e5832010 	str	r2, [r3, #16]
    OS_EXIT_CRITICAL();
3000496c:	e51b0008 	ldr	r0, [fp, #-8]
30004970:	ebffee95 	bl	300003cc <OS_CPU_SR_Restore>
    pdata->OSNUsed    = pdata->OSNBlks - pdata->OSNFree;
30004974:	e51b3014 	ldr	r3, [fp, #-20]	@ 0xffffffec
30004978:	e593200c 	ldr	r2, [r3, #12]
3000497c:	e51b3014 	ldr	r3, [fp, #-20]	@ 0xffffffec
30004980:	e5933010 	ldr	r3, [r3, #16]
30004984:	e0422003 	sub	r2, r2, r3
30004988:	e51b3014 	ldr	r3, [fp, #-20]	@ 0xffffffec
3000498c:	e5832014 	str	r2, [r3, #20]
    return (OS_NO_ERR);
30004990:	e3a03000 	mov	r3, #0

}
30004994:	e1a00003 	mov	r0, r3
30004998:	e24bd004 	sub	sp, fp, #4
3000499c:	e8bd4800 	pop	{fp, lr}
300049a0:	e12fff1e 	bx	lr

300049a4 <OS_MemInit>:
* 移植要点:
* - 无。
*********************************************************************************************************
*/
void  OS_MemInit (void)
{
300049a4:	e52db004 	push	{fp}		@ (str fp, [sp, #-4]!)
300049a8:	e28db000 	add	fp, sp, #0
300049ac:	e24dd00c 	sub	sp, sp, #12
    OSMemFreeList->OSMemBlkSize = 0;
    OSMemFreeList->OSMemNBlks = 0;
    OSMemFreeList->OSMemNFree = 0;
#elif OS_MAX_MEM_PART >= 2
    OS_MEM *pmem;
    pmem = (OS_MEM *)&OSMemTbl[0];
300049b0:	e59f30e0 	ldr	r3, [pc, #224]	@ 30004a98 <OS_MemInit+0xf4>
300049b4:	e50b3008 	str	r3, [fp, #-8]
    for(INT16U i = 0; i < (OS_MAX_MEM_PART - 1); i++){
300049b8:	e3a03000 	mov	r3, #0
300049bc:	e14b30ba 	strh	r3, [fp, #-10]
300049c0:	ea00001b 	b	30004a34 <OS_MemInit+0x90>
        pmem->OSMemAddr = (void *)0;
300049c4:	e51b3008 	ldr	r3, [fp, #-8]
300049c8:	e3a02000 	mov	r2, #0
300049cc:	e5832000 	str	r2, [r3]
        pmem->OSMemFreeList = (void *)&OSMemTbl[i+1];
300049d0:	e15b30ba 	ldrh	r3, [fp, #-10]
300049d4:	e2832001 	add	r2, r3, #1
300049d8:	e1a03002 	mov	r3, r2
300049dc:	e1a03103 	lsl	r3, r3, #2
300049e0:	e0833002 	add	r3, r3, r2
300049e4:	e1a03103 	lsl	r3, r3, #2
300049e8:	e59f20a8 	ldr	r2, [pc, #168]	@ 30004a98 <OS_MemInit+0xf4>
300049ec:	e0832002 	add	r2, r3, r2
300049f0:	e51b3008 	ldr	r3, [fp, #-8]
300049f4:	e5832004 	str	r2, [r3, #4]
        pmem->OSMemBlkSize = 0;
300049f8:	e51b3008 	ldr	r3, [fp, #-8]
300049fc:	e3a02000 	mov	r2, #0
30004a00:	e5832008 	str	r2, [r3, #8]
        pmem->OSMemNBlks = 0;
30004a04:	e51b3008 	ldr	r3, [fp, #-8]
30004a08:	e3a02000 	mov	r2, #0
30004a0c:	e583200c 	str	r2, [r3, #12]
        pmem->OSMemNFree = 0;
30004a10:	e51b3008 	ldr	r3, [fp, #-8]
30004a14:	e3a02000 	mov	r2, #0
30004a18:	e5832010 	str	r2, [r3, #16]
        pmem++;
30004a1c:	e51b3008 	ldr	r3, [fp, #-8]
30004a20:	e2833014 	add	r3, r3, #20
30004a24:	e50b3008 	str	r3, [fp, #-8]
    for(INT16U i = 0; i < (OS_MAX_MEM_PART - 1); i++){
30004a28:	e15b30ba 	ldrh	r3, [fp, #-10]
30004a2c:	e2833001 	add	r3, r3, #1
30004a30:	e14b30ba 	strh	r3, [fp, #-10]
30004a34:	e15b30ba 	ldrh	r3, [fp, #-10]
30004a38:	e3530003 	cmp	r3, #3
30004a3c:	9affffe0 	bls	300049c4 <OS_MemInit+0x20>
    }
    pmem->OSMemFreeList = (void *)0;
30004a40:	e51b3008 	ldr	r3, [fp, #-8]
30004a44:	e3a02000 	mov	r2, #0
30004a48:	e5832004 	str	r2, [r3, #4]
    pmem->OSMemAddr = (void *)0;
30004a4c:	e51b3008 	ldr	r3, [fp, #-8]
30004a50:	e3a02000 	mov	r2, #0
30004a54:	e5832000 	str	r2, [r3]
    pmem->OSMemBlkSize = 0;
30004a58:	e51b3008 	ldr	r3, [fp, #-8]
30004a5c:	e3a02000 	mov	r2, #0
30004a60:	e5832008 	str	r2, [r3, #8]
    pmem->OSMemNBlks = 0;
30004a64:	e51b3008 	ldr	r3, [fp, #-8]
30004a68:	e3a02000 	mov	r2, #0
30004a6c:	e583200c 	str	r2, [r3, #12]
    pmem->OSMemNFree = 0;
30004a70:	e51b3008 	ldr	r3, [fp, #-8]
30004a74:	e3a02000 	mov	r2, #0
30004a78:	e5832010 	str	r2, [r3, #16]

    OSMemFreeList =(OS_MEM *)&OSMemTbl[0];
30004a7c:	e59f3018 	ldr	r3, [pc, #24]	@ 30004a9c <OS_MemInit+0xf8>
30004a80:	e59f2010 	ldr	r2, [pc, #16]	@ 30004a98 <OS_MemInit+0xf4>
30004a84:	e5832000 	str	r2, [r3]
#endif
}
30004a88:	e1a00000 	nop			@ (mov r0, r0)
30004a8c:	e28bd000 	add	sp, fp, #0
30004a90:	e49db004 	pop	{fp}		@ (ldr fp, [sp], #4)
30004a94:	e12fff1e 	bx	lr
30004a98:	3000b8b0 	.word	0x3000b8b0
30004a9c:	3000b8ac 	.word	0x3000b8ac

30004aa0 <OSMutexAccept>:
* - 互斥量使用了 OSEventCnt 的高 8 位存储 PIP (Priority Inheritance Priority)，低 8 位存储状态。
* - Mini2440 是小端模式 (Little Endian)，位操作 `>> 8` 和 `& 0xFF` 是标准的，不受端序影响，但直接内存访问需小心。
*********************************************************************************************************
*/
INT8U  OSMutexAccept (OS_EVENT *pevent, INT8U *err)
{
30004aa0:	e92d4800 	push	{fp, lr}
30004aa4:	e28db004 	add	fp, sp, #4
30004aa8:	e24dd010 	sub	sp, sp, #16
30004aac:	e50b0010 	str	r0, [fp, #-16]
30004ab0:	e50b1014 	str	r1, [fp, #-20]	@ 0xffffffec
    OS_CPU_SR  cpu_sr;  
      
    if (OSIntNesting > 0) {                            // Make sure it's not called from an ISR
30004ab4:	e59f3104 	ldr	r3, [pc, #260]	@ 30004bc0 <OSMutexAccept+0x120>
30004ab8:	e5d33000 	ldrb	r3, [r3]
30004abc:	e3530000 	cmp	r3, #0
30004ac0:	0a000004 	beq	30004ad8 <OSMutexAccept+0x38>
        *err = OS_ERR_PEND_ISR;
30004ac4:	e51b3014 	ldr	r3, [fp, #-20]	@ 0xffffffec
30004ac8:	e3a02002 	mov	r2, #2
30004acc:	e5c32000 	strb	r2, [r3]
        return (0);
30004ad0:	e3a03000 	mov	r3, #0
30004ad4:	ea000035 	b	30004bb0 <OSMutexAccept+0x110>
    }
    if (pevent == (OS_EVENT *)0) {                     // Validate 'pevent'
30004ad8:	e51b3010 	ldr	r3, [fp, #-16]
30004adc:	e3530000 	cmp	r3, #0
30004ae0:	1a000004 	bne	30004af8 <OSMutexAccept+0x58>
        *err = OS_ERR_PEVENT_NULL;
30004ae4:	e51b3014 	ldr	r3, [fp, #-20]	@ 0xffffffec
30004ae8:	e3a02004 	mov	r2, #4
30004aec:	e5c32000 	strb	r2, [r3]
        return (0);
30004af0:	e3a03000 	mov	r3, #0
30004af4:	ea00002d 	b	30004bb0 <OSMutexAccept+0x110>
    }
    if (pevent->OSEventType != OS_EVENT_TYPE_MUTEX) {  // Validate event block type
30004af8:	e51b3010 	ldr	r3, [fp, #-16]
30004afc:	e5d33000 	ldrb	r3, [r3]
30004b00:	e3530004 	cmp	r3, #4
30004b04:	0a000004 	beq	30004b1c <OSMutexAccept+0x7c>
        *err = OS_ERR_EVENT_TYPE;
30004b08:	e51b3014 	ldr	r3, [fp, #-20]	@ 0xffffffec
30004b0c:	e3a02001 	mov	r2, #1
30004b10:	e5c32000 	strb	r2, [r3]
        return (0);
30004b14:	e3a03000 	mov	r3, #0
30004b18:	ea000024 	b	30004bb0 <OSMutexAccept+0x110>
    }                                                    
    OS_ENTER_CRITICAL();							   // Get value (0 or 1) of Mutex
30004b1c:	ebffee26 	bl	300003bc <OS_CPU_SR_Save>
30004b20:	e50b0008 	str	r0, [fp, #-8]
    if ((pevent->OSEventCnt & OS_MUTEX_KEEP_LOWER_8) == OS_MUTEX_AVAILABLE) {     
30004b24:	e51b3010 	ldr	r3, [fp, #-16]
30004b28:	e5933008 	ldr	r3, [r3, #8]
30004b2c:	e20330ff 	and	r3, r3, #255	@ 0xff
30004b30:	e35300ff 	cmp	r3, #255	@ 0xff
30004b34:	1a000017 	bne	30004b98 <OSMutexAccept+0xf8>
        pevent->OSEventCnt &= OS_MUTEX_KEEP_UPPER_8;   // Mask off LSByte (Acquire Mutex)
30004b38:	e51b3010 	ldr	r3, [fp, #-16]
30004b3c:	e5933008 	ldr	r3, [r3, #8]
30004b40:	e2032cff 	and	r2, r3, #65280	@ 0xff00
30004b44:	e51b3010 	ldr	r3, [fp, #-16]
30004b48:	e5832008 	str	r2, [r3, #8]
        pevent->OSEventCnt |= OSTCBCur->OSTCBPrio;     // Save current task priority in LSByte
30004b4c:	e51b3010 	ldr	r3, [fp, #-16]
30004b50:	e5933008 	ldr	r3, [r3, #8]
30004b54:	e59f2068 	ldr	r2, [pc, #104]	@ 30004bc4 <OSMutexAccept+0x124>
30004b58:	e5922000 	ldr	r2, [r2]
30004b5c:	e5d2201e 	ldrb	r2, [r2, #30]
30004b60:	e1832002 	orr	r2, r3, r2
30004b64:	e51b3010 	ldr	r3, [fp, #-16]
30004b68:	e5832008 	str	r2, [r3, #8]
        pevent->OSEventPtr  = (void *)OSTCBCur;        // Link TCB of task owning Mutex
30004b6c:	e59f3050 	ldr	r3, [pc, #80]	@ 30004bc4 <OSMutexAccept+0x124>
30004b70:	e5932000 	ldr	r2, [r3]
30004b74:	e51b3010 	ldr	r3, [fp, #-16]
30004b78:	e5832004 	str	r2, [r3, #4]
        OS_EXIT_CRITICAL();
30004b7c:	e51b0008 	ldr	r0, [fp, #-8]
30004b80:	ebffee11 	bl	300003cc <OS_CPU_SR_Restore>
        *err = OS_NO_ERR;
30004b84:	e51b3014 	ldr	r3, [fp, #-20]	@ 0xffffffec
30004b88:	e3a02000 	mov	r2, #0
30004b8c:	e5c32000 	strb	r2, [r3]
        return (1);
30004b90:	e3a03001 	mov	r3, #1
30004b94:	ea000005 	b	30004bb0 <OSMutexAccept+0x110>
    }
    OS_EXIT_CRITICAL();
30004b98:	e51b0008 	ldr	r0, [fp, #-8]
30004b9c:	ebffee0a 	bl	300003cc <OS_CPU_SR_Restore>
    *err = OS_NO_ERR;
30004ba0:	e51b3014 	ldr	r3, [fp, #-20]	@ 0xffffffec
30004ba4:	e3a02000 	mov	r2, #0
30004ba8:	e5c32000 	strb	r2, [r3]
    return (0);
30004bac:	e3a03000 	mov	r3, #0
}
30004bb0:	e1a00003 	mov	r0, r3
30004bb4:	e24bd004 	sub	sp, fp, #4
30004bb8:	e8bd4800 	pop	{fp, lr}
30004bbc:	e12fff1e 	bx	lr
30004bc0:	3000ac90 	.word	0x3000ac90
30004bc4:	3000b5b8 	.word	0x3000b5b8

30004bc8 <OSMutexCreate>:
* 移植要点:
* - PIP 必须是系统独有的优先级，不能被其他任务使用。
*********************************************************************************************************
*/
OS_EVENT  *OSMutexCreate (INT8U prio, INT8U *err)
{
30004bc8:	e92d4800 	push	{fp, lr}
30004bcc:	e28db004 	add	fp, sp, #4
30004bd0:	e24dd010 	sub	sp, sp, #16
30004bd4:	e1a03000 	mov	r3, r0
30004bd8:	e50b1014 	str	r1, [fp, #-20]	@ 0xffffffec
30004bdc:	e54b300d 	strb	r3, [fp, #-13]
    OS_CPU_SR  cpu_sr;
    OS_EVENT  *pevent;

    // 1. 参数检查：不能在中断中调用
    if (OSIntNesting > 0) {
30004be0:	e59f312c 	ldr	r3, [pc, #300]	@ 30004d14 <OSMutexCreate+0x14c>
30004be4:	e5d33000 	ldrb	r3, [r3]
30004be8:	e3530000 	cmp	r3, #0
30004bec:	0a000004 	beq	30004c04 <OSMutexCreate+0x3c>
        *err = OS_ERR_CREATE_ISR;
30004bf0:	e51b3014 	ldr	r3, [fp, #-20]	@ 0xffffffec
30004bf4:	e3e02072 	mvn	r2, #114	@ 0x72
30004bf8:	e5c32000 	strb	r2, [r3]
        return ((OS_EVENT *)0);
30004bfc:	e3a03000 	mov	r3, #0
30004c00:	ea00003f 	b	30004d04 <OSMutexCreate+0x13c>
    }
    if (prio >= OS_LOWEST_PRIO) { // 注意：通常Mutex优先级不能等于最低优先级
30004c04:	e55b300d 	ldrb	r3, [fp, #-13]
30004c08:	e353003d 	cmp	r3, #61	@ 0x3d
30004c0c:	9a000004 	bls	30004c24 <OSMutexCreate+0x5c>
        *err = OS_PRIO_INVALID;
30004c10:	e51b3014 	ldr	r3, [fp, #-20]	@ 0xffffffec
30004c14:	e3a0202a 	mov	r2, #42	@ 0x2a
30004c18:	e5c32000 	strb	r2, [r3]
        return ((OS_EVENT *)0);
30004c1c:	e3a03000 	mov	r3, #0
30004c20:	ea000037 	b	30004d04 <OSMutexCreate+0x13c>
    }
    OS_ENTER_CRITICAL();
30004c24:	ebffede4 	bl	300003bc <OS_CPU_SR_Save>
30004c28:	e50b0008 	str	r0, [fp, #-8]
    if (OSTCBPrioTbl[prio] != (OS_TCB *)0) { 
30004c2c:	e55b300d 	ldrb	r3, [fp, #-13]
30004c30:	e59f20e0 	ldr	r2, [pc, #224]	@ 30004d18 <OSMutexCreate+0x150>
30004c34:	e7923103 	ldr	r3, [r2, r3, lsl #2]
30004c38:	e3530000 	cmp	r3, #0
30004c3c:	0a000006 	beq	30004c5c <OSMutexCreate+0x94>
        OS_EXIT_CRITICAL();
30004c40:	e51b0008 	ldr	r0, [fp, #-8]
30004c44:	ebffede0 	bl	300003cc <OS_CPU_SR_Restore>
        *err = OS_PRIO_EXIST;  // 报错：优先级已被占用
30004c48:	e51b3014 	ldr	r3, [fp, #-20]	@ 0xffffffec
30004c4c:	e3a02028 	mov	r2, #40	@ 0x28
30004c50:	e5c32000 	strb	r2, [r3]
        return ((OS_EVENT *)0);
30004c54:	e3a03000 	mov	r3, #0
30004c58:	ea000029 	b	30004d04 <OSMutexCreate+0x13c>
    }
    pevent = OSEventFreeList;
30004c5c:	e59f30b8 	ldr	r3, [pc, #184]	@ 30004d1c <OSMutexCreate+0x154>
30004c60:	e5933000 	ldr	r3, [r3]
30004c64:	e50b300c 	str	r3, [fp, #-12]
    if (pevent == (OS_EVENT *)0) {
30004c68:	e51b300c 	ldr	r3, [fp, #-12]
30004c6c:	e3530000 	cmp	r3, #0
30004c70:	1a000006 	bne	30004c90 <OSMutexCreate+0xc8>
        OS_EXIT_CRITICAL();
30004c74:	e51b0008 	ldr	r0, [fp, #-8]
30004c78:	ebffedd3 	bl	300003cc <OS_CPU_SR_Restore>
        *err = OS_ERR_PEVENT_NULL; 
30004c7c:	e51b3014 	ldr	r3, [fp, #-20]	@ 0xffffffec
30004c80:	e3a02004 	mov	r2, #4
30004c84:	e5c32000 	strb	r2, [r3]
        return ((OS_EVENT *)0);
30004c88:	e3a03000 	mov	r3, #0
30004c8c:	ea00001c 	b	30004d04 <OSMutexCreate+0x13c>
    }
    OSEventFreeList = (OS_EVENT *)OSEventFreeList->OSEventPtr;
30004c90:	e59f3084 	ldr	r3, [pc, #132]	@ 30004d1c <OSMutexCreate+0x154>
30004c94:	e5933000 	ldr	r3, [r3]
30004c98:	e5933004 	ldr	r3, [r3, #4]
30004c9c:	e59f2078 	ldr	r2, [pc, #120]	@ 30004d1c <OSMutexCreate+0x154>
30004ca0:	e5823000 	str	r3, [r2]
    OSTCBPrioTbl[prio] = (OS_TCB *)1; 
30004ca4:	e55b300d 	ldrb	r3, [fp, #-13]
30004ca8:	e59f2068 	ldr	r2, [pc, #104]	@ 30004d18 <OSMutexCreate+0x150>
30004cac:	e3a01001 	mov	r1, #1
30004cb0:	e7821103 	str	r1, [r2, r3, lsl #2]
    OS_EXIT_CRITICAL();
30004cb4:	e51b0008 	ldr	r0, [fp, #-8]
30004cb8:	ebffedc3 	bl	300003cc <OS_CPU_SR_Restore>
    pevent->OSEventType = OS_EVENT_TYPE_MUTEX;
30004cbc:	e51b300c 	ldr	r3, [fp, #-12]
30004cc0:	e3a02004 	mov	r2, #4
30004cc4:	e5c32000 	strb	r2, [r3]
    
    // 互斥锁的 Cnt 比较特殊：
    // 高8位 = PIP (优先级继承优先级)
    // 低8位 = 0xFF (表示锁是可用的，Available)
    pevent->OSEventCnt  = (prio << 8) | OS_MUTEX_AVAILABLE; 
30004cc8:	e55b300d 	ldrb	r3, [fp, #-13]
30004ccc:	e1a03403 	lsl	r3, r3, #8
30004cd0:	e38330ff 	orr	r3, r3, #255	@ 0xff
30004cd4:	e1a02003 	mov	r2, r3
30004cd8:	e51b300c 	ldr	r3, [fp, #-12]
30004cdc:	e5832008 	str	r2, [r3, #8]
    pevent->OSEventPtr  = (void *)0; // 互斥锁不需要 Ptr 指向别的
30004ce0:	e51b300c 	ldr	r3, [fp, #-12]
30004ce4:	e3a02000 	mov	r2, #0
30004ce8:	e5832004 	str	r2, [r3, #4]
    OS_EventWaitListInit(pevent);    // 清空等待列表
30004cec:	e51b000c 	ldr	r0, [fp, #-12]
30004cf0:	ebfff6bb 	bl	300027e4 <OS_EventWaitListInit>

    *err = OS_NO_ERR;
30004cf4:	e51b3014 	ldr	r3, [fp, #-20]	@ 0xffffffec
30004cf8:	e3a02000 	mov	r2, #0
30004cfc:	e5c32000 	strb	r2, [r3]
    return (pevent);
30004d00:	e51b300c 	ldr	r3, [fp, #-12]
}
30004d04:	e1a00003 	mov	r0, r3
30004d08:	e24bd004 	sub	sp, fp, #4
30004d0c:	e8bd4800 	pop	{fp, lr}
30004d10:	e12fff1e 	bx	lr
30004d14:	3000ac90 	.word	0x3000ac90
30004d18:	3000b5c8 	.word	0x3000b5c8
30004d1c:	3000b804 	.word	0x3000b804

30004d20 <OSMutexDel>:
* 移植要点:
* - 无。
*********************************************************************************************************
*/
OS_EVENT  *OSMutexDel (OS_EVENT *pevent, INT8U opt, INT8U *err)
{
30004d20:	e92d4800 	push	{fp, lr}
30004d24:	e28db004 	add	fp, sp, #4
30004d28:	e24dd020 	sub	sp, sp, #32
30004d2c:	e50b0018 	str	r0, [fp, #-24]	@ 0xffffffe8
30004d30:	e1a03001 	mov	r3, r1
30004d34:	e50b2020 	str	r2, [fp, #-32]	@ 0xffffffe0
30004d38:	e54b3019 	strb	r3, [fp, #-25]	@ 0xffffffe7
    OS_CPU_SR  cpu_sr;   
    BOOLEAN    tasks_waiting;
    INT8U      pip;


    if (OSIntNesting > 0) {                                // See if called from ISR ...
30004d3c:	e59f31ec 	ldr	r3, [pc, #492]	@ 30004f30 <OSMutexDel+0x210>
30004d40:	e5d33000 	ldrb	r3, [r3]
30004d44:	e3530000 	cmp	r3, #0
30004d48:	0a000004 	beq	30004d60 <OSMutexDel+0x40>
        *err = OS_ERR_DEL_ISR;                             // ... can't DELETE from an ISR
30004d4c:	e51b3020 	ldr	r3, [fp, #-32]	@ 0xffffffe0
30004d50:	e3e02073 	mvn	r2, #115	@ 0x73
30004d54:	e5c32000 	strb	r2, [r3]
        return (pevent);
30004d58:	e51b3018 	ldr	r3, [fp, #-24]	@ 0xffffffe8
30004d5c:	ea00006f 	b	30004f20 <OSMutexDel+0x200>
    }
    if (pevent == (OS_EVENT *)0) {                         // Validate 'pevent'
30004d60:	e51b3018 	ldr	r3, [fp, #-24]	@ 0xffffffe8
30004d64:	e3530000 	cmp	r3, #0
30004d68:	1a000004 	bne	30004d80 <OSMutexDel+0x60>
        *err = OS_ERR_PEVENT_NULL;
30004d6c:	e51b3020 	ldr	r3, [fp, #-32]	@ 0xffffffe0
30004d70:	e3a02004 	mov	r2, #4
30004d74:	e5c32000 	strb	r2, [r3]
        return ((OS_EVENT *)0);
30004d78:	e3a03000 	mov	r3, #0
30004d7c:	ea000067 	b	30004f20 <OSMutexDel+0x200>
    }
    if (pevent->OSEventType != OS_EVENT_TYPE_MUTEX) {      // Validate event block type
30004d80:	e51b3018 	ldr	r3, [fp, #-24]	@ 0xffffffe8
30004d84:	e5d33000 	ldrb	r3, [r3]
30004d88:	e3530004 	cmp	r3, #4
30004d8c:	0a000004 	beq	30004da4 <OSMutexDel+0x84>
        *err = OS_ERR_EVENT_TYPE;
30004d90:	e51b3020 	ldr	r3, [fp, #-32]	@ 0xffffffe0
30004d94:	e3a02001 	mov	r2, #1
30004d98:	e5c32000 	strb	r2, [r3]
        return (pevent);
30004d9c:	e51b3018 	ldr	r3, [fp, #-24]	@ 0xffffffe8
30004da0:	ea00005e 	b	30004f20 <OSMutexDel+0x200>
    }
    OS_ENTER_CRITICAL();
30004da4:	ebffed84 	bl	300003bc <OS_CPU_SR_Save>
30004da8:	e50b000c 	str	r0, [fp, #-12]
    if (pevent->OSEventGrp != 0x00) {                      // See if any tasks waiting on mutex
30004dac:	e51b3018 	ldr	r3, [fp, #-24]	@ 0xffffffe8
30004db0:	e5d33001 	ldrb	r3, [r3, #1]
30004db4:	e3530000 	cmp	r3, #0
30004db8:	0a000002 	beq	30004dc8 <OSMutexDel+0xa8>
        tasks_waiting = TRUE;                              // Yes
30004dbc:	e3a03001 	mov	r3, #1
30004dc0:	e54b3005 	strb	r3, [fp, #-5]
30004dc4:	ea000001 	b	30004dd0 <OSMutexDel+0xb0>
    } else {
        tasks_waiting = FALSE;                             // No
30004dc8:	e3a03000 	mov	r3, #0
30004dcc:	e54b3005 	strb	r3, [fp, #-5]
    }
    switch (opt) {
30004dd0:	e55b3019 	ldrb	r3, [fp, #-25]	@ 0xffffffe7
30004dd4:	e3530000 	cmp	r3, #0
30004dd8:	0a000002 	beq	30004de8 <OSMutexDel+0xc8>
30004ddc:	e3530001 	cmp	r3, #1
30004de0:	0a000027 	beq	30004e84 <OSMutexDel+0x164>
30004de4:	ea000047 	b	30004f08 <OSMutexDel+0x1e8>
        case OS_DEL_NO_PEND:                               // Delete mutex only if no task waiting
             if (tasks_waiting == FALSE) {
30004de8:	e55b3005 	ldrb	r3, [fp, #-5]
30004dec:	e3530000 	cmp	r3, #0
30004df0:	1a000018 	bne	30004e58 <OSMutexDel+0x138>
                 pip                 = (INT8U)(pevent->OSEventCnt >> 8);
30004df4:	e51b3018 	ldr	r3, [fp, #-24]	@ 0xffffffe8
30004df8:	e5933008 	ldr	r3, [r3, #8]
30004dfc:	e1a03423 	lsr	r3, r3, #8
30004e00:	e54b300d 	strb	r3, [fp, #-13]
                 OSTCBPrioTbl[pip]   = (OS_TCB *)0;        // Free up the PIP
30004e04:	e55b300d 	ldrb	r3, [fp, #-13]
30004e08:	e59f2124 	ldr	r2, [pc, #292]	@ 30004f34 <OSMutexDel+0x214>
30004e0c:	e3a01000 	mov	r1, #0
30004e10:	e7821103 	str	r1, [r2, r3, lsl #2]
                 pevent->OSEventType = OS_EVENT_TYPE_UNUSED;
30004e14:	e51b3018 	ldr	r3, [fp, #-24]	@ 0xffffffe8
30004e18:	e3a02000 	mov	r2, #0
30004e1c:	e5c32000 	strb	r2, [r3]
                 pevent->OSEventPtr  = OSEventFreeList;    // Return Event Control Block to free list
30004e20:	e59f3110 	ldr	r3, [pc, #272]	@ 30004f38 <OSMutexDel+0x218>
30004e24:	e5932000 	ldr	r2, [r3]
30004e28:	e51b3018 	ldr	r3, [fp, #-24]	@ 0xffffffe8
30004e2c:	e5832004 	str	r2, [r3, #4]
                 OSEventFreeList     = pevent;
30004e30:	e59f2100 	ldr	r2, [pc, #256]	@ 30004f38 <OSMutexDel+0x218>
30004e34:	e51b3018 	ldr	r3, [fp, #-24]	@ 0xffffffe8
30004e38:	e5823000 	str	r3, [r2]
                 OS_EXIT_CRITICAL();
30004e3c:	e51b000c 	ldr	r0, [fp, #-12]
30004e40:	ebffed61 	bl	300003cc <OS_CPU_SR_Restore>
                 *err = OS_NO_ERR;
30004e44:	e51b3020 	ldr	r3, [fp, #-32]	@ 0xffffffe0
30004e48:	e3a02000 	mov	r2, #0
30004e4c:	e5c32000 	strb	r2, [r3]
                 return ((OS_EVENT *)0);                   // Mutex has been deleted
30004e50:	e3a03000 	mov	r3, #0
30004e54:	ea000031 	b	30004f20 <OSMutexDel+0x200>
             } else {
                 OS_EXIT_CRITICAL();
30004e58:	e51b000c 	ldr	r0, [fp, #-12]
30004e5c:	ebffed5a 	bl	300003cc <OS_CPU_SR_Restore>
                 *err = OS_ERR_TASK_WAITING;
30004e60:	e51b3020 	ldr	r3, [fp, #-32]	@ 0xffffffe0
30004e64:	e3a02008 	mov	r2, #8
30004e68:	e5c32000 	strb	r2, [r3]
                 return (pevent);
30004e6c:	e51b3018 	ldr	r3, [fp, #-24]	@ 0xffffffe8
30004e70:	ea00002a 	b	30004f20 <OSMutexDel+0x200>
             }

        case OS_DEL_ALWAYS:                                // Always delete the mutex
             while (pevent->OSEventGrp != 0x00) {          // Ready ALL tasks waiting for mutex
                 OS_EventTaskRdy(pevent, (void *)0, OS_STAT_MUTEX);
30004e74:	e3a02010 	mov	r2, #16
30004e78:	e3a01000 	mov	r1, #0
30004e7c:	e51b0018 	ldr	r0, [fp, #-24]	@ 0xffffffe8
30004e80:	ebfff547 	bl	300023a4 <OS_EventTaskRdy>
             while (pevent->OSEventGrp != 0x00) {          // Ready ALL tasks waiting for mutex
30004e84:	e51b3018 	ldr	r3, [fp, #-24]	@ 0xffffffe8
30004e88:	e5d33001 	ldrb	r3, [r3, #1]
30004e8c:	e3530000 	cmp	r3, #0
30004e90:	1afffff7 	bne	30004e74 <OSMutexDel+0x154>
             }
             pip                 = (INT8U)(pevent->OSEventCnt >> 8);
30004e94:	e51b3018 	ldr	r3, [fp, #-24]	@ 0xffffffe8
30004e98:	e5933008 	ldr	r3, [r3, #8]
30004e9c:	e1a03423 	lsr	r3, r3, #8
30004ea0:	e54b300d 	strb	r3, [fp, #-13]
             OSTCBPrioTbl[pip]   = (OS_TCB *)0;            // Free up the PIP
30004ea4:	e55b300d 	ldrb	r3, [fp, #-13]
30004ea8:	e59f2084 	ldr	r2, [pc, #132]	@ 30004f34 <OSMutexDel+0x214>
30004eac:	e3a01000 	mov	r1, #0
30004eb0:	e7821103 	str	r1, [r2, r3, lsl #2]
             pevent->OSEventType = OS_EVENT_TYPE_UNUSED;
30004eb4:	e51b3018 	ldr	r3, [fp, #-24]	@ 0xffffffe8
30004eb8:	e3a02000 	mov	r2, #0
30004ebc:	e5c32000 	strb	r2, [r3]
             pevent->OSEventPtr  = OSEventFreeList;        // Return Event Control Block to free list
30004ec0:	e59f3070 	ldr	r3, [pc, #112]	@ 30004f38 <OSMutexDel+0x218>
30004ec4:	e5932000 	ldr	r2, [r3]
30004ec8:	e51b3018 	ldr	r3, [fp, #-24]	@ 0xffffffe8
30004ecc:	e5832004 	str	r2, [r3, #4]
             OSEventFreeList     = pevent;                 // Get next free event control block
30004ed0:	e59f2060 	ldr	r2, [pc, #96]	@ 30004f38 <OSMutexDel+0x218>
30004ed4:	e51b3018 	ldr	r3, [fp, #-24]	@ 0xffffffe8
30004ed8:	e5823000 	str	r3, [r2]
             OS_EXIT_CRITICAL();
30004edc:	e51b000c 	ldr	r0, [fp, #-12]
30004ee0:	ebffed39 	bl	300003cc <OS_CPU_SR_Restore>
             if (tasks_waiting == TRUE) {                  // Reschedule only if task(s) were waiting
30004ee4:	e55b3005 	ldrb	r3, [fp, #-5]
30004ee8:	e3530001 	cmp	r3, #1
30004eec:	1a000000 	bne	30004ef4 <OSMutexDel+0x1d4>
                 OS_Sched();                               // Find highest priority task ready to run
30004ef0:	ebfff691 	bl	3000293c <OS_Sched>
             }
             *err = OS_NO_ERR;
30004ef4:	e51b3020 	ldr	r3, [fp, #-32]	@ 0xffffffe0
30004ef8:	e3a02000 	mov	r2, #0
30004efc:	e5c32000 	strb	r2, [r3]
             return ((OS_EVENT *)0);                       // Mutex has been deleted
30004f00:	e3a03000 	mov	r3, #0
30004f04:	ea000005 	b	30004f20 <OSMutexDel+0x200>

        default:
             OS_EXIT_CRITICAL();
30004f08:	e51b000c 	ldr	r0, [fp, #-12]
30004f0c:	ebffed2e 	bl	300003cc <OS_CPU_SR_Restore>
             *err = OS_ERR_INVALID_OPT;
30004f10:	e51b3020 	ldr	r3, [fp, #-32]	@ 0xffffffe0
30004f14:	e3a02007 	mov	r2, #7
30004f18:	e5c32000 	strb	r2, [r3]
             return (pevent);
30004f1c:	e51b3018 	ldr	r3, [fp, #-24]	@ 0xffffffe8
    }
}
30004f20:	e1a00003 	mov	r0, r3
30004f24:	e24bd004 	sub	sp, fp, #4
30004f28:	e8bd4800 	pop	{fp, lr}
30004f2c:	e12fff1e 	bx	lr
30004f30:	3000ac90 	.word	0x3000ac90
30004f34:	3000b5c8 	.word	0x3000b5c8
30004f38:	3000b804 	.word	0x3000b804

30004f3c <OSMutexPend>:
* 移植要点:
* - 优先级继承涉及修改持有任务的 TCB 和就绪表位置，逻辑复杂，需确保操作原子性。
*********************************************************************************************************
*/
void  OSMutexPend (OS_EVENT *pevent, INT16U timeout, INT8U *err)
{
30004f3c:	e92d4800 	push	{fp, lr}
30004f40:	e28db004 	add	fp, sp, #4
30004f44:	e24dd020 	sub	sp, sp, #32
30004f48:	e50b0018 	str	r0, [fp, #-24]	@ 0xffffffe8
30004f4c:	e1a03001 	mov	r3, r1
30004f50:	e50b2020 	str	r2, [fp, #-32]	@ 0xffffffe0
30004f54:	e14b31ba 	strh	r3, [fp, #-26]	@ 0xffffffe6
    INT8U       pip; //Priority Inheritance Priority
    INT8U       mprio;//Mutex owner Priority
    BOOLEAN     rdy;
    OS_TCB      *ptcb;

    if(OSIntNesting > 0){
30004f58:	e59f336c 	ldr	r3, [pc, #876]	@ 300052cc <OSMutexPend+0x390>
30004f5c:	e5d33000 	ldrb	r3, [r3]
30004f60:	e3530000 	cmp	r3, #0
30004f64:	0a000003 	beq	30004f78 <OSMutexPend+0x3c>
        *err = OS_ERR_PEND_ISR;
30004f68:	e51b3020 	ldr	r3, [fp, #-32]	@ 0xffffffe0
30004f6c:	e3a02002 	mov	r2, #2
30004f70:	e5c32000 	strb	r2, [r3]
        return;
30004f74:	ea0000d1 	b	300052c0 <OSMutexPend+0x384>
    }
    if(pevent == (OS_EVENT *)0){
30004f78:	e51b3018 	ldr	r3, [fp, #-24]	@ 0xffffffe8
30004f7c:	e3530000 	cmp	r3, #0
30004f80:	1a000003 	bne	30004f94 <OSMutexPend+0x58>
        *err = OS_ERR_PEVENT_NULL;
30004f84:	e51b3020 	ldr	r3, [fp, #-32]	@ 0xffffffe0
30004f88:	e3a02004 	mov	r2, #4
30004f8c:	e5c32000 	strb	r2, [r3]
        return;
30004f90:	ea0000ca 	b	300052c0 <OSMutexPend+0x384>
    }
    if(pevent->OSEventType != OS_EVENT_TYPE_MUTEX){
30004f94:	e51b3018 	ldr	r3, [fp, #-24]	@ 0xffffffe8
30004f98:	e5d33000 	ldrb	r3, [r3]
30004f9c:	e3530004 	cmp	r3, #4
30004fa0:	0a000003 	beq	30004fb4 <OSMutexPend+0x78>
        *err = OS_ERR_EVENT_TYPE;
30004fa4:	e51b3020 	ldr	r3, [fp, #-32]	@ 0xffffffe0
30004fa8:	e3a02001 	mov	r2, #1
30004fac:	e5c32000 	strb	r2, [r3]
        return;
30004fb0:	ea0000c2 	b	300052c0 <OSMutexPend+0x384>
    }

    OS_ENTER_CRITICAL();
30004fb4:	ebffed00 	bl	300003bc <OS_CPU_SR_Save>
30004fb8:	e50b000c 	str	r0, [fp, #-12]
    // OS_MUTEX_KEEP_LOWER_8 是 0x00FF，用来把高8位屏蔽掉，只看低8位
    if((INT8U)(pevent->OSEventCnt & OS_MUTEX_KEEP_LOWER_8) == OS_MUTEX_AVAILABLE){
30004fbc:	e51b3018 	ldr	r3, [fp, #-24]	@ 0xffffffe8
30004fc0:	e5933008 	ldr	r3, [r3, #8]
30004fc4:	e20330ff 	and	r3, r3, #255	@ 0xff
30004fc8:	e35300ff 	cmp	r3, #255	@ 0xff
30004fcc:	1a000016 	bne	3000502c <OSMutexPend+0xf0>
        // 情况 1：没人占用互斥锁
        pevent->OSEventCnt &= OS_MUTEX_KEEP_UPPER_8;  // 保留高8位的 PIP 信息，清空低8位
30004fd0:	e51b3018 	ldr	r3, [fp, #-24]	@ 0xffffffe8
30004fd4:	e5933008 	ldr	r3, [r3, #8]
30004fd8:	e2032cff 	and	r2, r3, #65280	@ 0xff00
30004fdc:	e51b3018 	ldr	r3, [fp, #-24]	@ 0xffffffe8
30004fe0:	e5832008 	str	r2, [r3, #8]
        pevent->OSEventCnt |= OSTCBCur->OSTCBPrio;    // 把A的优先级写进低8位
30004fe4:	e51b3018 	ldr	r3, [fp, #-24]	@ 0xffffffe8
30004fe8:	e5933008 	ldr	r3, [r3, #8]
30004fec:	e59f22dc 	ldr	r2, [pc, #732]	@ 300052d0 <OSMutexPend+0x394>
30004ff0:	e5922000 	ldr	r2, [r2]
30004ff4:	e5d2201e 	ldrb	r2, [r2, #30]
30004ff8:	e1832002 	orr	r2, r3, r2
30004ffc:	e51b3018 	ldr	r3, [fp, #-24]	@ 0xffffffe8
30005000:	e5832008 	str	r2, [r3, #8]
        pevent->OSEventPtr = (void *)OSTCBCur;        // 在记录本上写下“持有者是A”
30005004:	e59f32c4 	ldr	r3, [pc, #708]	@ 300052d0 <OSMutexPend+0x394>
30005008:	e5932000 	ldr	r2, [r3]
3000500c:	e51b3018 	ldr	r3, [fp, #-24]	@ 0xffffffe8
30005010:	e5832004 	str	r2, [r3, #4]
        OS_EXIT_CRITICAL();
30005014:	e51b000c 	ldr	r0, [fp, #-12]
30005018:	ebffeceb 	bl	300003cc <OS_CPU_SR_Restore>
        *err = OS_NO_ERR;
3000501c:	e51b3020 	ldr	r3, [fp, #-32]	@ 0xffffffe0
30005020:	e3a02000 	mov	r2, #0
30005024:	e5c32000 	strb	r2, [r3]
        return;
30005028:	ea0000a4 	b	300052c0 <OSMutexPend+0x384>
    }
    // 取出高8位：尚方宝剑优先级 (PIP = 5)
    pip = (INT8U)(pevent->OSEventCnt >> 8);
3000502c:	e51b3018 	ldr	r3, [fp, #-24]	@ 0xffffffe8
30005030:	e5933008 	ldr	r3, [r3, #8]
30005034:	e1a03423 	lsr	r3, r3, #8
30005038:	e54b300d 	strb	r3, [fp, #-13]
    // 取出低8位：当前持有者的优先级 (mprio = 30，即C)
    mprio = (INT8U)(pevent->OSEventCnt & OS_MUTEX_KEEP_LOWER_8);
3000503c:	e51b3018 	ldr	r3, [fp, #-24]	@ 0xffffffe8
30005040:	e5933008 	ldr	r3, [r3, #8]
30005044:	e54b300e 	strb	r3, [fp, #-14]
    // 找到持有者C的任务控制块 (TCB)
    ptcb = (OS_TCB *)(pevent->OSEventPtr);
30005048:	e51b3018 	ldr	r3, [fp, #-24]	@ 0xffffffe8
3000504c:	e5933004 	ldr	r3, [r3, #4]
30005050:	e50b3014 	str	r3, [fp, #-20]	@ 0xffffffec

    // 判断条件：
    // 1. ptcb->OSTCBPrio != pip：C还没被提拔过（如果已经被提拔就不浪费时间了）
    // 2. mprio > OSTCBCur->OSTCBPrio：持有者（30）比我（10）弱。
    if((ptcb->OSTCBPrio != pip) && (mprio > OSTCBCur->OSTCBPrio)){
30005054:	e51b3014 	ldr	r3, [fp, #-20]	@ 0xffffffec
30005058:	e5d3301e 	ldrb	r3, [r3, #30]
3000505c:	e55b200d 	ldrb	r2, [fp, #-13]
30005060:	e1520003 	cmp	r2, r3
30005064:	0a00006b 	beq	30005218 <OSMutexPend+0x2dc>
30005068:	e59f3260 	ldr	r3, [pc, #608]	@ 300052d0 <OSMutexPend+0x394>
3000506c:	e5933000 	ldr	r3, [r3]
30005070:	e5d3301e 	ldrb	r3, [r3, #30]
30005074:	e55b200e 	ldrb	r2, [fp, #-14]
30005078:	e1520003 	cmp	r2, r3
3000507c:	9a000065 	bls	30005218 <OSMutexPend+0x2dc>
        
        //  动作 1：把C从“旧家”赶出来 
        // 检查C是不是“就绪”状态（在 Rdy 表里）
        if(((OSRdyTbl[ptcb->OSTCBY]) & (ptcb->OSTCBBitX)) != 0x00){
30005080:	e51b3014 	ldr	r3, [fp, #-20]	@ 0xffffffec
30005084:	e5d33021 	ldrb	r3, [r3, #33]	@ 0x21
30005088:	e1a02003 	mov	r2, r3
3000508c:	e59f3240 	ldr	r3, [pc, #576]	@ 300052d4 <OSMutexPend+0x398>
30005090:	e7d32002 	ldrb	r2, [r3, r2]
30005094:	e51b3014 	ldr	r3, [fp, #-20]	@ 0xffffffec
30005098:	e5d33022 	ldrb	r3, [r3, #34]	@ 0x22
3000509c:	e0033002 	and	r3, r3, r2
300050a0:	e20330ff 	and	r3, r3, #255	@ 0xff
300050a4:	e3530000 	cmp	r3, #0
300050a8:	0a00001f 	beq	3000512c <OSMutexPend+0x1f0>
            // 如果这一行只有C一个人，就把整行的标志位清零
            if(((OSRdyTbl[ptcb->OSTCBY]) & ~(ptcb->OSTCBBitX)) == 0x00){
300050ac:	e51b3014 	ldr	r3, [fp, #-20]	@ 0xffffffec
300050b0:	e5d33021 	ldrb	r3, [r3, #33]	@ 0x21
300050b4:	e1a02003 	mov	r2, r3
300050b8:	e59f3214 	ldr	r3, [pc, #532]	@ 300052d4 <OSMutexPend+0x398>
300050bc:	e7d33002 	ldrb	r3, [r3, r2]
300050c0:	e1a02003 	mov	r2, r3
300050c4:	e51b3014 	ldr	r3, [fp, #-20]	@ 0xffffffec
300050c8:	e5d33022 	ldrb	r3, [r3, #34]	@ 0x22
300050cc:	e1e03003 	mvn	r3, r3
300050d0:	e0033002 	and	r3, r3, r2
300050d4:	e3530000 	cmp	r3, #0
300050d8:	1a000010 	bne	30005120 <OSMutexPend+0x1e4>
                OSRdyGrp &= ~(ptcb->OSTCBBitY);
300050dc:	e51b3014 	ldr	r3, [fp, #-20]	@ 0xffffffec
300050e0:	e5d33023 	ldrb	r3, [r3, #35]	@ 0x23
300050e4:	e1a03c03 	lsl	r3, r3, #24
300050e8:	e1a03c43 	asr	r3, r3, #24
300050ec:	e1e03003 	mvn	r3, r3
300050f0:	e1a03c03 	lsl	r3, r3, #24
300050f4:	e1a02c43 	asr	r2, r3, #24
300050f8:	e59f31d8 	ldr	r3, [pc, #472]	@ 300052d8 <OSMutexPend+0x39c>
300050fc:	e5d33000 	ldrb	r3, [r3]
30005100:	e1a03c03 	lsl	r3, r3, #24
30005104:	e1a03c43 	asr	r3, r3, #24
30005108:	e0033002 	and	r3, r3, r2
3000510c:	e1a03c03 	lsl	r3, r3, #24
30005110:	e1a03c43 	asr	r3, r3, #24
30005114:	e20320ff 	and	r2, r3, #255	@ 0xff
30005118:	e59f31b8 	ldr	r3, [pc, #440]	@ 300052d8 <OSMutexPend+0x39c>
3000511c:	e5c32000 	strb	r2, [r3]
            }
            rdy = TRUE; // 标记：他本来是醒着的
30005120:	e3a03001 	mov	r3, #1
30005124:	e54b3005 	strb	r3, [fp, #-5]
30005128:	ea000001 	b	30005134 <OSMutexPend+0x1f8>
        }
        else{
            rdy = FALSE; // 他本来可能在睡觉（比如在该别的锁），那就不用操作就绪表
3000512c:	e3a03000 	mov	r3, #0
30005130:	e54b3005 	strb	r3, [fp, #-5]
        }

        //  动作 2：给C改名换姓 
        ptcb->OSTCBPrio = pip; // 现在的优先级变成 5 (PIP)！
30005134:	e51b3014 	ldr	r3, [fp, #-20]	@ 0xffffffec
30005138:	e55b200d 	ldrb	r2, [fp, #-13]
3000513c:	e5c3201e 	strb	r2, [r3, #30]
        // 重新计算他在 8x8 任务表里的新坐标（数学逻辑）
        ptcb->OSTCBY = (ptcb->OSTCBPrio) >> 3;      // 新行号 = 5 / 8 = 0
30005140:	e51b3014 	ldr	r3, [fp, #-20]	@ 0xffffffec
30005144:	e5d3301e 	ldrb	r3, [r3, #30]
30005148:	e1a031a3 	lsr	r3, r3, #3
3000514c:	e20320ff 	and	r2, r3, #255	@ 0xff
30005150:	e51b3014 	ldr	r3, [fp, #-20]	@ 0xffffffec
30005154:	e5c32021 	strb	r2, [r3, #33]	@ 0x21
        ptcb->OSTCBBitY = OSMapTbl[ptcb->OSTCBY];   // 查表得行掩码
30005158:	e51b3014 	ldr	r3, [fp, #-20]	@ 0xffffffec
3000515c:	e5d33021 	ldrb	r3, [r3, #33]	@ 0x21
30005160:	e1a02003 	mov	r2, r3
30005164:	e59f3170 	ldr	r3, [pc, #368]	@ 300052dc <OSMutexPend+0x3a0>
30005168:	e7d32002 	ldrb	r2, [r3, r2]
3000516c:	e51b3014 	ldr	r3, [fp, #-20]	@ 0xffffffec
30005170:	e5c32023 	strb	r2, [r3, #35]	@ 0x23
        ptcb->OSTCBX = (ptcb->OSTCBPrio) & 7;       // 新列号 = 5 % 8 = 5
30005174:	e51b3014 	ldr	r3, [fp, #-20]	@ 0xffffffec
30005178:	e5d3301e 	ldrb	r3, [r3, #30]
3000517c:	e2033007 	and	r3, r3, #7
30005180:	e20320ff 	and	r2, r3, #255	@ 0xff
30005184:	e51b3014 	ldr	r3, [fp, #-20]	@ 0xffffffec
30005188:	e5c32020 	strb	r2, [r3, #32]
        ptcb->OSTCBBitX = OSMapTbl[ptcb->OSTCBX];   // 查表得列掩码
3000518c:	e51b3014 	ldr	r3, [fp, #-20]	@ 0xffffffec
30005190:	e5d33020 	ldrb	r3, [r3, #32]
30005194:	e1a02003 	mov	r2, r3
30005198:	e59f313c 	ldr	r3, [pc, #316]	@ 300052dc <OSMutexPend+0x3a0>
3000519c:	e7d32002 	ldrb	r2, [r3, r2]
300051a0:	e51b3014 	ldr	r3, [fp, #-20]	@ 0xffffffec
300051a4:	e5c32022 	strb	r2, [r3, #34]	@ 0x22

        //  动作 3：把C搬进“新豪宅” 
        if(rdy == TRUE){
300051a8:	e55b3005 	ldrb	r3, [fp, #-5]
300051ac:	e3530001 	cmp	r3, #1
300051b0:	1a000014 	bne	30005208 <OSMutexPend+0x2cc>
            // 在就绪表的“新位置”把它置位
            OSRdyGrp |= ptcb->OSTCBBitY;
300051b4:	e51b3014 	ldr	r3, [fp, #-20]	@ 0xffffffec
300051b8:	e5d32023 	ldrb	r2, [r3, #35]	@ 0x23
300051bc:	e59f3114 	ldr	r3, [pc, #276]	@ 300052d8 <OSMutexPend+0x39c>
300051c0:	e5d33000 	ldrb	r3, [r3]
300051c4:	e1823003 	orr	r3, r2, r3
300051c8:	e20320ff 	and	r2, r3, #255	@ 0xff
300051cc:	e59f3104 	ldr	r3, [pc, #260]	@ 300052d8 <OSMutexPend+0x39c>
300051d0:	e5c32000 	strb	r2, [r3]
            OSRdyTbl[ptcb->OSTCBY] |= ptcb->OSTCBBitX; 
300051d4:	e51b3014 	ldr	r3, [fp, #-20]	@ 0xffffffec
300051d8:	e5d33021 	ldrb	r3, [r3, #33]	@ 0x21
300051dc:	e1a02003 	mov	r2, r3
300051e0:	e59f30ec 	ldr	r3, [pc, #236]	@ 300052d4 <OSMutexPend+0x398>
300051e4:	e7d32002 	ldrb	r2, [r3, r2]
300051e8:	e51b3014 	ldr	r3, [fp, #-20]	@ 0xffffffec
300051ec:	e5d33022 	ldrb	r3, [r3, #34]	@ 0x22
300051f0:	e51b1014 	ldr	r1, [fp, #-20]	@ 0xffffffec
300051f4:	e5d11021 	ldrb	r1, [r1, #33]	@ 0x21
300051f8:	e1823003 	orr	r3, r2, r3
300051fc:	e20320ff 	and	r2, r3, #255	@ 0xff
30005200:	e59f30cc 	ldr	r3, [pc, #204]	@ 300052d4 <OSMutexPend+0x398>
30005204:	e7c32001 	strb	r2, [r3, r1]
        }
        // 记录一下：PIP 优先级 5 现在的代表人物是这个 ptcb
        OSTCBPrioTbl[pip] = (OS_TCB *)ptcb;
30005208:	e55b300d 	ldrb	r3, [fp, #-13]
3000520c:	e59f10cc 	ldr	r1, [pc, #204]	@ 300052e0 <OSMutexPend+0x3a4>
30005210:	e51b2014 	ldr	r2, [fp, #-20]	@ 0xffffffec
30005214:	e7812103 	str	r2, [r1, r3, lsl #2]
    }
    OSTCBCur->OSTCBStat |= OS_STAT_MUTEX; // 设置状态：A在等互斥量
30005218:	e59f30b0 	ldr	r3, [pc, #176]	@ 300052d0 <OSMutexPend+0x394>
3000521c:	e5933000 	ldr	r3, [r3]
30005220:	e5d3201f 	ldrb	r2, [r3, #31]
30005224:	e59f30a4 	ldr	r3, [pc, #164]	@ 300052d0 <OSMutexPend+0x394>
30005228:	e5933000 	ldr	r3, [r3]
3000522c:	e3822010 	orr	r2, r2, #16
30005230:	e20220ff 	and	r2, r2, #255	@ 0xff
30005234:	e5c3201f 	strb	r2, [r3, #31]
    OSTCBCur->OSTCBDly = timeout;         // 设置最长等多久
30005238:	e59f3090 	ldr	r3, [pc, #144]	@ 300052d0 <OSMutexPend+0x394>
3000523c:	e5933000 	ldr	r3, [r3]
30005240:	e15b21ba 	ldrh	r2, [fp, #-26]	@ 0xffffffe6
30005244:	e1c321bc 	strh	r2, [r3, #28]
    OS_EventTaskWait(pevent);             // 把A从就绪表里移除，放到这个互斥量的等待队列里
30005248:	e51b0018 	ldr	r0, [fp, #-24]	@ 0xffffffe8
3000524c:	ebfff4c8 	bl	30002574 <OS_EventTaskWait>
    OS_EXIT_CRITICAL();
30005250:	e51b000c 	ldr	r0, [fp, #-12]
30005254:	ebffec5c 	bl	300003cc <OS_CPU_SR_Restore>
    OS_Sched(); // 关键发起调度：A，优先级 10睡着了。B，优先级 20是醒着的。C，现优先级5是醒着的。
30005258:	ebfff5b7 	bl	3000293c <OS_Sched>
    OS_ENTER_CRITICAL();
3000525c:	ebffec56 	bl	300003bc <OS_CPU_SR_Save>
30005260:	e50b000c 	str	r0, [fp, #-12]
    // 检查：如果A醒来时，状态里还标着“我在等锁”，说明A是被迫醒的（超时），而不是拿到了锁
    if(OSTCBCur->OSTCBStat & OS_STAT_MUTEX){
30005264:	e59f3064 	ldr	r3, [pc, #100]	@ 300052d0 <OSMutexPend+0x394>
30005268:	e5933000 	ldr	r3, [r3]
3000526c:	e5d3301f 	ldrb	r3, [r3, #31]
30005270:	e2033010 	and	r3, r3, #16
30005274:	e3530000 	cmp	r3, #0
30005278:	0a000007 	beq	3000529c <OSMutexPend+0x360>
        OS_EventTO(pevent); // 处理超时逻辑（把任务从等待队列移除）
3000527c:	e51b0018 	ldr	r0, [fp, #-24]	@ 0xffffffe8
30005280:	ebfff514 	bl	300026d8 <OS_EventTO>
        OS_EXIT_CRITICAL();
30005284:	e51b000c 	ldr	r0, [fp, #-12]
30005288:	ebffec4f 	bl	300003cc <OS_CPU_SR_Restore>
        *err = OS_TIMEOUT;  // 告诉调用者A：超时了
3000528c:	e51b3020 	ldr	r3, [fp, #-32]	@ 0xffffffe0
30005290:	e3a0200a 	mov	r2, #10
30005294:	e5c32000 	strb	r2, [r3]
        return;
30005298:	ea000008 	b	300052c0 <OSMutexPend+0x384>
    }
    
    // 如果走到这里，说明A正常拿到了锁
    OSTCBCur->OSTCBEventPtr = (OS_EVENT *)0;
3000529c:	e59f302c 	ldr	r3, [pc, #44]	@ 300052d0 <OSMutexPend+0x394>
300052a0:	e5933000 	ldr	r3, [r3]
300052a4:	e3a02000 	mov	r2, #0
300052a8:	e583200c 	str	r2, [r3, #12]
    OS_EXIT_CRITICAL();
300052ac:	e51b000c 	ldr	r0, [fp, #-12]
300052b0:	ebffec45 	bl	300003cc <OS_CPU_SR_Restore>
    *err = OS_NO_ERR; // 成功！
300052b4:	e51b3020 	ldr	r3, [fp, #-32]	@ 0xffffffe0
300052b8:	e3a02000 	mov	r2, #0
300052bc:	e5c32000 	strb	r2, [r3]
}
300052c0:	e24bd004 	sub	sp, fp, #4
300052c4:	e8bd4800 	pop	{fp, lr}
300052c8:	e12fff1e 	bx	lr
300052cc:	3000ac90 	.word	0x3000ac90
300052d0:	3000b5b8 	.word	0x3000b5b8
300052d4:	3000ac98 	.word	0x3000ac98
300052d8:	3000ac95 	.word	0x3000ac95
300052dc:	300080b8 	.word	0x300080b8
300052e0:	3000b5c8 	.word	0x3000b5c8

300052e4 <OSMutexPost>:
* 移植要点:
* - 恢复优先级时需要重新计算在就绪表中的位置。
*********************************************************************************************************
*/
INT8U  OSMutexPost (OS_EVENT *pevent)//考虑加上err
{
300052e4:	e92d4800 	push	{fp, lr}
300052e8:	e28db004 	add	fp, sp, #4
300052ec:	e24dd010 	sub	sp, sp, #16
300052f0:	e50b0010 	str	r0, [fp, #-16]
    OS_CPU_SR cpu_sr;
    INT8U     pip;
    INT8U     prio;

    if(OSIntNesting > 0){
300052f4:	e59f333c 	ldr	r3, [pc, #828]	@ 30005638 <OSMutexPost+0x354>
300052f8:	e5d33000 	ldrb	r3, [r3]
300052fc:	e3530000 	cmp	r3, #0
30005300:	0a000001 	beq	3000530c <OSMutexPost+0x28>
        return (OS_ERR_POST_ISR);
30005304:	e3a03005 	mov	r3, #5
30005308:	ea0000c6 	b	30005628 <OSMutexPost+0x344>
    }
    if(pevent == (OS_EVENT *)0){
3000530c:	e51b3010 	ldr	r3, [fp, #-16]
30005310:	e3530000 	cmp	r3, #0
30005314:	1a000001 	bne	30005320 <OSMutexPost+0x3c>
        return (OS_ERR_PEVENT_NULL);
30005318:	e3a03004 	mov	r3, #4
3000531c:	ea0000c1 	b	30005628 <OSMutexPost+0x344>
    }
    if(pevent->OSEventType != OS_EVENT_TYPE_MUTEX){
30005320:	e51b3010 	ldr	r3, [fp, #-16]
30005324:	e5d33000 	ldrb	r3, [r3]
30005328:	e3530004 	cmp	r3, #4
3000532c:	0a000001 	beq	30005338 <OSMutexPost+0x54>
        return (OS_ERR_EVENT_TYPE);
30005330:	e3a03001 	mov	r3, #1
30005334:	ea0000bb 	b	30005628 <OSMutexPost+0x344>
    }

    OS_ENTER_CRITICAL();
30005338:	ebffec1f 	bl	300003bc <OS_CPU_SR_Save>
3000533c:	e50b0008 	str	r0, [fp, #-8]
    pip = (INT8U)(pevent->OSEventCnt >> 8);
30005340:	e51b3010 	ldr	r3, [fp, #-16]
30005344:	e5933008 	ldr	r3, [r3, #8]
30005348:	e1a03423 	lsr	r3, r3, #8
3000534c:	e54b3009 	strb	r3, [fp, #-9]
    prio = (INT8U)(pevent->OSEventCnt & OS_MUTEX_KEEP_LOWER_8);
30005350:	e51b3010 	ldr	r3, [fp, #-16]
30005354:	e5933008 	ldr	r3, [r3, #8]
30005358:	e54b300a 	strb	r3, [fp, #-10]
    if(OSTCBCur->OSTCBPrio != pip && OSTCBCur->OSTCBPrio != prio){
3000535c:	e59f32d8 	ldr	r3, [pc, #728]	@ 3000563c <OSMutexPost+0x358>
30005360:	e5933000 	ldr	r3, [r3]
30005364:	e5d3301e 	ldrb	r3, [r3, #30]
30005368:	e55b2009 	ldrb	r2, [fp, #-9]
3000536c:	e1520003 	cmp	r2, r3
30005370:	0a000009 	beq	3000539c <OSMutexPost+0xb8>
30005374:	e59f32c0 	ldr	r3, [pc, #704]	@ 3000563c <OSMutexPost+0x358>
30005378:	e5933000 	ldr	r3, [r3]
3000537c:	e5d3301e 	ldrb	r3, [r3, #30]
30005380:	e55b200a 	ldrb	r2, [fp, #-10]
30005384:	e1520003 	cmp	r2, r3
30005388:	0a000003 	beq	3000539c <OSMutexPost+0xb8>
        OS_EXIT_CRITICAL();
3000538c:	e51b0008 	ldr	r0, [fp, #-8]
30005390:	ebffec0d 	bl	300003cc <OS_CPU_SR_Restore>
        return (OS_ERR_NOT_MUTEX_OWNER);
30005394:	e3a03078 	mov	r3, #120	@ 0x78
30005398:	ea0000a2 	b	30005628 <OSMutexPost+0x344>
    }
    if(OSTCBCur->OSTCBPrio == pip){
3000539c:	e59f3298 	ldr	r3, [pc, #664]	@ 3000563c <OSMutexPost+0x358>
300053a0:	e5933000 	ldr	r3, [r3]
300053a4:	e5d3301e 	ldrb	r3, [r3, #30]
300053a8:	e55b2009 	ldrb	r2, [fp, #-9]
300053ac:	e1520003 	cmp	r2, r3
300053b0:	1a00006e 	bne	30005570 <OSMutexPost+0x28c>
        if((OSRdyTbl[OSTCBCur->OSTCBY] &= ~OSTCBCur->OSTCBBitX) == 0){
300053b4:	e59f3280 	ldr	r3, [pc, #640]	@ 3000563c <OSMutexPost+0x358>
300053b8:	e5933000 	ldr	r3, [r3]
300053bc:	e5d33021 	ldrb	r3, [r3, #33]	@ 0x21
300053c0:	e1a02003 	mov	r2, r3
300053c4:	e59f3274 	ldr	r3, [pc, #628]	@ 30005640 <OSMutexPost+0x35c>
300053c8:	e7d33002 	ldrb	r3, [r3, r2]
300053cc:	e1a03c03 	lsl	r3, r3, #24
300053d0:	e1a02c43 	asr	r2, r3, #24
300053d4:	e59f3260 	ldr	r3, [pc, #608]	@ 3000563c <OSMutexPost+0x358>
300053d8:	e5933000 	ldr	r3, [r3]
300053dc:	e5d33022 	ldrb	r3, [r3, #34]	@ 0x22
300053e0:	e1a03c03 	lsl	r3, r3, #24
300053e4:	e1a03c43 	asr	r3, r3, #24
300053e8:	e1e03003 	mvn	r3, r3
300053ec:	e1a03c03 	lsl	r3, r3, #24
300053f0:	e1a03c43 	asr	r3, r3, #24
300053f4:	e0033002 	and	r3, r3, r2
300053f8:	e1a03c03 	lsl	r3, r3, #24
300053fc:	e1a02c43 	asr	r2, r3, #24
30005400:	e59f3234 	ldr	r3, [pc, #564]	@ 3000563c <OSMutexPost+0x358>
30005404:	e5933000 	ldr	r3, [r3]
30005408:	e5d33021 	ldrb	r3, [r3, #33]	@ 0x21
3000540c:	e20210ff 	and	r1, r2, #255	@ 0xff
30005410:	e59f2228 	ldr	r2, [pc, #552]	@ 30005640 <OSMutexPost+0x35c>
30005414:	e7c21003 	strb	r1, [r2, r3]
30005418:	e59f2220 	ldr	r2, [pc, #544]	@ 30005640 <OSMutexPost+0x35c>
3000541c:	e7d23003 	ldrb	r3, [r2, r3]
30005420:	e3530000 	cmp	r3, #0
30005424:	1a000011 	bne	30005470 <OSMutexPost+0x18c>
            OSRdyGrp &= ~OSTCBCur->OSTCBBitY;
30005428:	e59f320c 	ldr	r3, [pc, #524]	@ 3000563c <OSMutexPost+0x358>
3000542c:	e5933000 	ldr	r3, [r3]
30005430:	e5d33023 	ldrb	r3, [r3, #35]	@ 0x23
30005434:	e1a03c03 	lsl	r3, r3, #24
30005438:	e1a03c43 	asr	r3, r3, #24
3000543c:	e1e03003 	mvn	r3, r3
30005440:	e1a03c03 	lsl	r3, r3, #24
30005444:	e1a02c43 	asr	r2, r3, #24
30005448:	e59f31f4 	ldr	r3, [pc, #500]	@ 30005644 <OSMutexPost+0x360>
3000544c:	e5d33000 	ldrb	r3, [r3]
30005450:	e1a03c03 	lsl	r3, r3, #24
30005454:	e1a03c43 	asr	r3, r3, #24
30005458:	e0033002 	and	r3, r3, r2
3000545c:	e1a03c03 	lsl	r3, r3, #24
30005460:	e1a03c43 	asr	r3, r3, #24
30005464:	e20320ff 	and	r2, r3, #255	@ 0xff
30005468:	e59f31d4 	ldr	r3, [pc, #468]	@ 30005644 <OSMutexPost+0x360>
3000546c:	e5c32000 	strb	r2, [r3]
        }
        OSTCBCur->OSTCBPrio = prio;
30005470:	e59f31c4 	ldr	r3, [pc, #452]	@ 3000563c <OSMutexPost+0x358>
30005474:	e5933000 	ldr	r3, [r3]
30005478:	e55b200a 	ldrb	r2, [fp, #-10]
3000547c:	e5c3201e 	strb	r2, [r3, #30]
        OSTCBCur->OSTCBY = prio >> 3;
30005480:	e59f31b4 	ldr	r3, [pc, #436]	@ 3000563c <OSMutexPost+0x358>
30005484:	e5933000 	ldr	r3, [r3]
30005488:	e55b200a 	ldrb	r2, [fp, #-10]
3000548c:	e1a021a2 	lsr	r2, r2, #3
30005490:	e20220ff 	and	r2, r2, #255	@ 0xff
30005494:	e5c32021 	strb	r2, [r3, #33]	@ 0x21
        OSTCBCur->OSTCBBitY = OSMapTbl[OSTCBCur->OSTCBY];
30005498:	e59f319c 	ldr	r3, [pc, #412]	@ 3000563c <OSMutexPost+0x358>
3000549c:	e5933000 	ldr	r3, [r3]
300054a0:	e5d33021 	ldrb	r3, [r3, #33]	@ 0x21
300054a4:	e1a01003 	mov	r1, r3
300054a8:	e59f318c 	ldr	r3, [pc, #396]	@ 3000563c <OSMutexPost+0x358>
300054ac:	e5933000 	ldr	r3, [r3]
300054b0:	e59f2190 	ldr	r2, [pc, #400]	@ 30005648 <OSMutexPost+0x364>
300054b4:	e7d22001 	ldrb	r2, [r2, r1]
300054b8:	e5c32023 	strb	r2, [r3, #35]	@ 0x23
        OSTCBCur->OSTCBX = prio & 0x07;
300054bc:	e59f3178 	ldr	r3, [pc, #376]	@ 3000563c <OSMutexPost+0x358>
300054c0:	e5933000 	ldr	r3, [r3]
300054c4:	e55b200a 	ldrb	r2, [fp, #-10]
300054c8:	e2022007 	and	r2, r2, #7
300054cc:	e20220ff 	and	r2, r2, #255	@ 0xff
300054d0:	e5c32020 	strb	r2, [r3, #32]
        OSTCBCur->OSTCBBitX = OSMapTbl[OSTCBCur->OSTCBX];
300054d4:	e59f3160 	ldr	r3, [pc, #352]	@ 3000563c <OSMutexPost+0x358>
300054d8:	e5933000 	ldr	r3, [r3]
300054dc:	e5d33020 	ldrb	r3, [r3, #32]
300054e0:	e1a01003 	mov	r1, r3
300054e4:	e59f3150 	ldr	r3, [pc, #336]	@ 3000563c <OSMutexPost+0x358>
300054e8:	e5933000 	ldr	r3, [r3]
300054ec:	e59f2154 	ldr	r2, [pc, #340]	@ 30005648 <OSMutexPost+0x364>
300054f0:	e7d22001 	ldrb	r2, [r2, r1]
300054f4:	e5c32022 	strb	r2, [r3, #34]	@ 0x22
        OSRdyGrp |= OSTCBCur->OSTCBBitY;
300054f8:	e59f313c 	ldr	r3, [pc, #316]	@ 3000563c <OSMutexPost+0x358>
300054fc:	e5933000 	ldr	r3, [r3]
30005500:	e5d32023 	ldrb	r2, [r3, #35]	@ 0x23
30005504:	e59f3138 	ldr	r3, [pc, #312]	@ 30005644 <OSMutexPost+0x360>
30005508:	e5d33000 	ldrb	r3, [r3]
3000550c:	e1823003 	orr	r3, r2, r3
30005510:	e20320ff 	and	r2, r3, #255	@ 0xff
30005514:	e59f3128 	ldr	r3, [pc, #296]	@ 30005644 <OSMutexPost+0x360>
30005518:	e5c32000 	strb	r2, [r3]
        OSRdyTbl[OSTCBCur->OSTCBY] |= OSTCBCur->OSTCBBitX;
3000551c:	e59f3118 	ldr	r3, [pc, #280]	@ 3000563c <OSMutexPost+0x358>
30005520:	e5933000 	ldr	r3, [r3]
30005524:	e5d33021 	ldrb	r3, [r3, #33]	@ 0x21
30005528:	e1a02003 	mov	r2, r3
3000552c:	e59f310c 	ldr	r3, [pc, #268]	@ 30005640 <OSMutexPost+0x35c>
30005530:	e7d32002 	ldrb	r2, [r3, r2]
30005534:	e59f3100 	ldr	r3, [pc, #256]	@ 3000563c <OSMutexPost+0x358>
30005538:	e5933000 	ldr	r3, [r3]
3000553c:	e5d33022 	ldrb	r3, [r3, #34]	@ 0x22
30005540:	e59f10f4 	ldr	r1, [pc, #244]	@ 3000563c <OSMutexPost+0x358>
30005544:	e5911000 	ldr	r1, [r1]
30005548:	e5d11021 	ldrb	r1, [r1, #33]	@ 0x21
3000554c:	e1823003 	orr	r3, r2, r3
30005550:	e20320ff 	and	r2, r3, #255	@ 0xff
30005554:	e59f30e4 	ldr	r3, [pc, #228]	@ 30005640 <OSMutexPost+0x35c>
30005558:	e7c32001 	strb	r2, [r3, r1]
        OSTCBPrioTbl[prio] = (OS_TCB *)OSTCBCur;
3000555c:	e55b300a 	ldrb	r3, [fp, #-10]
30005560:	e59f20d4 	ldr	r2, [pc, #212]	@ 3000563c <OSMutexPost+0x358>
30005564:	e5922000 	ldr	r2, [r2]
30005568:	e59f10dc 	ldr	r1, [pc, #220]	@ 3000564c <OSMutexPost+0x368>
3000556c:	e7812103 	str	r2, [r1, r3, lsl #2]
    }
    OSTCBPrioTbl[pip] = (OS_TCB *)1;
30005570:	e55b3009 	ldrb	r3, [fp, #-9]
30005574:	e59f20d0 	ldr	r2, [pc, #208]	@ 3000564c <OSMutexPost+0x368>
30005578:	e3a01001 	mov	r1, #1
3000557c:	e7821103 	str	r1, [r2, r3, lsl #2]
    if(pevent->OSEventGrp != 0x00){
30005580:	e51b3010 	ldr	r3, [fp, #-16]
30005584:	e5d33001 	ldrb	r3, [r3, #1]
30005588:	e3530000 	cmp	r3, #0
3000558c:	0a00001a 	beq	300055fc <OSMutexPost+0x318>
        prio = OS_EventTaskRdy(pevent, (void *)0, OS_STAT_MUTEX);//还没完成
30005590:	e3a02010 	mov	r2, #16
30005594:	e3a01000 	mov	r1, #0
30005598:	e51b0010 	ldr	r0, [fp, #-16]
3000559c:	ebfff380 	bl	300023a4 <OS_EventTaskRdy>
300055a0:	e1a03000 	mov	r3, r0
300055a4:	e54b300a 	strb	r3, [fp, #-10]
        pevent->OSEventCnt &= OS_MUTEX_KEEP_UPPER_8;
300055a8:	e51b3010 	ldr	r3, [fp, #-16]
300055ac:	e5933008 	ldr	r3, [r3, #8]
300055b0:	e2032cff 	and	r2, r3, #65280	@ 0xff00
300055b4:	e51b3010 	ldr	r3, [fp, #-16]
300055b8:	e5832008 	str	r2, [r3, #8]
        pevent->OSEventCnt |= prio;
300055bc:	e51b3010 	ldr	r3, [fp, #-16]
300055c0:	e5932008 	ldr	r2, [r3, #8]
300055c4:	e55b300a 	ldrb	r3, [fp, #-10]
300055c8:	e1822003 	orr	r2, r2, r3
300055cc:	e51b3010 	ldr	r3, [fp, #-16]
300055d0:	e5832008 	str	r2, [r3, #8]
        pevent->OSEventPtr = OSTCBPrioTbl[prio];
300055d4:	e55b300a 	ldrb	r3, [fp, #-10]
300055d8:	e59f206c 	ldr	r2, [pc, #108]	@ 3000564c <OSMutexPost+0x368>
300055dc:	e7922103 	ldr	r2, [r2, r3, lsl #2]
300055e0:	e51b3010 	ldr	r3, [fp, #-16]
300055e4:	e5832004 	str	r2, [r3, #4]
        OS_EXIT_CRITICAL();
300055e8:	e51b0008 	ldr	r0, [fp, #-8]
300055ec:	ebffeb76 	bl	300003cc <OS_CPU_SR_Restore>
        OS_Sched();
300055f0:	ebfff4d1 	bl	3000293c <OS_Sched>
        return (OS_NO_ERR);
300055f4:	e3a03000 	mov	r3, #0
300055f8:	ea00000a 	b	30005628 <OSMutexPost+0x344>
    }
    pevent->OSEventCnt |= OS_MUTEX_AVAILABLE;
300055fc:	e51b3010 	ldr	r3, [fp, #-16]
30005600:	e5933008 	ldr	r3, [r3, #8]
30005604:	e38320ff 	orr	r2, r3, #255	@ 0xff
30005608:	e51b3010 	ldr	r3, [fp, #-16]
3000560c:	e5832008 	str	r2, [r3, #8]
    pevent->OSEventPtr = (void *)0;
30005610:	e51b3010 	ldr	r3, [fp, #-16]
30005614:	e3a02000 	mov	r2, #0
30005618:	e5832004 	str	r2, [r3, #4]
    OS_EXIT_CRITICAL();
3000561c:	e51b0008 	ldr	r0, [fp, #-8]
30005620:	ebffeb69 	bl	300003cc <OS_CPU_SR_Restore>
    return (OS_NO_ERR);
30005624:	e3a03000 	mov	r3, #0
}
30005628:	e1a00003 	mov	r0, r3
3000562c:	e24bd004 	sub	sp, fp, #4
30005630:	e8bd4800 	pop	{fp, lr}
30005634:	e12fff1e 	bx	lr
30005638:	3000ac90 	.word	0x3000ac90
3000563c:	3000b5b8 	.word	0x3000b5b8
30005640:	3000ac98 	.word	0x3000ac98
30005644:	3000ac95 	.word	0x3000ac95
30005648:	300080b8 	.word	0x300080b8
3000564c:	3000b5c8 	.word	0x3000b5c8

30005650 <OSMutexQuery>:
* 移植要点:
* - 无。
*********************************************************************************************************
*/
INT8U  OSMutexQuery (OS_EVENT *pevent, OS_MUTEX_DATA *pdata)
{
30005650:	e92d4800 	push	{fp, lr}
30005654:	e28db004 	add	fp, sp, #4
30005658:	e24dd010 	sub	sp, sp, #16
3000565c:	e50b0010 	str	r0, [fp, #-16]
30005660:	e50b1014 	str	r1, [fp, #-20]	@ 0xffffffec
    OS_CPU_SR  cpu_sr;

    if (OSIntNesting > 0) {                                // See if called from ISR ...
30005664:	e59f30e0 	ldr	r3, [pc, #224]	@ 3000574c <OSMutexQuery+0xfc>
30005668:	e5d33000 	ldrb	r3, [r3]
3000566c:	e3530000 	cmp	r3, #0
30005670:	0a000001 	beq	3000567c <OSMutexQuery+0x2c>
        return (OS_ERR_QUERY_ISR);                         // ... can't QUERY mutex from an ISR
30005674:	e3a03006 	mov	r3, #6
30005678:	ea00002f 	b	3000573c <OSMutexQuery+0xec>
    }
    if (pevent == (OS_EVENT *)0) {                         // Validate 'pevent'
3000567c:	e51b3010 	ldr	r3, [fp, #-16]
30005680:	e3530000 	cmp	r3, #0
30005684:	1a000001 	bne	30005690 <OSMutexQuery+0x40>
        return (OS_ERR_PEVENT_NULL);
30005688:	e3a03004 	mov	r3, #4
3000568c:	ea00002a 	b	3000573c <OSMutexQuery+0xec>
    }
    if (pevent->OSEventType != OS_EVENT_TYPE_MUTEX) {      // Validate event block type
30005690:	e51b3010 	ldr	r3, [fp, #-16]
30005694:	e5d33000 	ldrb	r3, [r3]
30005698:	e3530004 	cmp	r3, #4
3000569c:	0a000001 	beq	300056a8 <OSMutexQuery+0x58>
        return (OS_ERR_EVENT_TYPE);
300056a0:	e3a03001 	mov	r3, #1
300056a4:	ea000024 	b	3000573c <OSMutexQuery+0xec>
    }
    OS_ENTER_CRITICAL();
300056a8:	ebffeb43 	bl	300003bc <OS_CPU_SR_Save>
300056ac:	e50b0008 	str	r0, [fp, #-8]
    pdata->OSMutexPIP  = (INT8U)(pevent->OSEventCnt >> 8);
300056b0:	e51b3010 	ldr	r3, [fp, #-16]
300056b4:	e5933008 	ldr	r3, [r3, #8]
300056b8:	e1a03423 	lsr	r3, r3, #8
300056bc:	e20320ff 	and	r2, r3, #255	@ 0xff
300056c0:	e51b3014 	ldr	r3, [fp, #-20]	@ 0xffffffec
300056c4:	e5c3200b 	strb	r2, [r3, #11]
    pdata->OSOwnerPrio = (INT8U)(pevent->OSEventCnt & OS_MUTEX_KEEP_LOWER_8);
300056c8:	e51b3010 	ldr	r3, [fp, #-16]
300056cc:	e5933008 	ldr	r3, [r3, #8]
300056d0:	e20320ff 	and	r2, r3, #255	@ 0xff
300056d4:	e51b3014 	ldr	r3, [fp, #-20]	@ 0xffffffec
300056d8:	e5c3200a 	strb	r2, [r3, #10]
    if (pdata->OSOwnerPrio == 0xFF) {
300056dc:	e51b3014 	ldr	r3, [fp, #-20]	@ 0xffffffec
300056e0:	e5d3300a 	ldrb	r3, [r3, #10]
300056e4:	e35300ff 	cmp	r3, #255	@ 0xff
300056e8:	1a000003 	bne	300056fc <OSMutexQuery+0xac>
        pdata->OSValue = 1;
300056ec:	e51b3014 	ldr	r3, [fp, #-20]	@ 0xffffffec
300056f0:	e3a02001 	mov	r2, #1
300056f4:	e5c32009 	strb	r2, [r3, #9]
300056f8:	ea000002 	b	30005708 <OSMutexQuery+0xb8>
    } else {
        pdata->OSValue = 0;
300056fc:	e51b3014 	ldr	r3, [fp, #-20]	@ 0xffffffec
30005700:	e3a02000 	mov	r2, #0
30005704:	e5c32009 	strb	r2, [r3, #9]
    }
    pdata->OSEventGrp  = pevent->OSEventGrp;               // Copy wait list
30005708:	e51b3010 	ldr	r3, [fp, #-16]
3000570c:	e5d32001 	ldrb	r2, [r3, #1]
30005710:	e51b3014 	ldr	r3, [fp, #-20]	@ 0xffffffec
30005714:	e5c32008 	strb	r2, [r3, #8]
    memcpy(&pdata->OSEventTbl[0], &pevent->OSEventTbl[0], sizeof(pdata->OSEventTbl));
30005718:	e51b0014 	ldr	r0, [fp, #-20]	@ 0xffffffec
3000571c:	e51b3010 	ldr	r3, [fp, #-16]
30005720:	e283300c 	add	r3, r3, #12
30005724:	e3a02008 	mov	r2, #8
30005728:	e1a01003 	mov	r1, r3
3000572c:	eb000923 	bl	30007bc0 <memcpy>
    OS_EXIT_CRITICAL();
30005730:	e51b0008 	ldr	r0, [fp, #-8]
30005734:	ebffeb24 	bl	300003cc <OS_CPU_SR_Restore>
    return (OS_NO_ERR);
30005738:	e3a03000 	mov	r3, #0
}
3000573c:	e1a00003 	mov	r0, r3
30005740:	e24bd004 	sub	sp, fp, #4
30005744:	e8bd4800 	pop	{fp, lr}
30005748:	e12fff1e 	bx	lr
3000574c:	3000ac90 	.word	0x3000ac90

30005750 <OSQAccept>:
*
* 移植要点:
* - 指针算术运算：在 Mini2440 上，`void **` 指针增减步长为 4 字节。
*********************************************************************************************************
*/
void  *OSQAccept (OS_EVENT *pevent){
30005750:	e92d4800 	push	{fp, lr}
30005754:	e28db004 	add	fp, sp, #4
30005758:	e24dd018 	sub	sp, sp, #24
3000575c:	e50b0018 	str	r0, [fp, #-24]	@ 0xffffffe8
    OS_CPU_SR  cpu_sr;
    void      *msg;
    OS_Q      *pq;

    if (pevent == (OS_EVENT *)0) {               // Validate 'pevent'
30005760:	e51b3018 	ldr	r3, [fp, #-24]	@ 0xffffffe8
30005764:	e3530000 	cmp	r3, #0
30005768:	1a000001 	bne	30005774 <OSQAccept+0x24>
        return ((void *)0);
3000576c:	e3a03000 	mov	r3, #0
30005770:	ea00002c 	b	30005828 <OSQAccept+0xd8>
    }
    if (pevent->OSEventType != OS_EVENT_TYPE_Q) {// Validate event block type
30005774:	e51b3018 	ldr	r3, [fp, #-24]	@ 0xffffffe8
30005778:	e5d33000 	ldrb	r3, [r3]
3000577c:	e3530002 	cmp	r3, #2
30005780:	0a000001 	beq	3000578c <OSQAccept+0x3c>
        return ((void *)0);
30005784:	e3a03000 	mov	r3, #0
30005788:	ea000026 	b	30005828 <OSQAccept+0xd8>
    }
    OS_ENTER_CRITICAL();
3000578c:	ebffeb0a 	bl	300003bc <OS_CPU_SR_Save>
30005790:	e50b000c 	str	r0, [fp, #-12]
    pq = (OS_Q *)pevent->OSEventPtr;             // Point at queue control block
30005794:	e51b3018 	ldr	r3, [fp, #-24]	@ 0xffffffe8
30005798:	e5933004 	ldr	r3, [r3, #4]
3000579c:	e50b3010 	str	r3, [fp, #-16]
    if (pq->OSQEntries > 0) {                    // See if any messages in the queue
300057a0:	e51b3010 	ldr	r3, [fp, #-16]
300057a4:	e1d331b6 	ldrh	r3, [r3, #22]
300057a8:	e3530000 	cmp	r3, #0
300057ac:	0a000018 	beq	30005814 <OSQAccept+0xc4>
        msg = *pq->OSQOut++;                     // Yes, extract oldest message from the queue
300057b0:	e51b3010 	ldr	r3, [fp, #-16]
300057b4:	e5933010 	ldr	r3, [r3, #16]
300057b8:	e2831004 	add	r1, r3, #4
300057bc:	e51b2010 	ldr	r2, [fp, #-16]
300057c0:	e5821010 	str	r1, [r2, #16]
300057c4:	e5933000 	ldr	r3, [r3]
300057c8:	e50b3008 	str	r3, [fp, #-8]
        pq->OSQEntries--;                        // Update the number of entries in the queue
300057cc:	e51b3010 	ldr	r3, [fp, #-16]
300057d0:	e1d331b6 	ldrh	r3, [r3, #22]
300057d4:	e2433001 	sub	r3, r3, #1
300057d8:	e1a03803 	lsl	r3, r3, #16
300057dc:	e1a02823 	lsr	r2, r3, #16
300057e0:	e51b3010 	ldr	r3, [fp, #-16]
300057e4:	e1c321b6 	strh	r2, [r3, #22]
        if (pq->OSQOut == pq->OSQEnd) {          // Wrap OUT pointer if we are at the end of the queue
300057e8:	e51b3010 	ldr	r3, [fp, #-16]
300057ec:	e5932010 	ldr	r2, [r3, #16]
300057f0:	e51b3010 	ldr	r3, [fp, #-16]
300057f4:	e5933008 	ldr	r3, [r3, #8]
300057f8:	e1520003 	cmp	r2, r3
300057fc:	1a000006 	bne	3000581c <OSQAccept+0xcc>
            pq->OSQOut = pq->OSQStart;
30005800:	e51b3010 	ldr	r3, [fp, #-16]
30005804:	e5932004 	ldr	r2, [r3, #4]
30005808:	e51b3010 	ldr	r3, [fp, #-16]
3000580c:	e5832010 	str	r2, [r3, #16]
30005810:	ea000001 	b	3000581c <OSQAccept+0xcc>
        }
    } else {
        msg = (void *)0;                         // Queue is empty
30005814:	e3a03000 	mov	r3, #0
30005818:	e50b3008 	str	r3, [fp, #-8]
    }
    OS_EXIT_CRITICAL();
3000581c:	e51b000c 	ldr	r0, [fp, #-12]
30005820:	ebffeae9 	bl	300003cc <OS_CPU_SR_Restore>
    return (msg);                                // Return message received (or NULL)
30005824:	e51b3008 	ldr	r3, [fp, #-8]
}
30005828:	e1a00003 	mov	r0, r3
3000582c:	e24bd004 	sub	sp, fp, #4
30005830:	e8bd4800 	pop	{fp, lr}
30005834:	e12fff1e 	bx	lr

30005838 <OSQCreate>:
* 移植要点:
* - 确保传入的 `start` 数组地址在 Mini2440 的有效 RAM 空间内。
*********************************************************************************************************
*/
OS_EVENT  *OSQCreate (void **start, INT16U size)
{
30005838:	e92d4800 	push	{fp, lr}
3000583c:	e28db004 	add	fp, sp, #4
30005840:	e24dd018 	sub	sp, sp, #24
30005844:	e50b0018 	str	r0, [fp, #-24]	@ 0xffffffe8
30005848:	e1a03001 	mov	r3, r1
3000584c:	e14b31ba 	strh	r3, [fp, #-26]	@ 0xffffffe6
    OS_CPU_SR cpu_sr;
    OS_EVENT  *pevent;
    OS_Q      *pq;

    if(OSIntNesting > 0){
30005850:	e59f315c 	ldr	r3, [pc, #348]	@ 300059b4 <OSQCreate+0x17c>
30005854:	e5d33000 	ldrb	r3, [r3]
30005858:	e3530000 	cmp	r3, #0
3000585c:	0a000001 	beq	30005868 <OSQCreate+0x30>
        return ((OS_EVENT *)0);
30005860:	e3a03000 	mov	r3, #0
30005864:	ea00004e 	b	300059a4 <OSQCreate+0x16c>
    }
    OS_ENTER_CRITICAL();
30005868:	ebffead3 	bl	300003bc <OS_CPU_SR_Save>
3000586c:	e50b000c 	str	r0, [fp, #-12]
    pevent = OSEventFreeList;
30005870:	e59f3140 	ldr	r3, [pc, #320]	@ 300059b8 <OSQCreate+0x180>
30005874:	e5933000 	ldr	r3, [r3]
30005878:	e50b3008 	str	r3, [fp, #-8]
    if(OSEventFreeList != (OS_EVENT *)0){
3000587c:	e59f3134 	ldr	r3, [pc, #308]	@ 300059b8 <OSQCreate+0x180>
30005880:	e5933000 	ldr	r3, [r3]
30005884:	e3530000 	cmp	r3, #0
30005888:	0a000004 	beq	300058a0 <OSQCreate+0x68>
        OSEventFreeList = (OS_EVENT *)OSEventFreeList->OSEventPtr;
3000588c:	e59f3124 	ldr	r3, [pc, #292]	@ 300059b8 <OSQCreate+0x180>
30005890:	e5933000 	ldr	r3, [r3]
30005894:	e5933004 	ldr	r3, [r3, #4]
30005898:	e59f2118 	ldr	r2, [pc, #280]	@ 300059b8 <OSQCreate+0x180>
3000589c:	e5823000 	str	r3, [r2]
    }
    OS_EXIT_CRITICAL();
300058a0:	e51b000c 	ldr	r0, [fp, #-12]
300058a4:	ebffeac8 	bl	300003cc <OS_CPU_SR_Restore>

    if(pevent != (OS_EVENT *)0){
300058a8:	e51b3008 	ldr	r3, [fp, #-8]
300058ac:	e3530000 	cmp	r3, #0
300058b0:	0a00003a 	beq	300059a0 <OSQCreate+0x168>
        OS_ENTER_CRITICAL();
300058b4:	ebffeac0 	bl	300003bc <OS_CPU_SR_Save>
300058b8:	e50b000c 	str	r0, [fp, #-12]
        pq = OSQFreeList;
300058bc:	e59f30f8 	ldr	r3, [pc, #248]	@ 300059bc <OSQCreate+0x184>
300058c0:	e5933000 	ldr	r3, [r3]
300058c4:	e50b3010 	str	r3, [fp, #-16]
        if(pq != (OS_Q *)0){
300058c8:	e51b3010 	ldr	r3, [fp, #-16]
300058cc:	e3530000 	cmp	r3, #0
300058d0:	0a000027 	beq	30005974 <OSQCreate+0x13c>
            OSQFreeList = (OS_Q *)OSQFreeList->OSQPtr;
300058d4:	e59f30e0 	ldr	r3, [pc, #224]	@ 300059bc <OSQCreate+0x184>
300058d8:	e5933000 	ldr	r3, [r3]
300058dc:	e5933000 	ldr	r3, [r3]
300058e0:	e59f20d4 	ldr	r2, [pc, #212]	@ 300059bc <OSQCreate+0x184>
300058e4:	e5823000 	str	r3, [r2]
            OS_EXIT_CRITICAL();
300058e8:	e51b000c 	ldr	r0, [fp, #-12]
300058ec:	ebffeab6 	bl	300003cc <OS_CPU_SR_Restore>
            pq->OSQStart = start;
300058f0:	e51b3010 	ldr	r3, [fp, #-16]
300058f4:	e51b2018 	ldr	r2, [fp, #-24]	@ 0xffffffe8
300058f8:	e5832004 	str	r2, [r3, #4]
            pq->OSQEnd = &start[size];
300058fc:	e15b31ba 	ldrh	r3, [fp, #-26]	@ 0xffffffe6
30005900:	e1a03103 	lsl	r3, r3, #2
30005904:	e51b2018 	ldr	r2, [fp, #-24]	@ 0xffffffe8
30005908:	e0822003 	add	r2, r2, r3
3000590c:	e51b3010 	ldr	r3, [fp, #-16]
30005910:	e5832008 	str	r2, [r3, #8]
            pq->OSQIn = start;
30005914:	e51b3010 	ldr	r3, [fp, #-16]
30005918:	e51b2018 	ldr	r2, [fp, #-24]	@ 0xffffffe8
3000591c:	e583200c 	str	r2, [r3, #12]
            pq->OSQOut = start;
30005920:	e51b3010 	ldr	r3, [fp, #-16]
30005924:	e51b2018 	ldr	r2, [fp, #-24]	@ 0xffffffe8
30005928:	e5832010 	str	r2, [r3, #16]
            pq->OSQSize = size;
3000592c:	e51b3010 	ldr	r3, [fp, #-16]
30005930:	e15b21ba 	ldrh	r2, [fp, #-26]	@ 0xffffffe6
30005934:	e1c321b4 	strh	r2, [r3, #20]
            pq->OSQEntries = 0;
30005938:	e51b3010 	ldr	r3, [fp, #-16]
3000593c:	e3a02000 	mov	r2, #0
30005940:	e1c321b6 	strh	r2, [r3, #22]

            pevent->OSEventType = OS_EVENT_TYPE_Q;
30005944:	e51b3008 	ldr	r3, [fp, #-8]
30005948:	e3a02002 	mov	r2, #2
3000594c:	e5c32000 	strb	r2, [r3]
            pevent->OSEventCnt = 0;
30005950:	e51b3008 	ldr	r3, [fp, #-8]
30005954:	e3a02000 	mov	r2, #0
30005958:	e5832008 	str	r2, [r3, #8]
            pevent->OSEventPtr = pq;//二重指针
3000595c:	e51b3008 	ldr	r3, [fp, #-8]
30005960:	e51b2010 	ldr	r2, [fp, #-16]
30005964:	e5832004 	str	r2, [r3, #4]
            OS_EventWaitListInit(pevent);
30005968:	e51b0008 	ldr	r0, [fp, #-8]
3000596c:	ebfff39c 	bl	300027e4 <OS_EventWaitListInit>
30005970:	ea00000a 	b	300059a0 <OSQCreate+0x168>
        }
        else{
            pevent->OSEventPtr = (void *)OSEventFreeList;
30005974:	e59f303c 	ldr	r3, [pc, #60]	@ 300059b8 <OSQCreate+0x180>
30005978:	e5932000 	ldr	r2, [r3]
3000597c:	e51b3008 	ldr	r3, [fp, #-8]
30005980:	e5832004 	str	r2, [r3, #4]
            OSEventFreeList = pevent;
30005984:	e59f202c 	ldr	r2, [pc, #44]	@ 300059b8 <OSQCreate+0x180>
30005988:	e51b3008 	ldr	r3, [fp, #-8]
3000598c:	e5823000 	str	r3, [r2]
            OS_EXIT_CRITICAL();
30005990:	e51b000c 	ldr	r0, [fp, #-12]
30005994:	ebffea8c 	bl	300003cc <OS_CPU_SR_Restore>
            pevent = (OS_EVENT *)0;
30005998:	e3a03000 	mov	r3, #0
3000599c:	e50b3008 	str	r3, [fp, #-8]
        }
    }
    return (pevent);
300059a0:	e51b3008 	ldr	r3, [fp, #-8]
}
300059a4:	e1a00003 	mov	r0, r3
300059a8:	e24bd004 	sub	sp, fp, #4
300059ac:	e8bd4800 	pop	{fp, lr}
300059b0:	e12fff1e 	bx	lr
300059b4:	3000ac90 	.word	0x3000ac90
300059b8:	3000b804 	.word	0x3000b804
300059bc:	3000b914 	.word	0x3000b914

300059c0 <OSQDel>:
*
* 移植要点:
* - 无。
*********************************************************************************************************
*/
OS_EVENT  *OSQDel (OS_EVENT *pevent, INT8U opt, INT8U *err){
300059c0:	e92d4800 	push	{fp, lr}
300059c4:	e28db004 	add	fp, sp, #4
300059c8:	e24dd020 	sub	sp, sp, #32
300059cc:	e50b0018 	str	r0, [fp, #-24]	@ 0xffffffe8
300059d0:	e1a03001 	mov	r3, r1
300059d4:	e50b2020 	str	r2, [fp, #-32]	@ 0xffffffe0
300059d8:	e54b3019 	strb	r3, [fp, #-25]	@ 0xffffffe7
    OS_CPU_SR  cpu_sr;
    BOOLEAN    tasks_waiting;
    OS_Q      *pq;

    if (OSIntNesting > 0) {                                // See if called from ISR ...
300059dc:	e59f31fc 	ldr	r3, [pc, #508]	@ 30005be0 <OSQDel+0x220>
300059e0:	e5d33000 	ldrb	r3, [r3]
300059e4:	e3530000 	cmp	r3, #0
300059e8:	0a000004 	beq	30005a00 <OSQDel+0x40>
        *err = OS_ERR_DEL_ISR;                             // ... can't DELETE from an ISR
300059ec:	e51b3020 	ldr	r3, [fp, #-32]	@ 0xffffffe0
300059f0:	e3e02073 	mvn	r2, #115	@ 0x73
300059f4:	e5c32000 	strb	r2, [r3]
        return ((OS_EVENT *)0);
300059f8:	e3a03000 	mov	r3, #0
300059fc:	ea000073 	b	30005bd0 <OSQDel+0x210>
    }
    if (pevent == (OS_EVENT *)0) {                         // Validate 'pevent'
30005a00:	e51b3018 	ldr	r3, [fp, #-24]	@ 0xffffffe8
30005a04:	e3530000 	cmp	r3, #0
30005a08:	1a000004 	bne	30005a20 <OSQDel+0x60>
        *err = OS_ERR_PEVENT_NULL;
30005a0c:	e51b3020 	ldr	r3, [fp, #-32]	@ 0xffffffe0
30005a10:	e3a02004 	mov	r2, #4
30005a14:	e5c32000 	strb	r2, [r3]
        return (pevent);
30005a18:	e51b3018 	ldr	r3, [fp, #-24]	@ 0xffffffe8
30005a1c:	ea00006b 	b	30005bd0 <OSQDel+0x210>
    }
    if (pevent->OSEventType != OS_EVENT_TYPE_Q) {          // Validate event block type
30005a20:	e51b3018 	ldr	r3, [fp, #-24]	@ 0xffffffe8
30005a24:	e5d33000 	ldrb	r3, [r3]
30005a28:	e3530002 	cmp	r3, #2
30005a2c:	0a000004 	beq	30005a44 <OSQDel+0x84>
        *err = OS_ERR_EVENT_TYPE;
30005a30:	e51b3020 	ldr	r3, [fp, #-32]	@ 0xffffffe0
30005a34:	e3a02001 	mov	r2, #1
30005a38:	e5c32000 	strb	r2, [r3]
        return (pevent);
30005a3c:	e51b3018 	ldr	r3, [fp, #-24]	@ 0xffffffe8
30005a40:	ea000062 	b	30005bd0 <OSQDel+0x210>
    }

    OS_ENTER_CRITICAL();
30005a44:	ebffea5c 	bl	300003bc <OS_CPU_SR_Save>
30005a48:	e50b000c 	str	r0, [fp, #-12]
    if (pevent->OSEventGrp != 0x00) {                      // See if any tasks waiting on queue
30005a4c:	e51b3018 	ldr	r3, [fp, #-24]	@ 0xffffffe8
30005a50:	e5d33001 	ldrb	r3, [r3, #1]
30005a54:	e3530000 	cmp	r3, #0
30005a58:	0a000002 	beq	30005a68 <OSQDel+0xa8>
        tasks_waiting = TRUE;                              // Yes
30005a5c:	e3a03001 	mov	r3, #1
30005a60:	e54b3005 	strb	r3, [fp, #-5]
30005a64:	ea000001 	b	30005a70 <OSQDel+0xb0>
    } else {
        tasks_waiting = FALSE;                             // No
30005a68:	e3a03000 	mov	r3, #0
30005a6c:	e54b3005 	strb	r3, [fp, #-5]
    }
    switch (opt) {
30005a70:	e55b3019 	ldrb	r3, [fp, #-25]	@ 0xffffffe7
30005a74:	e3530000 	cmp	r3, #0
30005a78:	0a000002 	beq	30005a88 <OSQDel+0xc8>
30005a7c:	e3530001 	cmp	r3, #1
30005a80:	0a000029 	beq	30005b2c <OSQDel+0x16c>
30005a84:	ea00004b 	b	30005bb8 <OSQDel+0x1f8>
        case OS_DEL_NO_PEND:                               // Delete queue only if no task waiting
             if (tasks_waiting == FALSE) {
30005a88:	e55b3005 	ldrb	r3, [fp, #-5]
30005a8c:	e3530000 	cmp	r3, #0
30005a90:	1a00001a 	bne	30005b00 <OSQDel+0x140>
                 pq                  = (OS_Q *)pevent->OSEventPtr;  // Return OS_Q to free list
30005a94:	e51b3018 	ldr	r3, [fp, #-24]	@ 0xffffffe8
30005a98:	e5933004 	ldr	r3, [r3, #4]
30005a9c:	e50b3010 	str	r3, [fp, #-16]
                 pq->OSQPtr          = OSQFreeList;
30005aa0:	e59f313c 	ldr	r3, [pc, #316]	@ 30005be4 <OSQDel+0x224>
30005aa4:	e5932000 	ldr	r2, [r3]
30005aa8:	e51b3010 	ldr	r3, [fp, #-16]
30005aac:	e5832000 	str	r2, [r3]
                 OSQFreeList         = pq;
30005ab0:	e59f212c 	ldr	r2, [pc, #300]	@ 30005be4 <OSQDel+0x224>
30005ab4:	e51b3010 	ldr	r3, [fp, #-16]
30005ab8:	e5823000 	str	r3, [r2]
                 pevent->OSEventType = OS_EVENT_TYPE_UNUSED;
30005abc:	e51b3018 	ldr	r3, [fp, #-24]	@ 0xffffffe8
30005ac0:	e3a02000 	mov	r2, #0
30005ac4:	e5c32000 	strb	r2, [r3]
                 pevent->OSEventPtr  = OSEventFreeList;    // Return Event Control Block to free list
30005ac8:	e59f3118 	ldr	r3, [pc, #280]	@ 30005be8 <OSQDel+0x228>
30005acc:	e5932000 	ldr	r2, [r3]
30005ad0:	e51b3018 	ldr	r3, [fp, #-24]	@ 0xffffffe8
30005ad4:	e5832004 	str	r2, [r3, #4]
                 OSEventFreeList     = pevent;             // Get next free event control block
30005ad8:	e59f2108 	ldr	r2, [pc, #264]	@ 30005be8 <OSQDel+0x228>
30005adc:	e51b3018 	ldr	r3, [fp, #-24]	@ 0xffffffe8
30005ae0:	e5823000 	str	r3, [r2]
                 OS_EXIT_CRITICAL();
30005ae4:	e51b000c 	ldr	r0, [fp, #-12]
30005ae8:	ebffea37 	bl	300003cc <OS_CPU_SR_Restore>
                 *err = OS_NO_ERR;
30005aec:	e51b3020 	ldr	r3, [fp, #-32]	@ 0xffffffe0
30005af0:	e3a02000 	mov	r2, #0
30005af4:	e5c32000 	strb	r2, [r3]
                 return ((OS_EVENT *)0);                   // Queue has been deleted
30005af8:	e3a03000 	mov	r3, #0
30005afc:	ea000033 	b	30005bd0 <OSQDel+0x210>
             } else {
                 OS_EXIT_CRITICAL();
30005b00:	e51b000c 	ldr	r0, [fp, #-12]
30005b04:	ebffea30 	bl	300003cc <OS_CPU_SR_Restore>
                 *err = OS_ERR_TASK_WAITING;
30005b08:	e51b3020 	ldr	r3, [fp, #-32]	@ 0xffffffe0
30005b0c:	e3a02008 	mov	r2, #8
30005b10:	e5c32000 	strb	r2, [r3]
                 return (pevent);
30005b14:	e51b3018 	ldr	r3, [fp, #-24]	@ 0xffffffe8
30005b18:	ea00002c 	b	30005bd0 <OSQDel+0x210>
             }

        case OS_DEL_ALWAYS:                                // Always delete the queue
             while (pevent->OSEventGrp != 0x00) {          // Ready ALL tasks waiting for queue
                 OS_EventTaskRdy(pevent, (void *)0, OS_STAT_Q);
30005b1c:	e3a02004 	mov	r2, #4
30005b20:	e3a01000 	mov	r1, #0
30005b24:	e51b0018 	ldr	r0, [fp, #-24]	@ 0xffffffe8
30005b28:	ebfff21d 	bl	300023a4 <OS_EventTaskRdy>
             while (pevent->OSEventGrp != 0x00) {          // Ready ALL tasks waiting for queue
30005b2c:	e51b3018 	ldr	r3, [fp, #-24]	@ 0xffffffe8
30005b30:	e5d33001 	ldrb	r3, [r3, #1]
30005b34:	e3530000 	cmp	r3, #0
30005b38:	1afffff7 	bne	30005b1c <OSQDel+0x15c>
             }
             pq                  = (OS_Q *)pevent->OSEventPtr;      // Return OS_Q to free list
30005b3c:	e51b3018 	ldr	r3, [fp, #-24]	@ 0xffffffe8
30005b40:	e5933004 	ldr	r3, [r3, #4]
30005b44:	e50b3010 	str	r3, [fp, #-16]
             pq->OSQPtr          = OSQFreeList;
30005b48:	e59f3094 	ldr	r3, [pc, #148]	@ 30005be4 <OSQDel+0x224>
30005b4c:	e5932000 	ldr	r2, [r3]
30005b50:	e51b3010 	ldr	r3, [fp, #-16]
30005b54:	e5832000 	str	r2, [r3]
             OSQFreeList         = pq;
30005b58:	e59f2084 	ldr	r2, [pc, #132]	@ 30005be4 <OSQDel+0x224>
30005b5c:	e51b3010 	ldr	r3, [fp, #-16]
30005b60:	e5823000 	str	r3, [r2]
             pevent->OSEventType = OS_EVENT_TYPE_UNUSED;
30005b64:	e51b3018 	ldr	r3, [fp, #-24]	@ 0xffffffe8
30005b68:	e3a02000 	mov	r2, #0
30005b6c:	e5c32000 	strb	r2, [r3]
             pevent->OSEventPtr  = OSEventFreeList;        // Return Event Control Block to free list
30005b70:	e59f3070 	ldr	r3, [pc, #112]	@ 30005be8 <OSQDel+0x228>
30005b74:	e5932000 	ldr	r2, [r3]
30005b78:	e51b3018 	ldr	r3, [fp, #-24]	@ 0xffffffe8
30005b7c:	e5832004 	str	r2, [r3, #4]
             OSEventFreeList     = pevent;                 // Get next free event control block
30005b80:	e59f2060 	ldr	r2, [pc, #96]	@ 30005be8 <OSQDel+0x228>
30005b84:	e51b3018 	ldr	r3, [fp, #-24]	@ 0xffffffe8
30005b88:	e5823000 	str	r3, [r2]
             OS_EXIT_CRITICAL();
30005b8c:	e51b000c 	ldr	r0, [fp, #-12]
30005b90:	ebffea0d 	bl	300003cc <OS_CPU_SR_Restore>
             if (tasks_waiting == TRUE) {                  // Reschedule only if task(s) were waiting
30005b94:	e55b3005 	ldrb	r3, [fp, #-5]
30005b98:	e3530001 	cmp	r3, #1
30005b9c:	1a000000 	bne	30005ba4 <OSQDel+0x1e4>
                 OS_Sched();                               // Find highest priority task ready to run
30005ba0:	ebfff365 	bl	3000293c <OS_Sched>
             }
             *err = OS_NO_ERR;
30005ba4:	e51b3020 	ldr	r3, [fp, #-32]	@ 0xffffffe0
30005ba8:	e3a02000 	mov	r2, #0
30005bac:	e5c32000 	strb	r2, [r3]
             return ((OS_EVENT *)0);                       // Queue has been deleted
30005bb0:	e3a03000 	mov	r3, #0
30005bb4:	ea000005 	b	30005bd0 <OSQDel+0x210>

        default:
             OS_EXIT_CRITICAL();
30005bb8:	e51b000c 	ldr	r0, [fp, #-12]
30005bbc:	ebffea02 	bl	300003cc <OS_CPU_SR_Restore>
             *err = OS_ERR_INVALID_OPT;
30005bc0:	e51b3020 	ldr	r3, [fp, #-32]	@ 0xffffffe0
30005bc4:	e3a02007 	mov	r2, #7
30005bc8:	e5c32000 	strb	r2, [r3]
             return (pevent);
30005bcc:	e51b3018 	ldr	r3, [fp, #-24]	@ 0xffffffe8
    }
}
30005bd0:	e1a00003 	mov	r0, r3
30005bd4:	e24bd004 	sub	sp, fp, #4
30005bd8:	e8bd4800 	pop	{fp, lr}
30005bdc:	e12fff1e 	bx	lr
30005be0:	3000ac90 	.word	0x3000ac90
30005be4:	3000b914 	.word	0x3000b914
30005be8:	3000b804 	.word	0x3000b804

30005bec <OSQFlush>:
* 移植要点:
* - 纯逻辑操作。
*********************************************************************************************************
*/
INT8U  OSQFlush (OS_EVENT *pevent)
{
30005bec:	e92d4800 	push	{fp, lr}
30005bf0:	e28db004 	add	fp, sp, #4
30005bf4:	e24dd010 	sub	sp, sp, #16
30005bf8:	e50b0010 	str	r0, [fp, #-16]
    OS_CPU_SR  cpu_sr;
    OS_Q      *pq;

    if (pevent == (OS_EVENT *)0) {                    
30005bfc:	e51b3010 	ldr	r3, [fp, #-16]
30005c00:	e3530000 	cmp	r3, #0
30005c04:	1a000001 	bne	30005c10 <OSQFlush+0x24>
        return (OS_ERR_PEVENT_NULL);
30005c08:	e3a03004 	mov	r3, #4
30005c0c:	ea000018 	b	30005c74 <OSQFlush+0x88>
    }
    if (pevent->OSEventType != OS_EVENT_TYPE_Q) {    
30005c10:	e51b3010 	ldr	r3, [fp, #-16]
30005c14:	e5d33000 	ldrb	r3, [r3]
30005c18:	e3530002 	cmp	r3, #2
30005c1c:	0a000001 	beq	30005c28 <OSQFlush+0x3c>
        return (OS_ERR_EVENT_TYPE);
30005c20:	e3a03001 	mov	r3, #1
30005c24:	ea000012 	b	30005c74 <OSQFlush+0x88>
    }
    OS_ENTER_CRITICAL();
30005c28:	ebffe9e3 	bl	300003bc <OS_CPU_SR_Save>
30005c2c:	e50b0008 	str	r0, [fp, #-8]
    pq             = (OS_Q *)pevent->OSEventPtr;      
30005c30:	e51b3010 	ldr	r3, [fp, #-16]
30005c34:	e5933004 	ldr	r3, [r3, #4]
30005c38:	e50b300c 	str	r3, [fp, #-12]
    pq->OSQIn      = pq->OSQStart;
30005c3c:	e51b300c 	ldr	r3, [fp, #-12]
30005c40:	e5932004 	ldr	r2, [r3, #4]
30005c44:	e51b300c 	ldr	r3, [fp, #-12]
30005c48:	e583200c 	str	r2, [r3, #12]
    pq->OSQOut     = pq->OSQStart;
30005c4c:	e51b300c 	ldr	r3, [fp, #-12]
30005c50:	e5932004 	ldr	r2, [r3, #4]
30005c54:	e51b300c 	ldr	r3, [fp, #-12]
30005c58:	e5832010 	str	r2, [r3, #16]
    pq->OSQEntries = 0;
30005c5c:	e51b300c 	ldr	r3, [fp, #-12]
30005c60:	e3a02000 	mov	r2, #0
30005c64:	e1c321b6 	strh	r2, [r3, #22]
    OS_EXIT_CRITICAL();
30005c68:	e51b0008 	ldr	r0, [fp, #-8]
30005c6c:	ebffe9d6 	bl	300003cc <OS_CPU_SR_Restore>
    return (OS_NO_ERR);
30005c70:	e3a03000 	mov	r3, #0
}
30005c74:	e1a00003 	mov	r0, r3
30005c78:	e24bd004 	sub	sp, fp, #4
30005c7c:	e8bd4800 	pop	{fp, lr}
30005c80:	e12fff1e 	bx	lr

30005c84 <OSQPend>:
* 移植要点:
* - 环形缓冲区指针回绕逻辑必须正确。
*********************************************************************************************************
*/
void  *OSQPend (OS_EVENT *pevent, INT16U timeout, INT8U *err)
{
30005c84:	e92d4800 	push	{fp, lr}
30005c88:	e28db004 	add	fp, sp, #4
30005c8c:	e24dd020 	sub	sp, sp, #32
30005c90:	e50b0018 	str	r0, [fp, #-24]	@ 0xffffffe8
30005c94:	e1a03001 	mov	r3, r1
30005c98:	e50b2020 	str	r2, [fp, #-32]	@ 0xffffffe0
30005c9c:	e14b31ba 	strh	r3, [fp, #-26]	@ 0xffffffe6
    OS_CPU_SR cpu_sr;
    void *msg;
    OS_Q *pq;

    if(OSIntNesting > 0){
30005ca0:	e59f31e4 	ldr	r3, [pc, #484]	@ 30005e8c <OSQPend+0x208>
30005ca4:	e5d33000 	ldrb	r3, [r3]
30005ca8:	e3530000 	cmp	r3, #0
30005cac:	0a000004 	beq	30005cc4 <OSQPend+0x40>
        *err = OS_ERR_PEND_ISR;
30005cb0:	e51b3020 	ldr	r3, [fp, #-32]	@ 0xffffffe0
30005cb4:	e3a02002 	mov	r2, #2
30005cb8:	e5c32000 	strb	r2, [r3]
        return ((void *)0);
30005cbc:	e3a03000 	mov	r3, #0
30005cc0:	ea00006d 	b	30005e7c <OSQPend+0x1f8>
    }
    if(pevent == (OS_EVENT *)0){
30005cc4:	e51b3018 	ldr	r3, [fp, #-24]	@ 0xffffffe8
30005cc8:	e3530000 	cmp	r3, #0
30005ccc:	1a000004 	bne	30005ce4 <OSQPend+0x60>
        *err = OS_ERR_PEVENT_NULL;
30005cd0:	e51b3020 	ldr	r3, [fp, #-32]	@ 0xffffffe0
30005cd4:	e3a02004 	mov	r2, #4
30005cd8:	e5c32000 	strb	r2, [r3]
        return ((void *)0);
30005cdc:	e3a03000 	mov	r3, #0
30005ce0:	ea000065 	b	30005e7c <OSQPend+0x1f8>
    }
    if(pevent->OSEventType != OS_EVENT_TYPE_Q){
30005ce4:	e51b3018 	ldr	r3, [fp, #-24]	@ 0xffffffe8
30005ce8:	e5d33000 	ldrb	r3, [r3]
30005cec:	e3530002 	cmp	r3, #2
30005cf0:	0a000004 	beq	30005d08 <OSQPend+0x84>
        *err = OS_ERR_EVENT_TYPE;
30005cf4:	e51b3020 	ldr	r3, [fp, #-32]	@ 0xffffffe0
30005cf8:	e3a02001 	mov	r2, #1
30005cfc:	e5c32000 	strb	r2, [r3]
        return ((void *)0);
30005d00:	e3a03000 	mov	r3, #0
30005d04:	ea00005c 	b	30005e7c <OSQPend+0x1f8>
    }
    OS_ENTER_CRITICAL();
30005d08:	ebffe9ab 	bl	300003bc <OS_CPU_SR_Save>
30005d0c:	e50b0008 	str	r0, [fp, #-8]
    pq = (OS_Q *)pevent->OSEventPtr;
30005d10:	e51b3018 	ldr	r3, [fp, #-24]	@ 0xffffffe8
30005d14:	e5933004 	ldr	r3, [r3, #4]
30005d18:	e50b300c 	str	r3, [fp, #-12]
    if(pq->OSQEntries > 0){
30005d1c:	e51b300c 	ldr	r3, [fp, #-12]
30005d20:	e1d331b6 	ldrh	r3, [r3, #22]
30005d24:	e3530000 	cmp	r3, #0
30005d28:	0a00001e 	beq	30005da8 <OSQPend+0x124>
        msg = *pq->OSQOut++;
30005d2c:	e51b300c 	ldr	r3, [fp, #-12]
30005d30:	e5933010 	ldr	r3, [r3, #16]
30005d34:	e2831004 	add	r1, r3, #4
30005d38:	e51b200c 	ldr	r2, [fp, #-12]
30005d3c:	e5821010 	str	r1, [r2, #16]
30005d40:	e5933000 	ldr	r3, [r3]
30005d44:	e50b3010 	str	r3, [fp, #-16]
        pq->OSQEntries--;
30005d48:	e51b300c 	ldr	r3, [fp, #-12]
30005d4c:	e1d331b6 	ldrh	r3, [r3, #22]
30005d50:	e2433001 	sub	r3, r3, #1
30005d54:	e1a03803 	lsl	r3, r3, #16
30005d58:	e1a02823 	lsr	r2, r3, #16
30005d5c:	e51b300c 	ldr	r3, [fp, #-12]
30005d60:	e1c321b6 	strh	r2, [r3, #22]
        if(pq->OSQOut == pq->OSQEnd){
30005d64:	e51b300c 	ldr	r3, [fp, #-12]
30005d68:	e5932010 	ldr	r2, [r3, #16]
30005d6c:	e51b300c 	ldr	r3, [fp, #-12]
30005d70:	e5933008 	ldr	r3, [r3, #8]
30005d74:	e1520003 	cmp	r2, r3
30005d78:	1a000003 	bne	30005d8c <OSQPend+0x108>
            pq->OSQOut = pq->OSQStart;
30005d7c:	e51b300c 	ldr	r3, [fp, #-12]
30005d80:	e5932004 	ldr	r2, [r3, #4]
30005d84:	e51b300c 	ldr	r3, [fp, #-12]
30005d88:	e5832010 	str	r2, [r3, #16]
        }
        OS_EXIT_CRITICAL();
30005d8c:	e51b0008 	ldr	r0, [fp, #-8]
30005d90:	ebffe98d 	bl	300003cc <OS_CPU_SR_Restore>
        *err = OS_NO_ERR;
30005d94:	e51b3020 	ldr	r3, [fp, #-32]	@ 0xffffffe0
30005d98:	e3a02000 	mov	r2, #0
30005d9c:	e5c32000 	strb	r2, [r3]
        return (msg);
30005da0:	e51b3010 	ldr	r3, [fp, #-16]
30005da4:	ea000034 	b	30005e7c <OSQPend+0x1f8>
    }
    OSTCBCur->OSTCBStat |= OS_STAT_Q;
30005da8:	e59f30e0 	ldr	r3, [pc, #224]	@ 30005e90 <OSQPend+0x20c>
30005dac:	e5933000 	ldr	r3, [r3]
30005db0:	e5d3201f 	ldrb	r2, [r3, #31]
30005db4:	e59f30d4 	ldr	r3, [pc, #212]	@ 30005e90 <OSQPend+0x20c>
30005db8:	e5933000 	ldr	r3, [r3]
30005dbc:	e3822004 	orr	r2, r2, #4
30005dc0:	e20220ff 	and	r2, r2, #255	@ 0xff
30005dc4:	e5c3201f 	strb	r2, [r3, #31]
    OSTCBCur->OSTCBDly = timeout;
30005dc8:	e59f30c0 	ldr	r3, [pc, #192]	@ 30005e90 <OSQPend+0x20c>
30005dcc:	e5933000 	ldr	r3, [r3]
30005dd0:	e15b21ba 	ldrh	r2, [fp, #-26]	@ 0xffffffe6
30005dd4:	e1c321bc 	strh	r2, [r3, #28]
    OS_EventTaskWait(pevent);
30005dd8:	e51b0018 	ldr	r0, [fp, #-24]	@ 0xffffffe8
30005ddc:	ebfff1e4 	bl	30002574 <OS_EventTaskWait>
    OS_EXIT_CRITICAL();
30005de0:	e51b0008 	ldr	r0, [fp, #-8]
30005de4:	ebffe978 	bl	300003cc <OS_CPU_SR_Restore>
    OS_Sched();
30005de8:	ebfff2d3 	bl	3000293c <OS_Sched>
    OS_ENTER_CRITICAL();
30005dec:	ebffe972 	bl	300003bc <OS_CPU_SR_Save>
30005df0:	e50b0008 	str	r0, [fp, #-8]
    msg = OSTCBCur->OSTCBMsg;
30005df4:	e59f3094 	ldr	r3, [pc, #148]	@ 30005e90 <OSQPend+0x20c>
30005df8:	e5933000 	ldr	r3, [r3]
30005dfc:	e5933010 	ldr	r3, [r3, #16]
30005e00:	e50b3010 	str	r3, [fp, #-16]
    if(msg != (void *)0){
30005e04:	e51b3010 	ldr	r3, [fp, #-16]
30005e08:	e3530000 	cmp	r3, #0
30005e0c:	0a000012 	beq	30005e5c <OSQPend+0x1d8>
        OSTCBCur->OSTCBMsg = (void *)0;
30005e10:	e59f3078 	ldr	r3, [pc, #120]	@ 30005e90 <OSQPend+0x20c>
30005e14:	e5933000 	ldr	r3, [r3]
30005e18:	e3a02000 	mov	r2, #0
30005e1c:	e5832010 	str	r2, [r3, #16]
        OSTCBCur->OSTCBStat = OS_STAT_RDY;
30005e20:	e59f3068 	ldr	r3, [pc, #104]	@ 30005e90 <OSQPend+0x20c>
30005e24:	e5933000 	ldr	r3, [r3]
30005e28:	e3a02000 	mov	r2, #0
30005e2c:	e5c3201f 	strb	r2, [r3, #31]
        OSTCBCur->OSTCBEventPtr = (OS_EVENT *)0;
30005e30:	e59f3058 	ldr	r3, [pc, #88]	@ 30005e90 <OSQPend+0x20c>
30005e34:	e5933000 	ldr	r3, [r3]
30005e38:	e3a02000 	mov	r2, #0
30005e3c:	e583200c 	str	r2, [r3, #12]
        OS_EXIT_CRITICAL();
30005e40:	e51b0008 	ldr	r0, [fp, #-8]
30005e44:	ebffe960 	bl	300003cc <OS_CPU_SR_Restore>
        *err = OS_NO_ERR;
30005e48:	e51b3020 	ldr	r3, [fp, #-32]	@ 0xffffffe0
30005e4c:	e3a02000 	mov	r2, #0
30005e50:	e5c32000 	strb	r2, [r3]
        return (msg);
30005e54:	e51b3010 	ldr	r3, [fp, #-16]
30005e58:	ea000007 	b	30005e7c <OSQPend+0x1f8>
    }
    OS_EventTO(pevent);
30005e5c:	e51b0018 	ldr	r0, [fp, #-24]	@ 0xffffffe8
30005e60:	ebfff21c 	bl	300026d8 <OS_EventTO>
    OS_EXIT_CRITICAL();
30005e64:	e51b0008 	ldr	r0, [fp, #-8]
30005e68:	ebffe957 	bl	300003cc <OS_CPU_SR_Restore>
    *err = OS_TIMEOUT;
30005e6c:	e51b3020 	ldr	r3, [fp, #-32]	@ 0xffffffe0
30005e70:	e3a0200a 	mov	r2, #10
30005e74:	e5c32000 	strb	r2, [r3]
    return ((void *)0);
30005e78:	e3a03000 	mov	r3, #0
}
30005e7c:	e1a00003 	mov	r0, r3
30005e80:	e24bd004 	sub	sp, fp, #4
30005e84:	e8bd4800 	pop	{fp, lr}
30005e88:	e12fff1e 	bx	lr
30005e8c:	3000ac90 	.word	0x3000ac90
30005e90:	3000b5b8 	.word	0x3000b5b8

30005e94 <OSQPost>:
* 移植要点:
* - 纯逻辑操作。
*********************************************************************************************************
*/
INT8U  OSQPost (OS_EVENT *pevent, void *msg)
{
30005e94:	e92d4800 	push	{fp, lr}
30005e98:	e28db004 	add	fp, sp, #4
30005e9c:	e24dd010 	sub	sp, sp, #16
30005ea0:	e50b0010 	str	r0, [fp, #-16]
30005ea4:	e50b1014 	str	r1, [fp, #-20]	@ 0xffffffec
    OS_CPU_SR cpu_sr;
    OS_Q      *pq;

    if(pevent == (OS_EVENT *)0){
30005ea8:	e51b3010 	ldr	r3, [fp, #-16]
30005eac:	e3530000 	cmp	r3, #0
30005eb0:	1a000001 	bne	30005ebc <OSQPost+0x28>
        return (OS_ERR_PEVENT_NULL);
30005eb4:	e3a03004 	mov	r3, #4
30005eb8:	ea000041 	b	30005fc4 <OSQPost+0x130>
    }
    if(msg == (void *)0){
30005ebc:	e51b3014 	ldr	r3, [fp, #-20]	@ 0xffffffec
30005ec0:	e3530000 	cmp	r3, #0
30005ec4:	1a000001 	bne	30005ed0 <OSQPost+0x3c>
        return (OS_ERR_POST_NULL_PTR);
30005ec8:	e3a03003 	mov	r3, #3
30005ecc:	ea00003c 	b	30005fc4 <OSQPost+0x130>
    }
    if(pevent->OSEventType != OS_EVENT_TYPE_Q){
30005ed0:	e51b3010 	ldr	r3, [fp, #-16]
30005ed4:	e5d33000 	ldrb	r3, [r3]
30005ed8:	e3530002 	cmp	r3, #2
30005edc:	0a000001 	beq	30005ee8 <OSQPost+0x54>
        return (OS_ERR_EVENT_TYPE);
30005ee0:	e3a03001 	mov	r3, #1
30005ee4:	ea000036 	b	30005fc4 <OSQPost+0x130>
    }
    OS_ENTER_CRITICAL();
30005ee8:	ebffe933 	bl	300003bc <OS_CPU_SR_Save>
30005eec:	e50b0008 	str	r0, [fp, #-8]
    if(pevent->OSEventGrp != 0x00){
30005ef0:	e51b3010 	ldr	r3, [fp, #-16]
30005ef4:	e5d33001 	ldrb	r3, [r3, #1]
30005ef8:	e3530000 	cmp	r3, #0
30005efc:	0a000008 	beq	30005f24 <OSQPost+0x90>
        OS_EventTaskRdy(pevent, msg, OS_STAT_Q);
30005f00:	e3a02004 	mov	r2, #4
30005f04:	e51b1014 	ldr	r1, [fp, #-20]	@ 0xffffffec
30005f08:	e51b0010 	ldr	r0, [fp, #-16]
30005f0c:	ebfff124 	bl	300023a4 <OS_EventTaskRdy>
        OS_EXIT_CRITICAL();
30005f10:	e51b0008 	ldr	r0, [fp, #-8]
30005f14:	ebffe92c 	bl	300003cc <OS_CPU_SR_Restore>
        OS_Sched();
30005f18:	ebfff287 	bl	3000293c <OS_Sched>
        return (OS_NO_ERR);
30005f1c:	e3a03000 	mov	r3, #0
30005f20:	ea000027 	b	30005fc4 <OSQPost+0x130>
    }
    pq = (OS_Q *)pevent->OSEventPtr;
30005f24:	e51b3010 	ldr	r3, [fp, #-16]
30005f28:	e5933004 	ldr	r3, [r3, #4]
30005f2c:	e50b300c 	str	r3, [fp, #-12]
    if(pq->OSQEntries >= pq->OSQSize){
30005f30:	e51b300c 	ldr	r3, [fp, #-12]
30005f34:	e1d321b6 	ldrh	r2, [r3, #22]
30005f38:	e51b300c 	ldr	r3, [fp, #-12]
30005f3c:	e1d331b4 	ldrh	r3, [r3, #20]
30005f40:	e1520003 	cmp	r2, r3
30005f44:	3a000003 	bcc	30005f58 <OSQPost+0xc4>
        OS_EXIT_CRITICAL();
30005f48:	e51b0008 	ldr	r0, [fp, #-8]
30005f4c:	ebffe91e 	bl	300003cc <OS_CPU_SR_Restore>
        return (OS_Q_FULL);
30005f50:	e3a0301e 	mov	r3, #30
30005f54:	ea00001a 	b	30005fc4 <OSQPost+0x130>
    }
    *pq->OSQIn++ = msg;
30005f58:	e51b300c 	ldr	r3, [fp, #-12]
30005f5c:	e593300c 	ldr	r3, [r3, #12]
30005f60:	e2831004 	add	r1, r3, #4
30005f64:	e51b200c 	ldr	r2, [fp, #-12]
30005f68:	e582100c 	str	r1, [r2, #12]
30005f6c:	e51b2014 	ldr	r2, [fp, #-20]	@ 0xffffffec
30005f70:	e5832000 	str	r2, [r3]
    pq->OSQEntries++;
30005f74:	e51b300c 	ldr	r3, [fp, #-12]
30005f78:	e1d331b6 	ldrh	r3, [r3, #22]
30005f7c:	e2833001 	add	r3, r3, #1
30005f80:	e1a03803 	lsl	r3, r3, #16
30005f84:	e1a02823 	lsr	r2, r3, #16
30005f88:	e51b300c 	ldr	r3, [fp, #-12]
30005f8c:	e1c321b6 	strh	r2, [r3, #22]
    if(pq->OSQIn == pq->OSQEnd){
30005f90:	e51b300c 	ldr	r3, [fp, #-12]
30005f94:	e593200c 	ldr	r2, [r3, #12]
30005f98:	e51b300c 	ldr	r3, [fp, #-12]
30005f9c:	e5933008 	ldr	r3, [r3, #8]
30005fa0:	e1520003 	cmp	r2, r3
30005fa4:	1a000003 	bne	30005fb8 <OSQPost+0x124>
        pq->OSQIn = pq->OSQStart;
30005fa8:	e51b300c 	ldr	r3, [fp, #-12]
30005fac:	e5932004 	ldr	r2, [r3, #4]
30005fb0:	e51b300c 	ldr	r3, [fp, #-12]
30005fb4:	e583200c 	str	r2, [r3, #12]
    }
    OS_EXIT_CRITICAL();
30005fb8:	e51b0008 	ldr	r0, [fp, #-8]
30005fbc:	ebffe902 	bl	300003cc <OS_CPU_SR_Restore>
    return (OS_NO_ERR);
30005fc0:	e3a03000 	mov	r3, #0
}
30005fc4:	e1a00003 	mov	r0, r3
30005fc8:	e24bd004 	sub	sp, fp, #4
30005fcc:	e8bd4800 	pop	{fp, lr}
30005fd0:	e12fff1e 	bx	lr

30005fd4 <OSQPostFront>:
* 移植要点:
* - 确保指针减法操作在 ARM 寻址模式下是正确的。
*********************************************************************************************************
*/
INT8U  OSQPostFront (OS_EVENT *pevent, void *msg)
{
30005fd4:	e92d4800 	push	{fp, lr}
30005fd8:	e28db004 	add	fp, sp, #4
30005fdc:	e24dd010 	sub	sp, sp, #16
30005fe0:	e50b0010 	str	r0, [fp, #-16]
30005fe4:	e50b1014 	str	r1, [fp, #-20]	@ 0xffffffec
    OS_CPU_SR  cpu_sr;
    OS_Q      *pq;

    if (pevent == (OS_EVENT *)0) {        
30005fe8:	e51b3010 	ldr	r3, [fp, #-16]
30005fec:	e3530000 	cmp	r3, #0
30005ff0:	1a000001 	bne	30005ffc <OSQPostFront+0x28>
        return (OS_ERR_PEVENT_NULL);
30005ff4:	e3a03004 	mov	r3, #4
30005ff8:	ea000043 	b	3000610c <OSQPostFront+0x138>
    }
    if (msg == (void *)0) {      
30005ffc:	e51b3014 	ldr	r3, [fp, #-20]	@ 0xffffffec
30006000:	e3530000 	cmp	r3, #0
30006004:	1a000001 	bne	30006010 <OSQPostFront+0x3c>
        return (OS_ERR_POST_NULL_PTR);
30006008:	e3a03003 	mov	r3, #3
3000600c:	ea00003e 	b	3000610c <OSQPostFront+0x138>
    }
    if (pevent->OSEventType != OS_EVENT_TYPE_Q) { 
30006010:	e51b3010 	ldr	r3, [fp, #-16]
30006014:	e5d33000 	ldrb	r3, [r3]
30006018:	e3530002 	cmp	r3, #2
3000601c:	0a000001 	beq	30006028 <OSQPostFront+0x54>
        return (OS_ERR_EVENT_TYPE);
30006020:	e3a03001 	mov	r3, #1
30006024:	ea000038 	b	3000610c <OSQPostFront+0x138>
    }

    OS_ENTER_CRITICAL();
30006028:	ebffe8e3 	bl	300003bc <OS_CPU_SR_Save>
3000602c:	e50b0008 	str	r0, [fp, #-8]
    if (pevent->OSEventGrp != 0x00) {           
30006030:	e51b3010 	ldr	r3, [fp, #-16]
30006034:	e5d33001 	ldrb	r3, [r3, #1]
30006038:	e3530000 	cmp	r3, #0
3000603c:	0a000008 	beq	30006064 <OSQPostFront+0x90>
        OS_EventTaskRdy(pevent, msg, OS_STAT_Q);    
30006040:	e3a02004 	mov	r2, #4
30006044:	e51b1014 	ldr	r1, [fp, #-20]	@ 0xffffffec
30006048:	e51b0010 	ldr	r0, [fp, #-16]
3000604c:	ebfff0d4 	bl	300023a4 <OS_EventTaskRdy>
        OS_EXIT_CRITICAL();
30006050:	e51b0008 	ldr	r0, [fp, #-8]
30006054:	ebffe8dc 	bl	300003cc <OS_CPU_SR_Restore>
        OS_Sched();                                  
30006058:	ebfff237 	bl	3000293c <OS_Sched>
        return (OS_NO_ERR);
3000605c:	e3a03000 	mov	r3, #0
30006060:	ea000029 	b	3000610c <OSQPostFront+0x138>
    }
    pq = (OS_Q *)pevent->OSEventPtr;              
30006064:	e51b3010 	ldr	r3, [fp, #-16]
30006068:	e5933004 	ldr	r3, [r3, #4]
3000606c:	e50b300c 	str	r3, [fp, #-12]
    if (pq->OSQEntries >= pq->OSQSize) {             
30006070:	e51b300c 	ldr	r3, [fp, #-12]
30006074:	e1d321b6 	ldrh	r2, [r3, #22]
30006078:	e51b300c 	ldr	r3, [fp, #-12]
3000607c:	e1d331b4 	ldrh	r3, [r3, #20]
30006080:	e1520003 	cmp	r2, r3
30006084:	3a000003 	bcc	30006098 <OSQPostFront+0xc4>
        OS_EXIT_CRITICAL();
30006088:	e51b0008 	ldr	r0, [fp, #-8]
3000608c:	ebffe8ce 	bl	300003cc <OS_CPU_SR_Restore>
        return (OS_Q_FULL);
30006090:	e3a0301e 	mov	r3, #30
30006094:	ea00001c 	b	3000610c <OSQPostFront+0x138>
    }
    if (pq->OSQOut == pq->OSQStart) {               
30006098:	e51b300c 	ldr	r3, [fp, #-12]
3000609c:	e5932010 	ldr	r2, [r3, #16]
300060a0:	e51b300c 	ldr	r3, [fp, #-12]
300060a4:	e5933004 	ldr	r3, [r3, #4]
300060a8:	e1520003 	cmp	r2, r3
300060ac:	1a000003 	bne	300060c0 <OSQPostFront+0xec>
        pq->OSQOut = pq->OSQEnd;
300060b0:	e51b300c 	ldr	r3, [fp, #-12]
300060b4:	e5932008 	ldr	r2, [r3, #8]
300060b8:	e51b300c 	ldr	r3, [fp, #-12]
300060bc:	e5832010 	str	r2, [r3, #16]
    }
    pq->OSQOut--;
300060c0:	e51b300c 	ldr	r3, [fp, #-12]
300060c4:	e5933010 	ldr	r3, [r3, #16]
300060c8:	e2432004 	sub	r2, r3, #4
300060cc:	e51b300c 	ldr	r3, [fp, #-12]
300060d0:	e5832010 	str	r2, [r3, #16]
    *pq->OSQOut = msg;                             
300060d4:	e51b300c 	ldr	r3, [fp, #-12]
300060d8:	e5933010 	ldr	r3, [r3, #16]
300060dc:	e51b2014 	ldr	r2, [fp, #-20]	@ 0xffffffec
300060e0:	e5832000 	str	r2, [r3]
    pq->OSQEntries++;                            
300060e4:	e51b300c 	ldr	r3, [fp, #-12]
300060e8:	e1d331b6 	ldrh	r3, [r3, #22]
300060ec:	e2833001 	add	r3, r3, #1
300060f0:	e1a03803 	lsl	r3, r3, #16
300060f4:	e1a02823 	lsr	r2, r3, #16
300060f8:	e51b300c 	ldr	r3, [fp, #-12]
300060fc:	e1c321b6 	strh	r2, [r3, #22]
    OS_EXIT_CRITICAL();
30006100:	e51b0008 	ldr	r0, [fp, #-8]
30006104:	ebffe8b0 	bl	300003cc <OS_CPU_SR_Restore>
    return (OS_NO_ERR);
30006108:	e3a03000 	mov	r3, #0
}
3000610c:	e1a00003 	mov	r0, r3
30006110:	e24bd004 	sub	sp, fp, #4
30006114:	e8bd4800 	pop	{fp, lr}
30006118:	e12fff1e 	bx	lr

3000611c <OSQPostOpt>:
* 移植要点:
* - 同样注意广播时的临界区时长。
*********************************************************************************************************
*/
INT8U  OSQPostOpt (OS_EVENT *pevent, void *msg, INT8U opt)
{
3000611c:	e52db004 	push	{fp}		@ (str fp, [sp, #-4]!)
30006120:	e28db000 	add	fp, sp, #0
30006124:	e24dd014 	sub	sp, sp, #20
30006128:	e50b0008 	str	r0, [fp, #-8]
3000612c:	e50b100c 	str	r1, [fp, #-12]
30006130:	e1a03002 	mov	r3, r2
30006134:	e54b300d 	strb	r3, [fp, #-13]
    //不实现
    return (OS_NO_ERR);
30006138:	e3a03000 	mov	r3, #0
}
3000613c:	e1a00003 	mov	r0, r3
30006140:	e28bd000 	add	sp, fp, #0
30006144:	e49db004 	pop	{fp}		@ (ldr fp, [sp], #4)
30006148:	e12fff1e 	bx	lr

3000614c <OSQQuery>:
* 移植要点:
* - 内存拷贝。
*********************************************************************************************************
*/
INT8U  OSQQuery (OS_EVENT *pevent, OS_Q_DATA *pdata)
{
3000614c:	e92d4800 	push	{fp, lr}
30006150:	e28db004 	add	fp, sp, #4
30006154:	e24dd010 	sub	sp, sp, #16
30006158:	e50b0010 	str	r0, [fp, #-16]
3000615c:	e50b1014 	str	r1, [fp, #-20]	@ 0xffffffec
    OS_CPU_SR  cpu_sr;
    OS_Q      *pq;

    if (pevent == (OS_EVENT *)0) {                         
30006160:	e51b3010 	ldr	r3, [fp, #-16]
30006164:	e3530000 	cmp	r3, #0
30006168:	1a000001 	bne	30006174 <OSQQuery+0x28>
        return (OS_ERR_PEVENT_NULL);
3000616c:	e3a03004 	mov	r3, #4
30006170:	ea00002d 	b	3000622c <OSQQuery+0xe0>
    }
    if (pevent->OSEventType != OS_EVENT_TYPE_Q) {          
30006174:	e51b3010 	ldr	r3, [fp, #-16]
30006178:	e5d33000 	ldrb	r3, [r3]
3000617c:	e3530002 	cmp	r3, #2
30006180:	0a000001 	beq	3000618c <OSQQuery+0x40>
        return (OS_ERR_EVENT_TYPE);
30006184:	e3a03001 	mov	r3, #1
30006188:	ea000027 	b	3000622c <OSQQuery+0xe0>
    }

    OS_ENTER_CRITICAL();
3000618c:	ebffe88a 	bl	300003bc <OS_CPU_SR_Save>
30006190:	e50b0008 	str	r0, [fp, #-8]
    pdata->OSEventGrp = pevent->OSEventGrp;                
30006194:	e51b3010 	ldr	r3, [fp, #-16]
30006198:	e5d32001 	ldrb	r2, [r3, #1]
3000619c:	e51b3014 	ldr	r3, [fp, #-20]	@ 0xffffffec
300061a0:	e5c32010 	strb	r2, [r3, #16]
    memcpy(&pdata->OSEventTbl[0], &pevent->OSEventTbl[0], sizeof(pdata->OSEventTbl));
300061a4:	e51b3014 	ldr	r3, [fp, #-20]	@ 0xffffffec
300061a8:	e2830008 	add	r0, r3, #8
300061ac:	e51b3010 	ldr	r3, [fp, #-16]
300061b0:	e283300c 	add	r3, r3, #12
300061b4:	e3a02008 	mov	r2, #8
300061b8:	e1a01003 	mov	r1, r3
300061bc:	eb00067f 	bl	30007bc0 <memcpy>
    pq = (OS_Q *)pevent->OSEventPtr;
300061c0:	e51b3010 	ldr	r3, [fp, #-16]
300061c4:	e5933004 	ldr	r3, [r3, #4]
300061c8:	e50b300c 	str	r3, [fp, #-12]
    if (pq->OSQEntries > 0) {
300061cc:	e51b300c 	ldr	r3, [fp, #-12]
300061d0:	e1d331b6 	ldrh	r3, [r3, #22]
300061d4:	e3530000 	cmp	r3, #0
300061d8:	0a000005 	beq	300061f4 <OSQQuery+0xa8>
        pdata->OSMsg = *pq->OSQOut;                       
300061dc:	e51b300c 	ldr	r3, [fp, #-12]
300061e0:	e5933010 	ldr	r3, [r3, #16]
300061e4:	e5932000 	ldr	r2, [r3]
300061e8:	e51b3014 	ldr	r3, [fp, #-20]	@ 0xffffffec
300061ec:	e5832000 	str	r2, [r3]
300061f0:	ea000002 	b	30006200 <OSQQuery+0xb4>
    } else {
        pdata->OSMsg = (void *)0;
300061f4:	e51b3014 	ldr	r3, [fp, #-20]	@ 0xffffffec
300061f8:	e3a02000 	mov	r2, #0
300061fc:	e5832000 	str	r2, [r3]
    }
    pdata->OSNMsgs = pq->OSQEntries;
30006200:	e51b300c 	ldr	r3, [fp, #-12]
30006204:	e1d321b6 	ldrh	r2, [r3, #22]
30006208:	e51b3014 	ldr	r3, [fp, #-20]	@ 0xffffffec
3000620c:	e1c320b4 	strh	r2, [r3, #4]
    pdata->OSQSize = pq->OSQSize;
30006210:	e51b300c 	ldr	r3, [fp, #-12]
30006214:	e1d321b4 	ldrh	r2, [r3, #20]
30006218:	e51b3014 	ldr	r3, [fp, #-20]	@ 0xffffffec
3000621c:	e1c320b6 	strh	r2, [r3, #6]
    OS_EXIT_CRITICAL();
30006220:	e51b0008 	ldr	r0, [fp, #-8]
30006224:	ebffe868 	bl	300003cc <OS_CPU_SR_Restore>
    return (OS_NO_ERR);
30006228:	e3a03000 	mov	r3, #0
}
3000622c:	e1a00003 	mov	r0, r3
30006230:	e24bd004 	sub	sp, fp, #4
30006234:	e8bd4800 	pop	{fp, lr}
30006238:	e12fff1e 	bx	lr

3000623c <OS_QInit>:
* 移植要点:
* - 必须在 OSInit 中调用。
*********************************************************************************************************
*/
void  OS_QInit (void)
{
3000623c:	e52db004 	push	{fp}		@ (str fp, [sp, #-4]!)
30006240:	e28db000 	add	fp, sp, #0
30006244:	e24dd014 	sub	sp, sp, #20
    OSQFreeList = &OSQTbl[0];
    OSQFreeList->OSQPtr = (OS_Q *)0;

#elif OS_MAX_QS >= 2
    OS_Q *pq1, *pq2;
    pq1 = &OSQTbl[0];
30006248:	e59f3078 	ldr	r3, [pc, #120]	@ 300062c8 <OS_QInit+0x8c>
3000624c:	e50b3008 	str	r3, [fp, #-8]
    pq2 = &OSQTbl[1]; 
30006250:	e59f3074 	ldr	r3, [pc, #116]	@ 300062cc <OS_QInit+0x90>
30006254:	e50b300c 	str	r3, [fp, #-12]
    for(INT16U i = 0; i < (OS_MAX_QS - 1); i++){
30006258:	e3a03000 	mov	r3, #0
3000625c:	e14b30be 	strh	r3, [fp, #-14]
30006260:	ea00000b 	b	30006294 <OS_QInit+0x58>
        pq1->OSQPtr = pq2;
30006264:	e51b3008 	ldr	r3, [fp, #-8]
30006268:	e51b200c 	ldr	r2, [fp, #-12]
3000626c:	e5832000 	str	r2, [r3]
        pq1++;
30006270:	e51b3008 	ldr	r3, [fp, #-8]
30006274:	e2833018 	add	r3, r3, #24
30006278:	e50b3008 	str	r3, [fp, #-8]
        pq2++;
3000627c:	e51b300c 	ldr	r3, [fp, #-12]
30006280:	e2833018 	add	r3, r3, #24
30006284:	e50b300c 	str	r3, [fp, #-12]
    for(INT16U i = 0; i < (OS_MAX_QS - 1); i++){
30006288:	e15b30be 	ldrh	r3, [fp, #-14]
3000628c:	e2833001 	add	r3, r3, #1
30006290:	e14b30be 	strh	r3, [fp, #-14]
30006294:	e15b30be 	ldrh	r3, [fp, #-14]
30006298:	e3530003 	cmp	r3, #3
3000629c:	9afffff0 	bls	30006264 <OS_QInit+0x28>
    }
    pq1->OSQPtr = (OS_Q *)0;
300062a0:	e51b3008 	ldr	r3, [fp, #-8]
300062a4:	e3a02000 	mov	r2, #0
300062a8:	e5832000 	str	r2, [r3]
    OSQFreeList = &OSQTbl[0];
300062ac:	e59f301c 	ldr	r3, [pc, #28]	@ 300062d0 <OS_QInit+0x94>
300062b0:	e59f2010 	ldr	r2, [pc, #16]	@ 300062c8 <OS_QInit+0x8c>
300062b4:	e5832000 	str	r2, [r3]
#endif
}
300062b8:	e1a00000 	nop			@ (mov r0, r0)
300062bc:	e28bd000 	add	sp, fp, #0
300062c0:	e49db004 	pop	{fp}		@ (ldr fp, [sp], #4)
300062c4:	e12fff1e 	bx	lr
300062c8:	3000b918 	.word	0x3000b918
300062cc:	3000b930 	.word	0x3000b930
300062d0:	3000b914 	.word	0x3000b914

300062d4 <OSSemAccept>:
* 移植要点:
* - 纯逻辑操作。
*********************************************************************************************************
*/
INT16U  OSSemAccept (OS_EVENT *pevent)
{
300062d4:	e92d4800 	push	{fp, lr}
300062d8:	e28db004 	add	fp, sp, #4
300062dc:	e24dd010 	sub	sp, sp, #16
300062e0:	e50b0010 	str	r0, [fp, #-16]
    OS_CPU_SR cpu_sr;
    INT16U cnt;
    if(pevent == (OS_EVENT *)0){
300062e4:	e51b3010 	ldr	r3, [fp, #-16]
300062e8:	e3530000 	cmp	r3, #0
300062ec:	1a000001 	bne	300062f8 <OSSemAccept+0x24>
        return 0;
300062f0:	e3a03000 	mov	r3, #0
300062f4:	ea000015 	b	30006350 <OSSemAccept+0x7c>
    }
    if(pevent->OSEventType != OS_EVENT_TYPE_SEM){
300062f8:	e51b3010 	ldr	r3, [fp, #-16]
300062fc:	e5d33000 	ldrb	r3, [r3]
30006300:	e3530003 	cmp	r3, #3
30006304:	0a000001 	beq	30006310 <OSSemAccept+0x3c>
        return 0;
30006308:	e3a03000 	mov	r3, #0
3000630c:	ea00000f 	b	30006350 <OSSemAccept+0x7c>
    }
    OS_ENTER_CRITICAL();
30006310:	ebffe829 	bl	300003bc <OS_CPU_SR_Save>
30006314:	e50b0008 	str	r0, [fp, #-8]
    cnt = pevent->OSEventCnt;
30006318:	e51b3010 	ldr	r3, [fp, #-16]
3000631c:	e5933008 	ldr	r3, [r3, #8]
30006320:	e14b30ba 	strh	r3, [fp, #-10]
    if(cnt > 0){
30006324:	e15b30ba 	ldrh	r3, [fp, #-10]
30006328:	e3530000 	cmp	r3, #0
3000632c:	0a000004 	beq	30006344 <OSSemAccept+0x70>
        pevent->OSEventCnt--;
30006330:	e51b3010 	ldr	r3, [fp, #-16]
30006334:	e5933008 	ldr	r3, [r3, #8]
30006338:	e2432001 	sub	r2, r3, #1
3000633c:	e51b3010 	ldr	r3, [fp, #-16]
30006340:	e5832008 	str	r2, [r3, #8]
    }
    OS_EXIT_CRITICAL();
30006344:	e51b0008 	ldr	r0, [fp, #-8]
30006348:	ebffe81f 	bl	300003cc <OS_CPU_SR_Restore>
    return cnt;
3000634c:	e15b30ba 	ldrh	r3, [fp, #-10]
}
30006350:	e1a00003 	mov	r0, r3
30006354:	e24bd004 	sub	sp, fp, #4
30006358:	e8bd4800 	pop	{fp, lr}
3000635c:	e12fff1e 	bx	lr

30006360 <OSSemCreate>:
* 移植要点:
* - 无。
*********************************************************************************************************
*/
OS_EVENT  *OSSemCreate (INT16U cnt)
{
30006360:	e92d4800 	push	{fp, lr}
30006364:	e28db004 	add	fp, sp, #4
30006368:	e24dd010 	sub	sp, sp, #16
3000636c:	e1a03000 	mov	r3, r0
30006370:	e14b30be 	strh	r3, [fp, #-14]
    OS_CPU_SR cpu_sr;
    OS_EVENT  *pevent;
    //如果在中断中无法关中断
    if(OSIntNesting > 0){
30006374:	e59f309c 	ldr	r3, [pc, #156]	@ 30006418 <OSSemCreate+0xb8>
30006378:	e5d33000 	ldrb	r3, [r3]
3000637c:	e3530000 	cmp	r3, #0
30006380:	0a000001 	beq	3000638c <OSSemCreate+0x2c>
        return((OS_EVENT *)0);
30006384:	e3a03000 	mov	r3, #0
30006388:	ea00001e 	b	30006408 <OSSemCreate+0xa8>
    }
    OS_ENTER_CRITICAL();
3000638c:	ebffe80a 	bl	300003bc <OS_CPU_SR_Save>
30006390:	e50b0008 	str	r0, [fp, #-8]
    pevent = OSEventFreeList;                                     //把 OSEventFreeList 指向的地址（节点A）保存到pevent中
30006394:	e59f3080 	ldr	r3, [pc, #128]	@ 3000641c <OSSemCreate+0xbc>
30006398:	e5933000 	ldr	r3, [r3]
3000639c:	e50b300c 	str	r3, [fp, #-12]
    if(OSEventFreeList != (OS_EVENT *)0){
300063a0:	e59f3074 	ldr	r3, [pc, #116]	@ 3000641c <OSSemCreate+0xbc>
300063a4:	e5933000 	ldr	r3, [r3]
300063a8:	e3530000 	cmp	r3, #0
300063ac:	0a000004 	beq	300063c4 <OSSemCreate+0x64>
        OSEventFreeList = (OS_EVENT *)OSEventFreeList->OSEventPtr;//把 OSEventFreeList 更新为节点A指向的下一个节点（节点B）
300063b0:	e59f3064 	ldr	r3, [pc, #100]	@ 3000641c <OSSemCreate+0xbc>
300063b4:	e5933000 	ldr	r3, [r3]
300063b8:	e5933004 	ldr	r3, [r3, #4]
300063bc:	e59f2058 	ldr	r2, [pc, #88]	@ 3000641c <OSSemCreate+0xbc>
300063c0:	e5823000 	str	r3, [r2]
    }
    OS_EXIT_CRITICAL();
300063c4:	e51b0008 	ldr	r0, [fp, #-8]
300063c8:	ebffe7ff 	bl	300003cc <OS_CPU_SR_Restore>
    if(pevent != (OS_EVENT *)0){
300063cc:	e51b300c 	ldr	r3, [fp, #-12]
300063d0:	e3530000 	cmp	r3, #0
300063d4:	0a00000a 	beq	30006404 <OSSemCreate+0xa4>
        pevent->OSEventType = OS_EVENT_TYPE_SEM;
300063d8:	e51b300c 	ldr	r3, [fp, #-12]
300063dc:	e3a02003 	mov	r2, #3
300063e0:	e5c32000 	strb	r2, [r3]
        pevent->OSEventCnt = cnt;       // 存入计数值（比如 5，表示有5个资源）
300063e4:	e15b20be 	ldrh	r2, [fp, #-14]
300063e8:	e51b300c 	ldr	r3, [fp, #-12]
300063ec:	e5832008 	str	r2, [r3, #8]
        pevent->OSEventPtr = (void *)0; // 指针没用，必须清空！
300063f0:	e51b300c 	ldr	r3, [fp, #-12]
300063f4:	e3a02000 	mov	r2, #0
300063f8:	e5832004 	str	r2, [r3, #4]
        OS_EventWaitListInit(pevent);//pevent->OSEventGrp\pevent->OSEventTbl在这里面初始化
300063fc:	e51b000c 	ldr	r0, [fp, #-12]
30006400:	ebfff0f7 	bl	300027e4 <OS_EventWaitListInit>
    }
    return (pevent);
30006404:	e51b300c 	ldr	r3, [fp, #-12]
}
30006408:	e1a00003 	mov	r0, r3
3000640c:	e24bd004 	sub	sp, fp, #4
30006410:	e8bd4800 	pop	{fp, lr}
30006414:	e12fff1e 	bx	lr
30006418:	3000ac90 	.word	0x3000ac90
3000641c:	3000b804 	.word	0x3000b804

30006420 <OSSemDel>:
* 移植要点:
* - 无。
*********************************************************************************************************
*/
OS_EVENT  *OSSemDel (OS_EVENT *pevent, INT8U opt, INT8U *err)
{
30006420:	e92d4800 	push	{fp, lr}
30006424:	e28db004 	add	fp, sp, #4
30006428:	e24dd018 	sub	sp, sp, #24
3000642c:	e50b0010 	str	r0, [fp, #-16]
30006430:	e1a03001 	mov	r3, r1
30006434:	e50b2018 	str	r2, [fp, #-24]	@ 0xffffffe8
30006438:	e54b3011 	strb	r3, [fp, #-17]	@ 0xffffffef
    OS_CPU_SR  cpu_sr;  
    BOOLEAN    tasks_waiting;


    if (OSIntNesting > 0) {                                // See if called from ISR ...
3000643c:	e59f31ac 	ldr	r3, [pc, #428]	@ 300065f0 <OSSemDel+0x1d0>
30006440:	e5d33000 	ldrb	r3, [r3]
30006444:	e3530000 	cmp	r3, #0
30006448:	0a000004 	beq	30006460 <OSSemDel+0x40>
        *err = OS_ERR_DEL_ISR;                             // ... can't DELETE from an ISR
3000644c:	e51b3018 	ldr	r3, [fp, #-24]	@ 0xffffffe8
30006450:	e3e02073 	mvn	r2, #115	@ 0x73
30006454:	e5c32000 	strb	r2, [r3]
        return (pevent);
30006458:	e51b3010 	ldr	r3, [fp, #-16]
3000645c:	ea00005f 	b	300065e0 <OSSemDel+0x1c0>
    }

    if (pevent == (OS_EVENT *)0) {                         // Validate 'pevent'
30006460:	e51b3010 	ldr	r3, [fp, #-16]
30006464:	e3530000 	cmp	r3, #0
30006468:	1a000004 	bne	30006480 <OSSemDel+0x60>
        *err = OS_ERR_PEVENT_NULL;
3000646c:	e51b3018 	ldr	r3, [fp, #-24]	@ 0xffffffe8
30006470:	e3a02004 	mov	r2, #4
30006474:	e5c32000 	strb	r2, [r3]
        return (pevent);
30006478:	e51b3010 	ldr	r3, [fp, #-16]
3000647c:	ea000057 	b	300065e0 <OSSemDel+0x1c0>
    }
    if (pevent->OSEventType != OS_EVENT_TYPE_SEM) {        // Validate event block type
30006480:	e51b3010 	ldr	r3, [fp, #-16]
30006484:	e5d33000 	ldrb	r3, [r3]
30006488:	e3530003 	cmp	r3, #3
3000648c:	0a000004 	beq	300064a4 <OSSemDel+0x84>
        *err = OS_ERR_EVENT_TYPE;
30006490:	e51b3018 	ldr	r3, [fp, #-24]	@ 0xffffffe8
30006494:	e3a02001 	mov	r2, #1
30006498:	e5c32000 	strb	r2, [r3]
        return (pevent);
3000649c:	e51b3010 	ldr	r3, [fp, #-16]
300064a0:	ea00004e 	b	300065e0 <OSSemDel+0x1c0>
    }

    OS_ENTER_CRITICAL();
300064a4:	ebffe7c4 	bl	300003bc <OS_CPU_SR_Save>
300064a8:	e50b000c 	str	r0, [fp, #-12]
    if (pevent->OSEventGrp != 0x00) {                      // See if any tasks waiting on semaphore
300064ac:	e51b3010 	ldr	r3, [fp, #-16]
300064b0:	e5d33001 	ldrb	r3, [r3, #1]
300064b4:	e3530000 	cmp	r3, #0
300064b8:	0a000002 	beq	300064c8 <OSSemDel+0xa8>
        tasks_waiting = TRUE;                              // Yes
300064bc:	e3a03001 	mov	r3, #1
300064c0:	e54b3005 	strb	r3, [fp, #-5]
300064c4:	ea000001 	b	300064d0 <OSSemDel+0xb0>
    } else {
        tasks_waiting = FALSE;                             // No
300064c8:	e3a03000 	mov	r3, #0
300064cc:	e54b3005 	strb	r3, [fp, #-5]
    }
    switch (opt) {
300064d0:	e55b3011 	ldrb	r3, [fp, #-17]	@ 0xffffffef
300064d4:	e3530000 	cmp	r3, #0
300064d8:	0a000002 	beq	300064e8 <OSSemDel+0xc8>
300064dc:	e3530001 	cmp	r3, #1
300064e0:	0a00001f 	beq	30006564 <OSSemDel+0x144>
300064e4:	ea000037 	b	300065c8 <OSSemDel+0x1a8>
        case OS_DEL_NO_PEND:                               // Delete semaphore only if no task waiting
             if (tasks_waiting == FALSE) {
300064e8:	e55b3005 	ldrb	r3, [fp, #-5]
300064ec:	e3530000 	cmp	r3, #0
300064f0:	1a000010 	bne	30006538 <OSSemDel+0x118>
                 pevent->OSEventType = OS_EVENT_TYPE_UNUSED;
300064f4:	e51b3010 	ldr	r3, [fp, #-16]
300064f8:	e3a02000 	mov	r2, #0
300064fc:	e5c32000 	strb	r2, [r3]
                 pevent->OSEventPtr  = OSEventFreeList;    // Return Event Control Block to free list
30006500:	e59f30ec 	ldr	r3, [pc, #236]	@ 300065f4 <OSSemDel+0x1d4>
30006504:	e5932000 	ldr	r2, [r3]
30006508:	e51b3010 	ldr	r3, [fp, #-16]
3000650c:	e5832004 	str	r2, [r3, #4]
                 OSEventFreeList     = pevent;             // Get next free event control block
30006510:	e59f20dc 	ldr	r2, [pc, #220]	@ 300065f4 <OSSemDel+0x1d4>
30006514:	e51b3010 	ldr	r3, [fp, #-16]
30006518:	e5823000 	str	r3, [r2]
                 OS_EXIT_CRITICAL();
3000651c:	e51b000c 	ldr	r0, [fp, #-12]
30006520:	ebffe7a9 	bl	300003cc <OS_CPU_SR_Restore>
                 *err = OS_NO_ERR;
30006524:	e51b3018 	ldr	r3, [fp, #-24]	@ 0xffffffe8
30006528:	e3a02000 	mov	r2, #0
3000652c:	e5c32000 	strb	r2, [r3]
                 return ((OS_EVENT *)0);                   // Semaphore has been deleted
30006530:	e3a03000 	mov	r3, #0
30006534:	ea000029 	b	300065e0 <OSSemDel+0x1c0>
             } else {
                 OS_EXIT_CRITICAL();
30006538:	e51b000c 	ldr	r0, [fp, #-12]
3000653c:	ebffe7a2 	bl	300003cc <OS_CPU_SR_Restore>
                 *err = OS_ERR_TASK_WAITING;
30006540:	e51b3018 	ldr	r3, [fp, #-24]	@ 0xffffffe8
30006544:	e3a02008 	mov	r2, #8
30006548:	e5c32000 	strb	r2, [r3]
                 return (pevent);
3000654c:	e51b3010 	ldr	r3, [fp, #-16]
30006550:	ea000022 	b	300065e0 <OSSemDel+0x1c0>
             }

        case OS_DEL_ALWAYS:                                // Always delete the semaphore
             while (pevent->OSEventGrp != 0x00) {          // Ready ALL tasks waiting for semaphore
                 OS_EventTaskRdy(pevent, (void *)0, OS_STAT_SEM);
30006554:	e3a02001 	mov	r2, #1
30006558:	e3a01000 	mov	r1, #0
3000655c:	e51b0010 	ldr	r0, [fp, #-16]
30006560:	ebffef8f 	bl	300023a4 <OS_EventTaskRdy>
             while (pevent->OSEventGrp != 0x00) {          // Ready ALL tasks waiting for semaphore
30006564:	e51b3010 	ldr	r3, [fp, #-16]
30006568:	e5d33001 	ldrb	r3, [r3, #1]
3000656c:	e3530000 	cmp	r3, #0
30006570:	1afffff7 	bne	30006554 <OSSemDel+0x134>
             }
             pevent->OSEventType = OS_EVENT_TYPE_UNUSED;
30006574:	e51b3010 	ldr	r3, [fp, #-16]
30006578:	e3a02000 	mov	r2, #0
3000657c:	e5c32000 	strb	r2, [r3]
             pevent->OSEventPtr  = OSEventFreeList;        // Return Event Control Block to free list
30006580:	e59f306c 	ldr	r3, [pc, #108]	@ 300065f4 <OSSemDel+0x1d4>
30006584:	e5932000 	ldr	r2, [r3]
30006588:	e51b3010 	ldr	r3, [fp, #-16]
3000658c:	e5832004 	str	r2, [r3, #4]
             OSEventFreeList     = pevent;                 // Get next free event control block
30006590:	e59f205c 	ldr	r2, [pc, #92]	@ 300065f4 <OSSemDel+0x1d4>
30006594:	e51b3010 	ldr	r3, [fp, #-16]
30006598:	e5823000 	str	r3, [r2]
             OS_EXIT_CRITICAL();
3000659c:	e51b000c 	ldr	r0, [fp, #-12]
300065a0:	ebffe789 	bl	300003cc <OS_CPU_SR_Restore>
             if (tasks_waiting == TRUE) {                  // Reschedule only if task(s) were waiting
300065a4:	e55b3005 	ldrb	r3, [fp, #-5]
300065a8:	e3530001 	cmp	r3, #1
300065ac:	1a000000 	bne	300065b4 <OSSemDel+0x194>
                 OS_Sched();                               // Find highest priority task ready to run
300065b0:	ebfff0e1 	bl	3000293c <OS_Sched>
             }
             *err = OS_NO_ERR;
300065b4:	e51b3018 	ldr	r3, [fp, #-24]	@ 0xffffffe8
300065b8:	e3a02000 	mov	r2, #0
300065bc:	e5c32000 	strb	r2, [r3]
             return ((OS_EVENT *)0);                       // Semaphore has been deleted
300065c0:	e3a03000 	mov	r3, #0
300065c4:	ea000005 	b	300065e0 <OSSemDel+0x1c0>

        default:
             OS_EXIT_CRITICAL();
300065c8:	e51b000c 	ldr	r0, [fp, #-12]
300065cc:	ebffe77e 	bl	300003cc <OS_CPU_SR_Restore>
             *err = OS_ERR_INVALID_OPT;
300065d0:	e51b3018 	ldr	r3, [fp, #-24]	@ 0xffffffe8
300065d4:	e3a02007 	mov	r2, #7
300065d8:	e5c32000 	strb	r2, [r3]
             return (pevent);
300065dc:	e51b3010 	ldr	r3, [fp, #-16]
    }
}
300065e0:	e1a00003 	mov	r0, r3
300065e4:	e24bd004 	sub	sp, fp, #4
300065e8:	e8bd4800 	pop	{fp, lr}
300065ec:	e12fff1e 	bx	lr
300065f0:	3000ac90 	.word	0x3000ac90
300065f4:	3000b804 	.word	0x3000b804

300065f8 <OSSemPend>:
* 移植要点:
* - 无。
*********************************************************************************************************
*/
void  OSSemPend (OS_EVENT *pevent, INT16U timeout, INT8U *err)
{
300065f8:	e92d4800 	push	{fp, lr}
300065fc:	e28db004 	add	fp, sp, #4
30006600:	e24dd018 	sub	sp, sp, #24
30006604:	e50b0010 	str	r0, [fp, #-16]
30006608:	e1a03001 	mov	r3, r1
3000660c:	e50b2018 	str	r2, [fp, #-24]	@ 0xffffffe8
30006610:	e14b31b2 	strh	r3, [fp, #-18]	@ 0xffffffee
    OS_CPU_SR  cpu_sr;  
    if (OSIntNesting > 0) {                           // See if called from ISR ...
30006614:	e59f314c 	ldr	r3, [pc, #332]	@ 30006768 <OSSemPend+0x170>
30006618:	e5d33000 	ldrb	r3, [r3]
3000661c:	e3530000 	cmp	r3, #0
30006620:	0a000003 	beq	30006634 <OSSemPend+0x3c>
        *err = OS_ERR_PEND_ISR;                       // ... can't PEND from an ISR
30006624:	e51b3018 	ldr	r3, [fp, #-24]	@ 0xffffffe8
30006628:	e3a02002 	mov	r2, #2
3000662c:	e5c32000 	strb	r2, [r3]
        return;
30006630:	ea000049 	b	3000675c <OSSemPend+0x164>
    }
    if (pevent == (OS_EVENT *)0) {                    // Validate 'pevent'
30006634:	e51b3010 	ldr	r3, [fp, #-16]
30006638:	e3530000 	cmp	r3, #0
3000663c:	1a000003 	bne	30006650 <OSSemPend+0x58>
        *err = OS_ERR_PEVENT_NULL;
30006640:	e51b3018 	ldr	r3, [fp, #-24]	@ 0xffffffe8
30006644:	e3a02004 	mov	r2, #4
30006648:	e5c32000 	strb	r2, [r3]
        return;
3000664c:	ea000042 	b	3000675c <OSSemPend+0x164>
    }
    if (pevent->OSEventType != OS_EVENT_TYPE_SEM) {   // Validate event block type
30006650:	e51b3010 	ldr	r3, [fp, #-16]
30006654:	e5d33000 	ldrb	r3, [r3]
30006658:	e3530003 	cmp	r3, #3
3000665c:	0a000003 	beq	30006670 <OSSemPend+0x78>
        *err = OS_ERR_EVENT_TYPE;
30006660:	e51b3018 	ldr	r3, [fp, #-24]	@ 0xffffffe8
30006664:	e3a02001 	mov	r2, #1
30006668:	e5c32000 	strb	r2, [r3]
        return;
3000666c:	ea00003a 	b	3000675c <OSSemPend+0x164>
    }
    OS_ENTER_CRITICAL();
30006670:	ebffe751 	bl	300003bc <OS_CPU_SR_Save>
30006674:	e50b0008 	str	r0, [fp, #-8]
    if (pevent->OSEventCnt > 0) {                     // If sem. is positive, resource available ...
30006678:	e51b3010 	ldr	r3, [fp, #-16]
3000667c:	e5933008 	ldr	r3, [r3, #8]
30006680:	e3530000 	cmp	r3, #0
30006684:	0a00000a 	beq	300066b4 <OSSemPend+0xbc>
        pevent->OSEventCnt--;                         // ... decrement semaphore only if positive.
30006688:	e51b3010 	ldr	r3, [fp, #-16]
3000668c:	e5933008 	ldr	r3, [r3, #8]
30006690:	e2432001 	sub	r2, r3, #1
30006694:	e51b3010 	ldr	r3, [fp, #-16]
30006698:	e5832008 	str	r2, [r3, #8]
        OS_EXIT_CRITICAL();
3000669c:	e51b0008 	ldr	r0, [fp, #-8]
300066a0:	ebffe749 	bl	300003cc <OS_CPU_SR_Restore>
        *err = OS_NO_ERR;
300066a4:	e51b3018 	ldr	r3, [fp, #-24]	@ 0xffffffe8
300066a8:	e3a02000 	mov	r2, #0
300066ac:	e5c32000 	strb	r2, [r3]
        return;
300066b0:	ea000029 	b	3000675c <OSSemPend+0x164>
    }
                                                      // Otherwise, must wait until event occurs
    OSTCBCur->OSTCBStat |= OS_STAT_SEM;               // Resource not available, pend on semaphore
300066b4:	e59f30b0 	ldr	r3, [pc, #176]	@ 3000676c <OSSemPend+0x174>
300066b8:	e5933000 	ldr	r3, [r3]
300066bc:	e5d3201f 	ldrb	r2, [r3, #31]
300066c0:	e59f30a4 	ldr	r3, [pc, #164]	@ 3000676c <OSSemPend+0x174>
300066c4:	e5933000 	ldr	r3, [r3]
300066c8:	e3822001 	orr	r2, r2, #1
300066cc:	e20220ff 	and	r2, r2, #255	@ 0xff
300066d0:	e5c3201f 	strb	r2, [r3, #31]
    OSTCBCur->OSTCBDly   = timeout;                   // Store pend timeout in TCB
300066d4:	e59f3090 	ldr	r3, [pc, #144]	@ 3000676c <OSSemPend+0x174>
300066d8:	e5933000 	ldr	r3, [r3]
300066dc:	e15b21b2 	ldrh	r2, [fp, #-18]	@ 0xffffffee
300066e0:	e1c321bc 	strh	r2, [r3, #28]
    OS_EventTaskWait(pevent);                         // Suspend task until event or timeout occurs
300066e4:	e51b0010 	ldr	r0, [fp, #-16]
300066e8:	ebffefa1 	bl	30002574 <OS_EventTaskWait>
    OS_EXIT_CRITICAL();
300066ec:	e51b0008 	ldr	r0, [fp, #-8]
300066f0:	ebffe735 	bl	300003cc <OS_CPU_SR_Restore>
    OS_Sched();                                       // Find next highest priority task ready
300066f4:	ebfff090 	bl	3000293c <OS_Sched>
    OS_ENTER_CRITICAL();
300066f8:	ebffe72f 	bl	300003bc <OS_CPU_SR_Save>
300066fc:	e50b0008 	str	r0, [fp, #-8]
    if (OSTCBCur->OSTCBStat & OS_STAT_SEM) {          // Must have timed out if still waiting for event
30006700:	e59f3064 	ldr	r3, [pc, #100]	@ 3000676c <OSSemPend+0x174>
30006704:	e5933000 	ldr	r3, [r3]
30006708:	e5d3301f 	ldrb	r3, [r3, #31]
3000670c:	e2033001 	and	r3, r3, #1
30006710:	e3530000 	cmp	r3, #0
30006714:	0a000007 	beq	30006738 <OSSemPend+0x140>
        OS_EventTO(pevent);
30006718:	e51b0010 	ldr	r0, [fp, #-16]
3000671c:	ebffefed 	bl	300026d8 <OS_EventTO>
        OS_EXIT_CRITICAL();
30006720:	e51b0008 	ldr	r0, [fp, #-8]
30006724:	ebffe728 	bl	300003cc <OS_CPU_SR_Restore>
        *err = OS_TIMEOUT;                            // Indicate that didn't get event within TO
30006728:	e51b3018 	ldr	r3, [fp, #-24]	@ 0xffffffe8
3000672c:	e3a0200a 	mov	r2, #10
30006730:	e5c32000 	strb	r2, [r3]
        return;
30006734:	ea000008 	b	3000675c <OSSemPend+0x164>
    }
    OSTCBCur->OSTCBEventPtr = (OS_EVENT *)0;
30006738:	e59f302c 	ldr	r3, [pc, #44]	@ 3000676c <OSSemPend+0x174>
3000673c:	e5933000 	ldr	r3, [r3]
30006740:	e3a02000 	mov	r2, #0
30006744:	e583200c 	str	r2, [r3, #12]
    OS_EXIT_CRITICAL();
30006748:	e51b0008 	ldr	r0, [fp, #-8]
3000674c:	ebffe71e 	bl	300003cc <OS_CPU_SR_Restore>
    *err = OS_NO_ERR;
30006750:	e51b3018 	ldr	r3, [fp, #-24]	@ 0xffffffe8
30006754:	e3a02000 	mov	r2, #0
30006758:	e5c32000 	strb	r2, [r3]
}
3000675c:	e24bd004 	sub	sp, fp, #4
30006760:	e8bd4800 	pop	{fp, lr}
30006764:	e12fff1e 	bx	lr
30006768:	3000ac90 	.word	0x3000ac90
3000676c:	3000b5b8 	.word	0x3000b5b8

30006770 <OSSemPost>:
* 移植要点:
* - 无。
*********************************************************************************************************
*/
INT8U  OSSemPost (OS_EVENT *pevent)
{
30006770:	e92d4800 	push	{fp, lr}
30006774:	e28db004 	add	fp, sp, #4
30006778:	e24dd010 	sub	sp, sp, #16
3000677c:	e50b0010 	str	r0, [fp, #-16]
    OS_CPU_SR cpu_sr;
    if(pevent == (OS_EVENT *)0){
30006780:	e51b3010 	ldr	r3, [fp, #-16]
30006784:	e3530000 	cmp	r3, #0
30006788:	1a000001 	bne	30006794 <OSSemPost+0x24>
        return (OS_ERR_PEVENT_NULL);
3000678c:	e3a03004 	mov	r3, #4
30006790:	ea000025 	b	3000682c <OSSemPost+0xbc>
    }
    if(pevent->OSEventType != OS_EVENT_TYPE_SEM){
30006794:	e51b3010 	ldr	r3, [fp, #-16]
30006798:	e5d33000 	ldrb	r3, [r3]
3000679c:	e3530003 	cmp	r3, #3
300067a0:	0a000001 	beq	300067ac <OSSemPost+0x3c>
        return (OS_ERR_EVENT_TYPE);
300067a4:	e3a03001 	mov	r3, #1
300067a8:	ea00001f 	b	3000682c <OSSemPost+0xbc>
    }

    OS_ENTER_CRITICAL();
300067ac:	ebffe702 	bl	300003bc <OS_CPU_SR_Save>
300067b0:	e50b0008 	str	r0, [fp, #-8]
    if(pevent->OSEventGrp != 0x00){
300067b4:	e51b3010 	ldr	r3, [fp, #-16]
300067b8:	e5d33001 	ldrb	r3, [r3, #1]
300067bc:	e3530000 	cmp	r3, #0
300067c0:	0a000008 	beq	300067e8 <OSSemPost+0x78>
        OS_EventTaskRdy(pevent, (void *)0, OS_STAT_SEM);
300067c4:	e3a02001 	mov	r2, #1
300067c8:	e3a01000 	mov	r1, #0
300067cc:	e51b0010 	ldr	r0, [fp, #-16]
300067d0:	ebffeef3 	bl	300023a4 <OS_EventTaskRdy>
        OS_EXIT_CRITICAL();
300067d4:	e51b0008 	ldr	r0, [fp, #-8]
300067d8:	ebffe6fb 	bl	300003cc <OS_CPU_SR_Restore>
        OS_Sched();
300067dc:	ebfff056 	bl	3000293c <OS_Sched>
        return (OS_NO_ERR);
300067e0:	e3a03000 	mov	r3, #0
300067e4:	ea000010 	b	3000682c <OSSemPost+0xbc>
    }
    if(pevent->OSEventCnt < 65535){
300067e8:	e51b3010 	ldr	r3, [fp, #-16]
300067ec:	e5933008 	ldr	r3, [r3, #8]
300067f0:	e59f2044 	ldr	r2, [pc, #68]	@ 3000683c <OSSemPost+0xcc>
300067f4:	e1530002 	cmp	r3, r2
300067f8:	8a000008 	bhi	30006820 <OSSemPost+0xb0>
        pevent->OSEventCnt++;
300067fc:	e51b3010 	ldr	r3, [fp, #-16]
30006800:	e5933008 	ldr	r3, [r3, #8]
30006804:	e2832001 	add	r2, r3, #1
30006808:	e51b3010 	ldr	r3, [fp, #-16]
3000680c:	e5832008 	str	r2, [r3, #8]
        OS_EXIT_CRITICAL();
30006810:	e51b0008 	ldr	r0, [fp, #-8]
30006814:	ebffe6ec 	bl	300003cc <OS_CPU_SR_Restore>
        return (OS_NO_ERR);
30006818:	e3a03000 	mov	r3, #0
3000681c:	ea000002 	b	3000682c <OSSemPost+0xbc>
    }
    OS_EXIT_CRITICAL();
30006820:	e51b0008 	ldr	r0, [fp, #-8]
30006824:	ebffe6e8 	bl	300003cc <OS_CPU_SR_Restore>
    return (OS_SEM_OVF);
30006828:	e3a03032 	mov	r3, #50	@ 0x32
}
3000682c:	e1a00003 	mov	r0, r3
30006830:	e24bd004 	sub	sp, fp, #4
30006834:	e8bd4800 	pop	{fp, lr}
30006838:	e12fff1e 	bx	lr
3000683c:	0000fffe 	.word	0x0000fffe

30006840 <OSSemQuery>:
* 移植要点:
* - 无。
*********************************************************************************************************
*/
INT8U  OSSemQuery (OS_EVENT *pevent, OS_SEM_DATA *pdata)
{
30006840:	e92d4800 	push	{fp, lr}
30006844:	e28db004 	add	fp, sp, #4
30006848:	e24dd010 	sub	sp, sp, #16
3000684c:	e50b0010 	str	r0, [fp, #-16]
30006850:	e50b1014 	str	r1, [fp, #-20]	@ 0xffffffec
    OS_CPU_SR  cpu_sr;

    if (pevent == (OS_EVENT *)0) {                         // Validate 'pevent'
30006854:	e51b3010 	ldr	r3, [fp, #-16]
30006858:	e3530000 	cmp	r3, #0
3000685c:	1a000001 	bne	30006868 <OSSemQuery+0x28>
        return (OS_ERR_PEVENT_NULL);
30006860:	e3a03004 	mov	r3, #4
30006864:	ea00001b 	b	300068d8 <OSSemQuery+0x98>
    }
    if (pevent->OSEventType != OS_EVENT_TYPE_SEM) {        // Validate event block type
30006868:	e51b3010 	ldr	r3, [fp, #-16]
3000686c:	e5d33000 	ldrb	r3, [r3]
30006870:	e3530003 	cmp	r3, #3
30006874:	0a000001 	beq	30006880 <OSSemQuery+0x40>
        return (OS_ERR_EVENT_TYPE);
30006878:	e3a03001 	mov	r3, #1
3000687c:	ea000015 	b	300068d8 <OSSemQuery+0x98>
    }
    OS_ENTER_CRITICAL();
30006880:	ebffe6cd 	bl	300003bc <OS_CPU_SR_Save>
30006884:	e50b0008 	str	r0, [fp, #-8]
    pdata->OSEventGrp = pevent->OSEventGrp;                // Copy semaphore wait list
30006888:	e51b3010 	ldr	r3, [fp, #-16]
3000688c:	e5d32001 	ldrb	r2, [r3, #1]
30006890:	e51b3014 	ldr	r3, [fp, #-20]	@ 0xffffffec
30006894:	e5c3200a 	strb	r2, [r3, #10]
    memcpy(&pdata->OSEventTbl[0], &pevent->OSEventTbl[0], sizeof(pdata->OSEventTbl));
30006898:	e51b3014 	ldr	r3, [fp, #-20]	@ 0xffffffec
3000689c:	e2830002 	add	r0, r3, #2
300068a0:	e51b3010 	ldr	r3, [fp, #-16]
300068a4:	e283300c 	add	r3, r3, #12
300068a8:	e3a02008 	mov	r2, #8
300068ac:	e1a01003 	mov	r1, r3
300068b0:	eb0004c2 	bl	30007bc0 <memcpy>
    pdata->OSCnt      = pevent->OSEventCnt;                // Get semaphore count
300068b4:	e51b3010 	ldr	r3, [fp, #-16]
300068b8:	e5933008 	ldr	r3, [r3, #8]
300068bc:	e1a03803 	lsl	r3, r3, #16
300068c0:	e1a02823 	lsr	r2, r3, #16
300068c4:	e51b3014 	ldr	r3, [fp, #-20]	@ 0xffffffec
300068c8:	e1c320b0 	strh	r2, [r3]
    OS_EXIT_CRITICAL();
300068cc:	e51b0008 	ldr	r0, [fp, #-8]
300068d0:	ebffe6bd 	bl	300003cc <OS_CPU_SR_Restore>
    return (OS_NO_ERR);
300068d4:	e3a03000 	mov	r3, #0
}
300068d8:	e1a00003 	mov	r0, r3
300068dc:	e24bd004 	sub	sp, fp, #4
300068e0:	e8bd4800 	pop	{fp, lr}
300068e4:	e12fff1e 	bx	lr

300068e8 <OSTaskChangePrio>:
* 移植要点:
* - 涉及复杂的位操作和链表操作，需确保原子性。
*********************************************************************************************************
*/
INT8U  OSTaskChangePrio (INT8U oldprio, INT8U newprio)
{
300068e8:	e92d4800 	push	{fp, lr}
300068ec:	e28db004 	add	fp, sp, #4
300068f0:	e24dd018 	sub	sp, sp, #24
300068f4:	e1a03000 	mov	r3, r0
300068f8:	e1a02001 	mov	r2, r1
300068fc:	e54b3015 	strb	r3, [fp, #-21]	@ 0xffffffeb
30006900:	e1a03002 	mov	r3, r2
30006904:	e54b3016 	strb	r3, [fp, #-22]	@ 0xffffffea
    INT8U        x;
    INT8U        y;
    INT8U        bitx;
    INT8U        bity;

    if ((oldprio >= OS_LOWEST_PRIO && oldprio != OS_PRIO_SELF)  ||
30006908:	e55b3015 	ldrb	r3, [fp, #-21]	@ 0xffffffeb
3000690c:	e353003d 	cmp	r3, #61	@ 0x3d
30006910:	9a000002 	bls	30006920 <OSTaskChangePrio+0x38>
30006914:	e55b3015 	ldrb	r3, [fp, #-21]	@ 0xffffffeb
30006918:	e35300ff 	cmp	r3, #255	@ 0xff
3000691c:	1a000002 	bne	3000692c <OSTaskChangePrio+0x44>
30006920:	e55b3016 	ldrb	r3, [fp, #-22]	@ 0xffffffea
30006924:	e353003d 	cmp	r3, #61	@ 0x3d
30006928:	9a000001 	bls	30006934 <OSTaskChangePrio+0x4c>
         newprio >= OS_LOWEST_PRIO) {
        return (OS_PRIO_INVALID);
3000692c:	e3a0302a 	mov	r3, #42	@ 0x2a
30006930:	ea0000df 	b	30006cb4 <OSTaskChangePrio+0x3cc>
    }
    OS_ENTER_CRITICAL();
30006934:	ebffe6a0 	bl	300003bc <OS_CPU_SR_Save>
30006938:	e50b0008 	str	r0, [fp, #-8]
    if (OSTCBPrioTbl[newprio] != (OS_TCB *)0) {           
3000693c:	e55b3016 	ldrb	r3, [fp, #-22]	@ 0xffffffea
30006940:	e59f237c 	ldr	r2, [pc, #892]	@ 30006cc4 <OSTaskChangePrio+0x3dc>
30006944:	e7923103 	ldr	r3, [r2, r3, lsl #2]
30006948:	e3530000 	cmp	r3, #0
3000694c:	0a000003 	beq	30006960 <OSTaskChangePrio+0x78>
        OS_EXIT_CRITICAL();
30006950:	e51b0008 	ldr	r0, [fp, #-8]
30006954:	ebffe69c 	bl	300003cc <OS_CPU_SR_Restore>
        return (OS_PRIO_EXIST);
30006958:	e3a03028 	mov	r3, #40	@ 0x28
3000695c:	ea0000d4 	b	30006cb4 <OSTaskChangePrio+0x3cc>
    } else {
        OSTCBPrioTbl[newprio] = (OS_TCB *)1;        
30006960:	e55b3016 	ldrb	r3, [fp, #-22]	@ 0xffffffea
30006964:	e59f2358 	ldr	r2, [pc, #856]	@ 30006cc4 <OSTaskChangePrio+0x3dc>
30006968:	e3a01001 	mov	r1, #1
3000696c:	e7821103 	str	r1, [r2, r3, lsl #2]
        OS_EXIT_CRITICAL();
30006970:	e51b0008 	ldr	r0, [fp, #-8]
30006974:	ebffe694 	bl	300003cc <OS_CPU_SR_Restore>
        y    = newprio >> 3;                           
30006978:	e55b3016 	ldrb	r3, [fp, #-22]	@ 0xffffffea
3000697c:	e1a031a3 	lsr	r3, r3, #3
30006980:	e54b3009 	strb	r3, [fp, #-9]
        bity = OSMapTbl[y];
30006984:	e55b3009 	ldrb	r3, [fp, #-9]
30006988:	e59f2338 	ldr	r2, [pc, #824]	@ 30006cc8 <OSTaskChangePrio+0x3e0>
3000698c:	e7d23003 	ldrb	r3, [r2, r3]
30006990:	e54b300a 	strb	r3, [fp, #-10]
        x    = newprio & 0x07;
30006994:	e55b3016 	ldrb	r3, [fp, #-22]	@ 0xffffffea
30006998:	e2033007 	and	r3, r3, #7
3000699c:	e54b300b 	strb	r3, [fp, #-11]
        bitx = OSMapTbl[x];
300069a0:	e55b300b 	ldrb	r3, [fp, #-11]
300069a4:	e59f231c 	ldr	r2, [pc, #796]	@ 30006cc8 <OSTaskChangePrio+0x3e0>
300069a8:	e7d23003 	ldrb	r3, [r2, r3]
300069ac:	e54b300c 	strb	r3, [fp, #-12]
        OS_ENTER_CRITICAL();
300069b0:	ebffe681 	bl	300003bc <OS_CPU_SR_Save>
300069b4:	e50b0008 	str	r0, [fp, #-8]
        if (oldprio == OS_PRIO_SELF) {                
300069b8:	e55b3015 	ldrb	r3, [fp, #-21]	@ 0xffffffeb
300069bc:	e35300ff 	cmp	r3, #255	@ 0xff
300069c0:	1a000003 	bne	300069d4 <OSTaskChangePrio+0xec>
            oldprio = OSTCBCur->OSTCBPrio;      
300069c4:	e59f3300 	ldr	r3, [pc, #768]	@ 30006ccc <OSTaskChangePrio+0x3e4>
300069c8:	e5933000 	ldr	r3, [r3]
300069cc:	e5d3301e 	ldrb	r3, [r3, #30]
300069d0:	e54b3015 	strb	r3, [fp, #-21]	@ 0xffffffeb
        }
        ptcb = OSTCBPrioTbl[oldprio];
300069d4:	e55b3015 	ldrb	r3, [fp, #-21]	@ 0xffffffeb
300069d8:	e59f22e4 	ldr	r2, [pc, #740]	@ 30006cc4 <OSTaskChangePrio+0x3dc>
300069dc:	e7923103 	ldr	r3, [r2, r3, lsl #2]
300069e0:	e50b3010 	str	r3, [fp, #-16]
        if (ptcb != (OS_TCB *)0) {            
300069e4:	e51b3010 	ldr	r3, [fp, #-16]
300069e8:	e3530000 	cmp	r3, #0
300069ec:	0a0000a9 	beq	30006c98 <OSTaskChangePrio+0x3b0>
            OSTCBPrioTbl[oldprio] = (OS_TCB *)0;           
300069f0:	e55b3015 	ldrb	r3, [fp, #-21]	@ 0xffffffeb
300069f4:	e59f22c8 	ldr	r2, [pc, #712]	@ 30006cc4 <OSTaskChangePrio+0x3dc>
300069f8:	e3a01000 	mov	r1, #0
300069fc:	e7821103 	str	r1, [r2, r3, lsl #2]
            if ((OSRdyTbl[ptcb->OSTCBY] & ptcb->OSTCBBitX) != 0x00) { 
30006a00:	e51b3010 	ldr	r3, [fp, #-16]
30006a04:	e5d33021 	ldrb	r3, [r3, #33]	@ 0x21
30006a08:	e1a02003 	mov	r2, r3
30006a0c:	e59f32bc 	ldr	r3, [pc, #700]	@ 30006cd0 <OSTaskChangePrio+0x3e8>
30006a10:	e7d32002 	ldrb	r2, [r3, r2]
30006a14:	e51b3010 	ldr	r3, [fp, #-16]
30006a18:	e5d33022 	ldrb	r3, [r3, #34]	@ 0x22
30006a1c:	e0033002 	and	r3, r3, r2
30006a20:	e20330ff 	and	r3, r3, #255	@ 0xff
30006a24:	e3530000 	cmp	r3, #0
30006a28:	0a00003b 	beq	30006b1c <OSTaskChangePrio+0x234>
                if ((OSRdyTbl[ptcb->OSTCBY] &= ~ptcb->OSTCBBitX) == 0x00) {
30006a2c:	e51b3010 	ldr	r3, [fp, #-16]
30006a30:	e5d33021 	ldrb	r3, [r3, #33]	@ 0x21
30006a34:	e1a02003 	mov	r2, r3
30006a38:	e59f3290 	ldr	r3, [pc, #656]	@ 30006cd0 <OSTaskChangePrio+0x3e8>
30006a3c:	e7d33002 	ldrb	r3, [r3, r2]
30006a40:	e1a03c03 	lsl	r3, r3, #24
30006a44:	e1a02c43 	asr	r2, r3, #24
30006a48:	e51b3010 	ldr	r3, [fp, #-16]
30006a4c:	e5d33022 	ldrb	r3, [r3, #34]	@ 0x22
30006a50:	e1a03c03 	lsl	r3, r3, #24
30006a54:	e1a03c43 	asr	r3, r3, #24
30006a58:	e1e03003 	mvn	r3, r3
30006a5c:	e1a03c03 	lsl	r3, r3, #24
30006a60:	e1a03c43 	asr	r3, r3, #24
30006a64:	e0033002 	and	r3, r3, r2
30006a68:	e1a03c03 	lsl	r3, r3, #24
30006a6c:	e1a02c43 	asr	r2, r3, #24
30006a70:	e51b3010 	ldr	r3, [fp, #-16]
30006a74:	e5d33021 	ldrb	r3, [r3, #33]	@ 0x21
30006a78:	e20210ff 	and	r1, r2, #255	@ 0xff
30006a7c:	e59f224c 	ldr	r2, [pc, #588]	@ 30006cd0 <OSTaskChangePrio+0x3e8>
30006a80:	e7c21003 	strb	r1, [r2, r3]
30006a84:	e59f2244 	ldr	r2, [pc, #580]	@ 30006cd0 <OSTaskChangePrio+0x3e8>
30006a88:	e7d23003 	ldrb	r3, [r2, r3]
30006a8c:	e3530000 	cmp	r3, #0
30006a90:	1a000010 	bne	30006ad8 <OSTaskChangePrio+0x1f0>
                    OSRdyGrp &= ~ptcb->OSTCBBitY;
30006a94:	e51b3010 	ldr	r3, [fp, #-16]
30006a98:	e5d33023 	ldrb	r3, [r3, #35]	@ 0x23
30006a9c:	e1a03c03 	lsl	r3, r3, #24
30006aa0:	e1a03c43 	asr	r3, r3, #24
30006aa4:	e1e03003 	mvn	r3, r3
30006aa8:	e1a03c03 	lsl	r3, r3, #24
30006aac:	e1a02c43 	asr	r2, r3, #24
30006ab0:	e59f321c 	ldr	r3, [pc, #540]	@ 30006cd4 <OSTaskChangePrio+0x3ec>
30006ab4:	e5d33000 	ldrb	r3, [r3]
30006ab8:	e1a03c03 	lsl	r3, r3, #24
30006abc:	e1a03c43 	asr	r3, r3, #24
30006ac0:	e0033002 	and	r3, r3, r2
30006ac4:	e1a03c03 	lsl	r3, r3, #24
30006ac8:	e1a03c43 	asr	r3, r3, #24
30006acc:	e20320ff 	and	r2, r3, #255	@ 0xff
30006ad0:	e59f31fc 	ldr	r3, [pc, #508]	@ 30006cd4 <OSTaskChangePrio+0x3ec>
30006ad4:	e5c32000 	strb	r2, [r3]
                }
                OSRdyGrp    |= bity;                          
30006ad8:	e59f31f4 	ldr	r3, [pc, #500]	@ 30006cd4 <OSTaskChangePrio+0x3ec>
30006adc:	e5d32000 	ldrb	r2, [r3]
30006ae0:	e55b300a 	ldrb	r3, [fp, #-10]
30006ae4:	e1823003 	orr	r3, r2, r3
30006ae8:	e20320ff 	and	r2, r3, #255	@ 0xff
30006aec:	e59f31e0 	ldr	r3, [pc, #480]	@ 30006cd4 <OSTaskChangePrio+0x3ec>
30006af0:	e5c32000 	strb	r2, [r3]
                OSRdyTbl[y] |= bitx;
30006af4:	e55b3009 	ldrb	r3, [fp, #-9]
30006af8:	e59f21d0 	ldr	r2, [pc, #464]	@ 30006cd0 <OSTaskChangePrio+0x3e8>
30006afc:	e7d21003 	ldrb	r1, [r2, r3]
30006b00:	e55b3009 	ldrb	r3, [fp, #-9]
30006b04:	e55b200c 	ldrb	r2, [fp, #-12]
30006b08:	e1812002 	orr	r2, r1, r2
30006b0c:	e20210ff 	and	r1, r2, #255	@ 0xff
30006b10:	e59f21b8 	ldr	r2, [pc, #440]	@ 30006cd0 <OSTaskChangePrio+0x3e8>
30006b14:	e7c21003 	strb	r1, [r2, r3]
30006b18:	ea000046 	b	30006c38 <OSTaskChangePrio+0x350>
            } 
            else {
                pevent = ptcb->OSTCBEventPtr;
30006b1c:	e51b3010 	ldr	r3, [fp, #-16]
30006b20:	e593300c 	ldr	r3, [r3, #12]
30006b24:	e50b3014 	str	r3, [fp, #-20]	@ 0xffffffec
                if (pevent != (OS_EVENT *)0) {                
30006b28:	e51b3014 	ldr	r3, [fp, #-20]	@ 0xffffffec
30006b2c:	e3530000 	cmp	r3, #0
30006b30:	0a000040 	beq	30006c38 <OSTaskChangePrio+0x350>
                    if ((pevent->OSEventTbl[ptcb->OSTCBY] &= ~ptcb->OSTCBBitX) == 0) {
30006b34:	e51b3010 	ldr	r3, [fp, #-16]
30006b38:	e5d33021 	ldrb	r3, [r3, #33]	@ 0x21
30006b3c:	e1a02003 	mov	r2, r3
30006b40:	e51b3014 	ldr	r3, [fp, #-20]	@ 0xffffffec
30006b44:	e0833002 	add	r3, r3, r2
30006b48:	e5d3300c 	ldrb	r3, [r3, #12]
30006b4c:	e1a03c03 	lsl	r3, r3, #24
30006b50:	e1a02c43 	asr	r2, r3, #24
30006b54:	e51b3010 	ldr	r3, [fp, #-16]
30006b58:	e5d33022 	ldrb	r3, [r3, #34]	@ 0x22
30006b5c:	e1a03c03 	lsl	r3, r3, #24
30006b60:	e1a03c43 	asr	r3, r3, #24
30006b64:	e1e03003 	mvn	r3, r3
30006b68:	e1a03c03 	lsl	r3, r3, #24
30006b6c:	e1a03c43 	asr	r3, r3, #24
30006b70:	e0033002 	and	r3, r3, r2
30006b74:	e1a03c03 	lsl	r3, r3, #24
30006b78:	e1a02c43 	asr	r2, r3, #24
30006b7c:	e51b3010 	ldr	r3, [fp, #-16]
30006b80:	e5d33021 	ldrb	r3, [r3, #33]	@ 0x21
30006b84:	e20210ff 	and	r1, r2, #255	@ 0xff
30006b88:	e51b2014 	ldr	r2, [fp, #-20]	@ 0xffffffec
30006b8c:	e0822003 	add	r2, r2, r3
30006b90:	e5c2100c 	strb	r1, [r2, #12]
30006b94:	e51b2014 	ldr	r2, [fp, #-20]	@ 0xffffffec
30006b98:	e0823003 	add	r3, r2, r3
30006b9c:	e5d3300c 	ldrb	r3, [r3, #12]
30006ba0:	e3530000 	cmp	r3, #0
30006ba4:	1a000010 	bne	30006bec <OSTaskChangePrio+0x304>
                        pevent->OSEventGrp &= ~ptcb->OSTCBBitY;
30006ba8:	e51b3014 	ldr	r3, [fp, #-20]	@ 0xffffffec
30006bac:	e5d33001 	ldrb	r3, [r3, #1]
30006bb0:	e1a03c03 	lsl	r3, r3, #24
30006bb4:	e1a02c43 	asr	r2, r3, #24
30006bb8:	e51b3010 	ldr	r3, [fp, #-16]
30006bbc:	e5d33023 	ldrb	r3, [r3, #35]	@ 0x23
30006bc0:	e1a03c03 	lsl	r3, r3, #24
30006bc4:	e1a03c43 	asr	r3, r3, #24
30006bc8:	e1e03003 	mvn	r3, r3
30006bcc:	e1a03c03 	lsl	r3, r3, #24
30006bd0:	e1a03c43 	asr	r3, r3, #24
30006bd4:	e0033002 	and	r3, r3, r2
30006bd8:	e1a03c03 	lsl	r3, r3, #24
30006bdc:	e1a03c43 	asr	r3, r3, #24
30006be0:	e20320ff 	and	r2, r3, #255	@ 0xff
30006be4:	e51b3014 	ldr	r3, [fp, #-20]	@ 0xffffffec
30006be8:	e5c32001 	strb	r2, [r3, #1]
                    }
                    pevent->OSEventGrp    |= bity;             
30006bec:	e51b3014 	ldr	r3, [fp, #-20]	@ 0xffffffec
30006bf0:	e5d32001 	ldrb	r2, [r3, #1]
30006bf4:	e55b300a 	ldrb	r3, [fp, #-10]
30006bf8:	e1823003 	orr	r3, r2, r3
30006bfc:	e20320ff 	and	r2, r3, #255	@ 0xff
30006c00:	e51b3014 	ldr	r3, [fp, #-20]	@ 0xffffffec
30006c04:	e5c32001 	strb	r2, [r3, #1]
                    pevent->OSEventTbl[y] |= bitx;
30006c08:	e55b3009 	ldrb	r3, [fp, #-9]
30006c0c:	e51b2014 	ldr	r2, [fp, #-20]	@ 0xffffffec
30006c10:	e0823003 	add	r3, r2, r3
30006c14:	e5d3100c 	ldrb	r1, [r3, #12]
30006c18:	e55b3009 	ldrb	r3, [fp, #-9]
30006c1c:	e55b200c 	ldrb	r2, [fp, #-12]
30006c20:	e1812002 	orr	r2, r1, r2
30006c24:	e20210ff 	and	r1, r2, #255	@ 0xff
30006c28:	e51b2014 	ldr	r2, [fp, #-20]	@ 0xffffffec
30006c2c:	e0823003 	add	r3, r2, r3
30006c30:	e1a02001 	mov	r2, r1
30006c34:	e5c3200c 	strb	r2, [r3, #12]
                }
            }
            OSTCBPrioTbl[newprio] = ptcb;                    
30006c38:	e55b3016 	ldrb	r3, [fp, #-22]	@ 0xffffffea
30006c3c:	e59f1080 	ldr	r1, [pc, #128]	@ 30006cc4 <OSTaskChangePrio+0x3dc>
30006c40:	e51b2010 	ldr	r2, [fp, #-16]
30006c44:	e7812103 	str	r2, [r1, r3, lsl #2]
            ptcb->OSTCBPrio       = newprio;                  
30006c48:	e51b3010 	ldr	r3, [fp, #-16]
30006c4c:	e55b2016 	ldrb	r2, [fp, #-22]	@ 0xffffffea
30006c50:	e5c3201e 	strb	r2, [r3, #30]
            ptcb->OSTCBY          = y;
30006c54:	e51b3010 	ldr	r3, [fp, #-16]
30006c58:	e55b2009 	ldrb	r2, [fp, #-9]
30006c5c:	e5c32021 	strb	r2, [r3, #33]	@ 0x21
            ptcb->OSTCBX          = x;
30006c60:	e51b3010 	ldr	r3, [fp, #-16]
30006c64:	e55b200b 	ldrb	r2, [fp, #-11]
30006c68:	e5c32020 	strb	r2, [r3, #32]
            ptcb->OSTCBBitY       = bity;
30006c6c:	e51b3010 	ldr	r3, [fp, #-16]
30006c70:	e55b200a 	ldrb	r2, [fp, #-10]
30006c74:	e5c32023 	strb	r2, [r3, #35]	@ 0x23
            ptcb->OSTCBBitX       = bitx;
30006c78:	e51b3010 	ldr	r3, [fp, #-16]
30006c7c:	e55b200c 	ldrb	r2, [fp, #-12]
30006c80:	e5c32022 	strb	r2, [r3, #34]	@ 0x22
            OS_EXIT_CRITICAL();
30006c84:	e51b0008 	ldr	r0, [fp, #-8]
30006c88:	ebffe5cf 	bl	300003cc <OS_CPU_SR_Restore>
            OS_Sched();                                        
30006c8c:	ebffef2a 	bl	3000293c <OS_Sched>
            return (OS_NO_ERR);
30006c90:	e3a03000 	mov	r3, #0
30006c94:	ea000006 	b	30006cb4 <OSTaskChangePrio+0x3cc>
        } 
        else {
            OSTCBPrioTbl[newprio] = (OS_TCB *)0;                
30006c98:	e55b3016 	ldrb	r3, [fp, #-22]	@ 0xffffffea
30006c9c:	e59f2020 	ldr	r2, [pc, #32]	@ 30006cc4 <OSTaskChangePrio+0x3dc>
30006ca0:	e3a01000 	mov	r1, #0
30006ca4:	e7821103 	str	r1, [r2, r3, lsl #2]
            OS_EXIT_CRITICAL();
30006ca8:	e51b0008 	ldr	r0, [fp, #-8]
30006cac:	ebffe5c6 	bl	300003cc <OS_CPU_SR_Restore>
            return (OS_PRIO_ERR);                               
30006cb0:	e3a03029 	mov	r3, #41	@ 0x29
        }
    }
}
30006cb4:	e1a00003 	mov	r0, r3
30006cb8:	e24bd004 	sub	sp, fp, #4
30006cbc:	e8bd4800 	pop	{fp, lr}
30006cc0:	e12fff1e 	bx	lr
30006cc4:	3000b5c8 	.word	0x3000b5c8
30006cc8:	300080b8 	.word	0x300080b8
30006ccc:	3000b5b8 	.word	0x3000b5b8
30006cd0:	3000ac98 	.word	0x3000ac98
30006cd4:	3000ac95 	.word	0x3000ac95

30006cd8 <OSTaskCreate>:
* 移植要点:
* - 关键依赖 OSTaskStkInit (在 OS_CPU_C.C 中)。
* - 对于 Mini2440，传递的 ptos 应该是堆栈的高地址（因为是满递减堆栈）。
*********************************************************************************************************
*/
INT8U OSTaskCreate(void (*task)(void *pd), void *pdata1, OS_STK *ptos, INT8U prio){
30006cd8:	e92d4800 	push	{fp, lr}
30006cdc:	e28db004 	add	fp, sp, #4
30006ce0:	e24dd030 	sub	sp, sp, #48	@ 0x30
30006ce4:	e50b0018 	str	r0, [fp, #-24]	@ 0xffffffe8
30006ce8:	e50b101c 	str	r1, [fp, #-28]	@ 0xffffffe4
30006cec:	e50b2020 	str	r2, [fp, #-32]	@ 0xffffffe0
30006cf0:	e54b3021 	strb	r3, [fp, #-33]	@ 0xffffffdf
    //不考虑ext的情况
    OS_CPU_SR   cpu_sr;
    OS_STK      *psp; //pointer to stack pointer
    INT8U       err;

    if(prio > OS_LOWEST_PRIO){
30006cf4:	e55b3021 	ldrb	r3, [fp, #-33]	@ 0xffffffdf
30006cf8:	e353003e 	cmp	r3, #62	@ 0x3e
30006cfc:	9a000001 	bls	30006d08 <OSTaskCreate+0x30>
        return OS_PRIO_INVALID;
30006d00:	e3a0302a 	mov	r3, #42	@ 0x2a
30006d04:	ea00003f 	b	30006e08 <OSTaskCreate+0x130>
    }
    OS_ENTER_CRITICAL();
30006d08:	ebffe5ab 	bl	300003bc <OS_CPU_SR_Save>
30006d0c:	e50b0008 	str	r0, [fp, #-8]
    if(OSTCBPrioTbl[prio] == (OS_TCB *)0){
30006d10:	e55b3021 	ldrb	r3, [fp, #-33]	@ 0xffffffdf
30006d14:	e59f20fc 	ldr	r2, [pc, #252]	@ 30006e18 <OSTaskCreate+0x140>
30006d18:	e7923103 	ldr	r3, [r2, r3, lsl #2]
30006d1c:	e3530000 	cmp	r3, #0
30006d20:	1a000035 	bne	30006dfc <OSTaskCreate+0x124>
        OSTCBPrioTbl[prio] = (OS_TCB *)1;
30006d24:	e55b3021 	ldrb	r3, [fp, #-33]	@ 0xffffffdf
30006d28:	e59f20e8 	ldr	r2, [pc, #232]	@ 30006e18 <OSTaskCreate+0x140>
30006d2c:	e3a01001 	mov	r1, #1
30006d30:	e7821103 	str	r1, [r2, r3, lsl #2]
        OS_EXIT_CRITICAL();
30006d34:	e51b0008 	ldr	r0, [fp, #-8]
30006d38:	ebffe5a3 	bl	300003cc <OS_CPU_SR_Restore>
        psp = (OS_STK *)OSTaskStkInit(task, pdata1, ptos, 0);
30006d3c:	e3a03000 	mov	r3, #0
30006d40:	e51b2020 	ldr	r2, [fp, #-32]	@ 0xffffffe0
30006d44:	e51b101c 	ldr	r1, [fp, #-28]	@ 0xffffffe4
30006d48:	e51b0018 	ldr	r0, [fp, #-24]	@ 0xffffffe8
30006d4c:	ebffe7c8 	bl	30000c74 <OSTaskStkInit>
30006d50:	e50b000c 	str	r0, [fp, #-12]
        err = OS_TCBInit(prio, psp, (OS_STK *)0,0,0,(void *)0,0);
30006d54:	e55b0021 	ldrb	r0, [fp, #-33]	@ 0xffffffdf
30006d58:	e3a03000 	mov	r3, #0
30006d5c:	e58d3008 	str	r3, [sp, #8]
30006d60:	e3a03000 	mov	r3, #0
30006d64:	e58d3004 	str	r3, [sp, #4]
30006d68:	e3a03000 	mov	r3, #0
30006d6c:	e58d3000 	str	r3, [sp]
30006d70:	e3a03000 	mov	r3, #0
30006d74:	e3a02000 	mov	r2, #0
30006d78:	e51b100c 	ldr	r1, [fp, #-12]
30006d7c:	ebffef8a 	bl	30002bac <OS_TCBInit>
30006d80:	e1a03000 	mov	r3, r0
30006d84:	e54b300d 	strb	r3, [fp, #-13]
        if(err == OS_NO_ERR){
30006d88:	e55b300d 	ldrb	r3, [fp, #-13]
30006d8c:	e3530000 	cmp	r3, #0
30006d90:	1a00000f 	bne	30006dd4 <OSTaskCreate+0xfc>
            OS_ENTER_CRITICAL();
30006d94:	ebffe588 	bl	300003bc <OS_CPU_SR_Save>
30006d98:	e50b0008 	str	r0, [fp, #-8]
            OSTaskCtr++;
30006d9c:	e59f3078 	ldr	r3, [pc, #120]	@ 30006e1c <OSTaskCreate+0x144>
30006da0:	e5d33000 	ldrb	r3, [r3]
30006da4:	e2833001 	add	r3, r3, #1
30006da8:	e20320ff 	and	r2, r3, #255	@ 0xff
30006dac:	e59f3068 	ldr	r3, [pc, #104]	@ 30006e1c <OSTaskCreate+0x144>
30006db0:	e5c32000 	strb	r2, [r3]
            OS_EXIT_CRITICAL();
30006db4:	e51b0008 	ldr	r0, [fp, #-8]
30006db8:	ebffe583 	bl	300003cc <OS_CPU_SR_Restore>
            if(OSRunning == TRUE){
30006dbc:	e59f305c 	ldr	r3, [pc, #92]	@ 30006e20 <OSTaskCreate+0x148>
30006dc0:	e5d33000 	ldrb	r3, [r3]
30006dc4:	e3530001 	cmp	r3, #1
30006dc8:	1a000009 	bne	30006df4 <OSTaskCreate+0x11c>
                OS_Sched();
30006dcc:	ebffeeda 	bl	3000293c <OS_Sched>
30006dd0:	ea000007 	b	30006df4 <OSTaskCreate+0x11c>
            }
        }
        else{
                OS_ENTER_CRITICAL();
30006dd4:	ebffe578 	bl	300003bc <OS_CPU_SR_Save>
30006dd8:	e50b0008 	str	r0, [fp, #-8]
                OSTCBPrioTbl[prio] = (OS_TCB *)0;
30006ddc:	e55b3021 	ldrb	r3, [fp, #-33]	@ 0xffffffdf
30006de0:	e59f2030 	ldr	r2, [pc, #48]	@ 30006e18 <OSTaskCreate+0x140>
30006de4:	e3a01000 	mov	r1, #0
30006de8:	e7821103 	str	r1, [r2, r3, lsl #2]
                OS_EXIT_CRITICAL();
30006dec:	e51b0008 	ldr	r0, [fp, #-8]
30006df0:	ebffe575 	bl	300003cc <OS_CPU_SR_Restore>
            }
        return (err);
30006df4:	e55b300d 	ldrb	r3, [fp, #-13]
30006df8:	ea000002 	b	30006e08 <OSTaskCreate+0x130>
    }
    OS_EXIT_CRITICAL();
30006dfc:	e51b0008 	ldr	r0, [fp, #-8]
30006e00:	ebffe571 	bl	300003cc <OS_CPU_SR_Restore>
    return (OS_PRIO_EXIST);
30006e04:	e3a03028 	mov	r3, #40	@ 0x28
}
30006e08:	e1a00003 	mov	r0, r3
30006e0c:	e24bd004 	sub	sp, fp, #4
30006e10:	e8bd4800 	pop	{fp, lr}
30006e14:	e12fff1e 	bx	lr
30006e18:	3000b5c8 	.word	0x3000b5c8
30006e1c:	3000aca1 	.word	0x3000aca1
30006e20:	3000aca0 	.word	0x3000aca0

30006e24 <OSTaskCreateExt>:
* 移植要点:
* - 如果启用堆栈检查，需要确保堆栈底 (pbos) 和堆栈大小在 Mini2440 内存映射中是有效的。
*********************************************************************************************************
*/
INT8U  OSTaskCreateExt (void (*task)(void *pd), void *pdata1, OS_STK *ptos, INT8U prio, INT16U id, OS_STK *pbos, INT32U stk_size, void *pext, INT16U opt)
{
30006e24:	e52db004 	push	{fp}		@ (str fp, [sp, #-4]!)
30006e28:	e28db000 	add	fp, sp, #0
30006e2c:	e24dd014 	sub	sp, sp, #20
30006e30:	e50b0008 	str	r0, [fp, #-8]
30006e34:	e50b100c 	str	r1, [fp, #-12]
30006e38:	e50b2010 	str	r2, [fp, #-16]
30006e3c:	e54b3011 	strb	r3, [fp, #-17]	@ 0xffffffef
    //不实现
    return (OS_NO_ERR);
30006e40:	e3a03000 	mov	r3, #0
}
30006e44:	e1a00003 	mov	r0, r3
30006e48:	e28bd000 	add	sp, fp, #0
30006e4c:	e49db004 	pop	{fp}		@ (ldr fp, [sp], #4)
30006e50:	e12fff1e 	bx	lr

30006e54 <OSTaskDel>:
* 移植要点:
* - 删除当前任务时，调用 OS_Dummy() 确保在开中断后、上下文切换前 CPU 有指令可执行（防止流水线问题，虽在 ARM 上较少见，但为了兼容性保留）。
*********************************************************************************************************
*/
INT8U  OSTaskDel (INT8U prio)
{
30006e54:	e92d4800 	push	{fp, lr}
30006e58:	e28db004 	add	fp, sp, #4
30006e5c:	e24dd018 	sub	sp, sp, #24
30006e60:	e1a03000 	mov	r3, r0
30006e64:	e54b3015 	strb	r3, [fp, #-21]	@ 0xffffffeb
    OS_CPU_SR       cpu_sr;
    OS_EVENT        *pevent;
    OS_FLAG_NODE    *pnode;
    OS_TCB          *ptcb;
    
    if (OSIntNesting > 0) {    
30006e68:	e59f3374 	ldr	r3, [pc, #884]	@ 300071e4 <OSTaskDel+0x390>
30006e6c:	e5d33000 	ldrb	r3, [r3]
30006e70:	e3530000 	cmp	r3, #0
30006e74:	0a000001 	beq	30006e80 <OSTaskDel+0x2c>
        return (OS_TASK_DEL_ISR);
30006e78:	e3a0303f 	mov	r3, #63	@ 0x3f
30006e7c:	ea0000d4 	b	300071d4 <OSTaskDel+0x380>
    }
    if (prio == OS_IDLE_PRIO) {                               
30006e80:	e55b3015 	ldrb	r3, [fp, #-21]	@ 0xffffffeb
30006e84:	e353003e 	cmp	r3, #62	@ 0x3e
30006e88:	1a000001 	bne	30006e94 <OSTaskDel+0x40>
        return (OS_TASK_DEL_IDLE);
30006e8c:	e3a0303d 	mov	r3, #61	@ 0x3d
30006e90:	ea0000cf 	b	300071d4 <OSTaskDel+0x380>
    }
    if (prio >= OS_LOWEST_PRIO && prio != OS_PRIO_SELF) {       
30006e94:	e55b3015 	ldrb	r3, [fp, #-21]	@ 0xffffffeb
30006e98:	e353003d 	cmp	r3, #61	@ 0x3d
30006e9c:	9a000004 	bls	30006eb4 <OSTaskDel+0x60>
30006ea0:	e55b3015 	ldrb	r3, [fp, #-21]	@ 0xffffffeb
30006ea4:	e35300ff 	cmp	r3, #255	@ 0xff
30006ea8:	0a000001 	beq	30006eb4 <OSTaskDel+0x60>
        return (OS_PRIO_INVALID);
30006eac:	e3a0302a 	mov	r3, #42	@ 0x2a
30006eb0:	ea0000c7 	b	300071d4 <OSTaskDel+0x380>
    }

    OS_ENTER_CRITICAL();
30006eb4:	ebffe540 	bl	300003bc <OS_CPU_SR_Save>
30006eb8:	e50b0008 	str	r0, [fp, #-8]
    if (prio == OS_PRIO_SELF) {                                
30006ebc:	e55b3015 	ldrb	r3, [fp, #-21]	@ 0xffffffeb
30006ec0:	e35300ff 	cmp	r3, #255	@ 0xff
30006ec4:	1a000003 	bne	30006ed8 <OSTaskDel+0x84>
        prio = OSTCBCur->OSTCBPrio;                            
30006ec8:	e59f3318 	ldr	r3, [pc, #792]	@ 300071e8 <OSTaskDel+0x394>
30006ecc:	e5933000 	ldr	r3, [r3]
30006ed0:	e5d3301e 	ldrb	r3, [r3, #30]
30006ed4:	e54b3015 	strb	r3, [fp, #-21]	@ 0xffffffeb
    }
    ptcb = OSTCBPrioTbl[prio];
30006ed8:	e55b3015 	ldrb	r3, [fp, #-21]	@ 0xffffffeb
30006edc:	e59f2308 	ldr	r2, [pc, #776]	@ 300071ec <OSTaskDel+0x398>
30006ee0:	e7923103 	ldr	r3, [r2, r3, lsl #2]
30006ee4:	e50b300c 	str	r3, [fp, #-12]
    if (ptcb != (OS_TCB *)0) {                                  
30006ee8:	e51b300c 	ldr	r3, [fp, #-12]
30006eec:	e3530000 	cmp	r3, #0
30006ef0:	0a0000b4 	beq	300071c8 <OSTaskDel+0x374>
        if ((OSRdyTbl[ptcb->OSTCBY] &= ~ptcb->OSTCBBitX) == 0x00) { 
30006ef4:	e51b300c 	ldr	r3, [fp, #-12]
30006ef8:	e5d33021 	ldrb	r3, [r3, #33]	@ 0x21
30006efc:	e1a02003 	mov	r2, r3
30006f00:	e59f32e8 	ldr	r3, [pc, #744]	@ 300071f0 <OSTaskDel+0x39c>
30006f04:	e7d33002 	ldrb	r3, [r3, r2]
30006f08:	e1a03c03 	lsl	r3, r3, #24
30006f0c:	e1a02c43 	asr	r2, r3, #24
30006f10:	e51b300c 	ldr	r3, [fp, #-12]
30006f14:	e5d33022 	ldrb	r3, [r3, #34]	@ 0x22
30006f18:	e1a03c03 	lsl	r3, r3, #24
30006f1c:	e1a03c43 	asr	r3, r3, #24
30006f20:	e1e03003 	mvn	r3, r3
30006f24:	e1a03c03 	lsl	r3, r3, #24
30006f28:	e1a03c43 	asr	r3, r3, #24
30006f2c:	e0033002 	and	r3, r3, r2
30006f30:	e1a03c03 	lsl	r3, r3, #24
30006f34:	e1a02c43 	asr	r2, r3, #24
30006f38:	e51b300c 	ldr	r3, [fp, #-12]
30006f3c:	e5d33021 	ldrb	r3, [r3, #33]	@ 0x21
30006f40:	e20210ff 	and	r1, r2, #255	@ 0xff
30006f44:	e59f22a4 	ldr	r2, [pc, #676]	@ 300071f0 <OSTaskDel+0x39c>
30006f48:	e7c21003 	strb	r1, [r2, r3]
30006f4c:	e59f229c 	ldr	r2, [pc, #668]	@ 300071f0 <OSTaskDel+0x39c>
30006f50:	e7d23003 	ldrb	r3, [r2, r3]
30006f54:	e3530000 	cmp	r3, #0
30006f58:	1a000010 	bne	30006fa0 <OSTaskDel+0x14c>
            OSRdyGrp &= ~ptcb->OSTCBBitY;
30006f5c:	e51b300c 	ldr	r3, [fp, #-12]
30006f60:	e5d33023 	ldrb	r3, [r3, #35]	@ 0x23
30006f64:	e1a03c03 	lsl	r3, r3, #24
30006f68:	e1a03c43 	asr	r3, r3, #24
30006f6c:	e1e03003 	mvn	r3, r3
30006f70:	e1a03c03 	lsl	r3, r3, #24
30006f74:	e1a02c43 	asr	r2, r3, #24
30006f78:	e59f3274 	ldr	r3, [pc, #628]	@ 300071f4 <OSTaskDel+0x3a0>
30006f7c:	e5d33000 	ldrb	r3, [r3]
30006f80:	e1a03c03 	lsl	r3, r3, #24
30006f84:	e1a03c43 	asr	r3, r3, #24
30006f88:	e0033002 	and	r3, r3, r2
30006f8c:	e1a03c03 	lsl	r3, r3, #24
30006f90:	e1a03c43 	asr	r3, r3, #24
30006f94:	e20320ff 	and	r2, r3, #255	@ 0xff
30006f98:	e59f3254 	ldr	r3, [pc, #596]	@ 300071f4 <OSTaskDel+0x3a0>
30006f9c:	e5c32000 	strb	r2, [r3]
        }
        pevent = ptcb->OSTCBEventPtr;
30006fa0:	e51b300c 	ldr	r3, [fp, #-12]
30006fa4:	e593300c 	ldr	r3, [r3, #12]
30006fa8:	e50b3010 	str	r3, [fp, #-16]
        if (pevent != (OS_EVENT *)0) {                  
30006fac:	e51b3010 	ldr	r3, [fp, #-16]
30006fb0:	e3530000 	cmp	r3, #0
30006fb4:	0a00002d 	beq	30007070 <OSTaskDel+0x21c>
            if ((pevent->OSEventTbl[ptcb->OSTCBY] &= ~ptcb->OSTCBBitX) == 0) {
30006fb8:	e51b300c 	ldr	r3, [fp, #-12]
30006fbc:	e5d33021 	ldrb	r3, [r3, #33]	@ 0x21
30006fc0:	e1a02003 	mov	r2, r3
30006fc4:	e51b3010 	ldr	r3, [fp, #-16]
30006fc8:	e0833002 	add	r3, r3, r2
30006fcc:	e5d3300c 	ldrb	r3, [r3, #12]
30006fd0:	e1a03c03 	lsl	r3, r3, #24
30006fd4:	e1a02c43 	asr	r2, r3, #24
30006fd8:	e51b300c 	ldr	r3, [fp, #-12]
30006fdc:	e5d33022 	ldrb	r3, [r3, #34]	@ 0x22
30006fe0:	e1a03c03 	lsl	r3, r3, #24
30006fe4:	e1a03c43 	asr	r3, r3, #24
30006fe8:	e1e03003 	mvn	r3, r3
30006fec:	e1a03c03 	lsl	r3, r3, #24
30006ff0:	e1a03c43 	asr	r3, r3, #24
30006ff4:	e0033002 	and	r3, r3, r2
30006ff8:	e1a03c03 	lsl	r3, r3, #24
30006ffc:	e1a02c43 	asr	r2, r3, #24
30007000:	e51b300c 	ldr	r3, [fp, #-12]
30007004:	e5d33021 	ldrb	r3, [r3, #33]	@ 0x21
30007008:	e20210ff 	and	r1, r2, #255	@ 0xff
3000700c:	e51b2010 	ldr	r2, [fp, #-16]
30007010:	e0822003 	add	r2, r2, r3
30007014:	e5c2100c 	strb	r1, [r2, #12]
30007018:	e51b2010 	ldr	r2, [fp, #-16]
3000701c:	e0823003 	add	r3, r2, r3
30007020:	e5d3300c 	ldrb	r3, [r3, #12]
30007024:	e3530000 	cmp	r3, #0
30007028:	1a000010 	bne	30007070 <OSTaskDel+0x21c>
                pevent->OSEventGrp &= ~ptcb->OSTCBBitY;       
3000702c:	e51b3010 	ldr	r3, [fp, #-16]
30007030:	e5d33001 	ldrb	r3, [r3, #1]
30007034:	e1a03c03 	lsl	r3, r3, #24
30007038:	e1a02c43 	asr	r2, r3, #24
3000703c:	e51b300c 	ldr	r3, [fp, #-12]
30007040:	e5d33023 	ldrb	r3, [r3, #35]	@ 0x23
30007044:	e1a03c03 	lsl	r3, r3, #24
30007048:	e1a03c43 	asr	r3, r3, #24
3000704c:	e1e03003 	mvn	r3, r3
30007050:	e1a03c03 	lsl	r3, r3, #24
30007054:	e1a03c43 	asr	r3, r3, #24
30007058:	e0033002 	and	r3, r3, r2
3000705c:	e1a03c03 	lsl	r3, r3, #24
30007060:	e1a03c43 	asr	r3, r3, #24
30007064:	e20320ff 	and	r2, r3, #255	@ 0xff
30007068:	e51b3010 	ldr	r3, [fp, #-16]
3000706c:	e5c32001 	strb	r2, [r3, #1]
            }
        }
        pnode = ptcb->OSTCBFlagNode;
30007070:	e51b300c 	ldr	r3, [fp, #-12]
30007074:	e5933014 	ldr	r3, [r3, #20]
30007078:	e50b3014 	str	r3, [fp, #-20]	@ 0xffffffec
        if (pnode != (OS_FLAG_NODE *)0) {                    
3000707c:	e51b3014 	ldr	r3, [fp, #-20]	@ 0xffffffec
30007080:	e3530000 	cmp	r3, #0
30007084:	0a000001 	beq	30007090 <OSTaskDel+0x23c>
            OS_FlagUnlink(pnode);
30007088:	e51b0014 	ldr	r0, [fp, #-20]	@ 0xffffffec
3000708c:	ebfff382 	bl	30003e9c <OS_FlagUnlink>
        }
        ptcb->OSTCBDly  = 0;                               
30007090:	e51b300c 	ldr	r3, [fp, #-12]
30007094:	e3a02000 	mov	r2, #0
30007098:	e1c321bc 	strh	r2, [r3, #28]
        ptcb->OSTCBStat = OS_STAT_RDY;                          
3000709c:	e51b300c 	ldr	r3, [fp, #-12]
300070a0:	e3a02000 	mov	r2, #0
300070a4:	e5c3201f 	strb	r2, [r3, #31]
        if (OSLockNesting < 255) {
300070a8:	e59f3148 	ldr	r3, [pc, #328]	@ 300071f8 <OSTaskDel+0x3a4>
300070ac:	e5d33000 	ldrb	r3, [r3]
300070b0:	e35300ff 	cmp	r3, #255	@ 0xff
300070b4:	0a000005 	beq	300070d0 <OSTaskDel+0x27c>
            OSLockNesting++;
300070b8:	e59f3138 	ldr	r3, [pc, #312]	@ 300071f8 <OSTaskDel+0x3a4>
300070bc:	e5d33000 	ldrb	r3, [r3]
300070c0:	e2833001 	add	r3, r3, #1
300070c4:	e20320ff 	and	r2, r3, #255	@ 0xff
300070c8:	e59f3128 	ldr	r3, [pc, #296]	@ 300071f8 <OSTaskDel+0x3a4>
300070cc:	e5c32000 	strb	r2, [r3]
        }
        OS_EXIT_CRITICAL();                                    
300070d0:	e51b0008 	ldr	r0, [fp, #-8]
300070d4:	ebffe4bc 	bl	300003cc <OS_CPU_SR_Restore>
        OS_Dummy();                                             
300070d8:	ebffecab 	bl	3000238c <OS_Dummy>
        OS_ENTER_CRITICAL();                                    
300070dc:	ebffe4b6 	bl	300003bc <OS_CPU_SR_Save>
300070e0:	e50b0008 	str	r0, [fp, #-8]
        if (OSLockNesting > 0) {
300070e4:	e59f310c 	ldr	r3, [pc, #268]	@ 300071f8 <OSTaskDel+0x3a4>
300070e8:	e5d33000 	ldrb	r3, [r3]
300070ec:	e3530000 	cmp	r3, #0
300070f0:	0a000005 	beq	3000710c <OSTaskDel+0x2b8>
            OSLockNesting--;
300070f4:	e59f30fc 	ldr	r3, [pc, #252]	@ 300071f8 <OSTaskDel+0x3a4>
300070f8:	e5d33000 	ldrb	r3, [r3]
300070fc:	e2433001 	sub	r3, r3, #1
30007100:	e20320ff 	and	r2, r3, #255	@ 0xff
30007104:	e59f30ec 	ldr	r3, [pc, #236]	@ 300071f8 <OSTaskDel+0x3a4>
30007108:	e5c32000 	strb	r2, [r3]
        }
        OSTaskDelHook(ptcb);
3000710c:	e51b000c 	ldr	r0, [fp, #-12]
30007110:	ebffe74a 	bl	30000e40 <OSTaskDelHook>
        OSTaskCtr--;                                           
30007114:	e59f30e0 	ldr	r3, [pc, #224]	@ 300071fc <OSTaskDel+0x3a8>
30007118:	e5d33000 	ldrb	r3, [r3]
3000711c:	e2433001 	sub	r3, r3, #1
30007120:	e20320ff 	and	r2, r3, #255	@ 0xff
30007124:	e59f30d0 	ldr	r3, [pc, #208]	@ 300071fc <OSTaskDel+0x3a8>
30007128:	e5c32000 	strb	r2, [r3]
        OSTCBPrioTbl[prio] = (OS_TCB *)0;                       
3000712c:	e55b3015 	ldrb	r3, [fp, #-21]	@ 0xffffffeb
30007130:	e59f20b4 	ldr	r2, [pc, #180]	@ 300071ec <OSTaskDel+0x398>
30007134:	e3a01000 	mov	r1, #0
30007138:	e7821103 	str	r1, [r2, r3, lsl #2]
        if (ptcb->OSTCBPrev == (OS_TCB *)0) {                   
3000713c:	e51b300c 	ldr	r3, [fp, #-12]
30007140:	e5933004 	ldr	r3, [r3, #4]
30007144:	e3530000 	cmp	r3, #0
30007148:	1a000008 	bne	30007170 <OSTaskDel+0x31c>
            ptcb->OSTCBNext->OSTCBPrev = (OS_TCB *)0;
3000714c:	e51b300c 	ldr	r3, [fp, #-12]
30007150:	e5933008 	ldr	r3, [r3, #8]
30007154:	e3a02000 	mov	r2, #0
30007158:	e5832004 	str	r2, [r3, #4]
            OSTCBList                  = ptcb->OSTCBNext;
3000715c:	e51b300c 	ldr	r3, [fp, #-12]
30007160:	e5933008 	ldr	r3, [r3, #8]
30007164:	e59f2094 	ldr	r2, [pc, #148]	@ 30007200 <OSTaskDel+0x3ac>
30007168:	e5823000 	str	r3, [r2]
3000716c:	ea000009 	b	30007198 <OSTaskDel+0x344>
        } 
        else {
            ptcb->OSTCBPrev->OSTCBNext = ptcb->OSTCBNext;
30007170:	e51b300c 	ldr	r3, [fp, #-12]
30007174:	e5933004 	ldr	r3, [r3, #4]
30007178:	e51b200c 	ldr	r2, [fp, #-12]
3000717c:	e5922008 	ldr	r2, [r2, #8]
30007180:	e5832008 	str	r2, [r3, #8]
            ptcb->OSTCBNext->OSTCBPrev = ptcb->OSTCBPrev;
30007184:	e51b300c 	ldr	r3, [fp, #-12]
30007188:	e5933008 	ldr	r3, [r3, #8]
3000718c:	e51b200c 	ldr	r2, [fp, #-12]
30007190:	e5922004 	ldr	r2, [r2, #4]
30007194:	e5832004 	str	r2, [r3, #4]
        }
        ptcb->OSTCBNext = OSTCBFreeList;                        
30007198:	e59f3064 	ldr	r3, [pc, #100]	@ 30007204 <OSTaskDel+0x3b0>
3000719c:	e5932000 	ldr	r2, [r3]
300071a0:	e51b300c 	ldr	r3, [fp, #-12]
300071a4:	e5832008 	str	r2, [r3, #8]
        OSTCBFreeList   = ptcb;
300071a8:	e59f2054 	ldr	r2, [pc, #84]	@ 30007204 <OSTaskDel+0x3b0>
300071ac:	e51b300c 	ldr	r3, [fp, #-12]
300071b0:	e5823000 	str	r3, [r2]
        OS_EXIT_CRITICAL();
300071b4:	e51b0008 	ldr	r0, [fp, #-8]
300071b8:	ebffe483 	bl	300003cc <OS_CPU_SR_Restore>
        OS_Sched();
300071bc:	ebffedde 	bl	3000293c <OS_Sched>
        return (OS_NO_ERR);
300071c0:	e3a03000 	mov	r3, #0
300071c4:	ea000002 	b	300071d4 <OSTaskDel+0x380>
    }
    OS_EXIT_CRITICAL();
300071c8:	e51b0008 	ldr	r0, [fp, #-8]
300071cc:	ebffe47e 	bl	300003cc <OS_CPU_SR_Restore>
    return (OS_TASK_DEL_ERR);
300071d0:	e3a0303c 	mov	r3, #60	@ 0x3c
}
300071d4:	e1a00003 	mov	r0, r3
300071d8:	e24bd004 	sub	sp, fp, #4
300071dc:	e8bd4800 	pop	{fp, lr}
300071e0:	e12fff1e 	bx	lr
300071e4:	3000ac90 	.word	0x3000ac90
300071e8:	3000b5b8 	.word	0x3000b5b8
300071ec:	3000b5c8 	.word	0x3000b5c8
300071f0:	3000ac98 	.word	0x3000ac98
300071f4:	3000ac95 	.word	0x3000ac95
300071f8:	3000ac92 	.word	0x3000ac92
300071fc:	3000aca1 	.word	0x3000aca1
30007200:	3000b5c4 	.word	0x3000b5c4
30007204:	3000b5bc 	.word	0x3000b5bc

30007208 <OSTaskDelReq>:
* 移植要点:
* - 纯逻辑操作。
*********************************************************************************************************
*/
INT8U  OSTaskDelReq (INT8U prio)
{
30007208:	e92d4800 	push	{fp, lr}
3000720c:	e28db004 	add	fp, sp, #4
30007210:	e24dd018 	sub	sp, sp, #24
30007214:	e1a03000 	mov	r3, r0
30007218:	e54b3015 	strb	r3, [fp, #-21]	@ 0xffffffeb
    OS_CPU_SR  cpu_sr;
    BOOLEAN    stat;
    INT8U      err;
    OS_TCB    *ptcb;

    if (prio == OS_IDLE_PRIO) {                                 
3000721c:	e55b3015 	ldrb	r3, [fp, #-21]	@ 0xffffffeb
30007220:	e353003e 	cmp	r3, #62	@ 0x3e
30007224:	1a000001 	bne	30007230 <OSTaskDelReq+0x28>
        return (OS_TASK_DEL_IDLE);
30007228:	e3a0303d 	mov	r3, #61	@ 0x3d
3000722c:	ea000028 	b	300072d4 <OSTaskDelReq+0xcc>
    }
    if (prio >= OS_LOWEST_PRIO && prio != OS_PRIO_SELF) {   
30007230:	e55b3015 	ldrb	r3, [fp, #-21]	@ 0xffffffeb
30007234:	e353003d 	cmp	r3, #61	@ 0x3d
30007238:	9a000004 	bls	30007250 <OSTaskDelReq+0x48>
3000723c:	e55b3015 	ldrb	r3, [fp, #-21]	@ 0xffffffeb
30007240:	e35300ff 	cmp	r3, #255	@ 0xff
30007244:	0a000001 	beq	30007250 <OSTaskDelReq+0x48>
        return (OS_PRIO_INVALID);
30007248:	e3a0302a 	mov	r3, #42	@ 0x2a
3000724c:	ea000020 	b	300072d4 <OSTaskDelReq+0xcc>
    }
    if (prio == OS_PRIO_SELF) {                               
30007250:	e55b3015 	ldrb	r3, [fp, #-21]	@ 0xffffffeb
30007254:	e35300ff 	cmp	r3, #255	@ 0xff
30007258:	1a000009 	bne	30007284 <OSTaskDelReq+0x7c>
        OS_ENTER_CRITICAL();                           
3000725c:	ebffe456 	bl	300003bc <OS_CPU_SR_Save>
30007260:	e50b000c 	str	r0, [fp, #-12]
        stat = OSTCBCur->OSTCBDelReq;                         
30007264:	e59f3078 	ldr	r3, [pc, #120]	@ 300072e4 <OSTaskDelReq+0xdc>
30007268:	e5933000 	ldr	r3, [r3]
3000726c:	e5d33024 	ldrb	r3, [r3, #36]	@ 0x24
30007270:	e54b3011 	strb	r3, [fp, #-17]	@ 0xffffffef
        OS_EXIT_CRITICAL();
30007274:	e51b000c 	ldr	r0, [fp, #-12]
30007278:	ebffe453 	bl	300003cc <OS_CPU_SR_Restore>
        return (stat);
3000727c:	e55b3011 	ldrb	r3, [fp, #-17]	@ 0xffffffef
30007280:	ea000013 	b	300072d4 <OSTaskDelReq+0xcc>
    }
    OS_ENTER_CRITICAL();
30007284:	ebffe44c 	bl	300003bc <OS_CPU_SR_Save>
30007288:	e50b000c 	str	r0, [fp, #-12]
    ptcb = OSTCBPrioTbl[prio];
3000728c:	e55b3015 	ldrb	r3, [fp, #-21]	@ 0xffffffeb
30007290:	e59f2050 	ldr	r2, [pc, #80]	@ 300072e8 <OSTaskDelReq+0xe0>
30007294:	e7923103 	ldr	r3, [r2, r3, lsl #2]
30007298:	e50b3010 	str	r3, [fp, #-16]
    if (ptcb != (OS_TCB *)0) {                                
3000729c:	e51b3010 	ldr	r3, [fp, #-16]
300072a0:	e3530000 	cmp	r3, #0
300072a4:	0a000005 	beq	300072c0 <OSTaskDelReq+0xb8>
        ptcb->OSTCBDelReq = OS_TASK_DEL_REQ;                    
300072a8:	e51b3010 	ldr	r3, [fp, #-16]
300072ac:	e3a0203e 	mov	r2, #62	@ 0x3e
300072b0:	e5c32024 	strb	r2, [r3, #36]	@ 0x24
        err = OS_NO_ERR;
300072b4:	e3a03000 	mov	r3, #0
300072b8:	e54b3005 	strb	r3, [fp, #-5]
300072bc:	ea000001 	b	300072c8 <OSTaskDelReq+0xc0>
    } 
    else {
        err = OS_TASK_NOT_EXIST;                 
300072c0:	e3a0300b 	mov	r3, #11
300072c4:	e54b3005 	strb	r3, [fp, #-5]
    }
    OS_EXIT_CRITICAL();
300072c8:	e51b000c 	ldr	r0, [fp, #-12]
300072cc:	ebffe43e 	bl	300003cc <OS_CPU_SR_Restore>
    return (err);
300072d0:	e55b3005 	ldrb	r3, [fp, #-5]
}
300072d4:	e1a00003 	mov	r0, r3
300072d8:	e24bd004 	sub	sp, fp, #4
300072dc:	e8bd4800 	pop	{fp, lr}
300072e0:	e12fff1e 	bx	lr
300072e4:	3000b5b8 	.word	0x3000b5b8
300072e8:	3000b5c8 	.word	0x3000b5c8

300072ec <OSTaskResume>:
* 移植要点:
* - 纯逻辑操作。
*********************************************************************************************************
*/
INT8U  OSTaskResume (INT8U prio)
{
300072ec:	e92d4800 	push	{fp, lr}
300072f0:	e28db004 	add	fp, sp, #4
300072f4:	e24dd010 	sub	sp, sp, #16
300072f8:	e1a03000 	mov	r3, r0
300072fc:	e54b300d 	strb	r3, [fp, #-13]
    // 在此输入代码
    OS_CPU_SR cpu_sr;
    OS_TCB *ptcb;
    if(prio >= OS_LOWEST_PRIO){
30007300:	e55b300d 	ldrb	r3, [fp, #-13]
30007304:	e353003d 	cmp	r3, #61	@ 0x3d
30007308:	9a000001 	bls	30007314 <OSTaskResume+0x28>
        return (OS_PRIO_INVALID);
3000730c:	e3a0302a 	mov	r3, #42	@ 0x2a
30007310:	ea00003f 	b	30007414 <OSTaskResume+0x128>
    }
    OS_ENTER_CRITICAL();
30007314:	ebffe428 	bl	300003bc <OS_CPU_SR_Save>
30007318:	e50b0008 	str	r0, [fp, #-8]
    ptcb = OSTCBPrioTbl[prio];
3000731c:	e55b300d 	ldrb	r3, [fp, #-13]
30007320:	e59f20fc 	ldr	r2, [pc, #252]	@ 30007424 <OSTaskResume+0x138>
30007324:	e7923103 	ldr	r3, [r2, r3, lsl #2]
30007328:	e50b300c 	str	r3, [fp, #-12]
    if(ptcb == (OS_TCB *)0){
3000732c:	e51b300c 	ldr	r3, [fp, #-12]
30007330:	e3530000 	cmp	r3, #0
30007334:	1a000003 	bne	30007348 <OSTaskResume+0x5c>
        OS_EXIT_CRITICAL();
30007338:	e51b0008 	ldr	r0, [fp, #-8]
3000733c:	ebffe422 	bl	300003cc <OS_CPU_SR_Restore>
        return (OS_TASK_RESUME_PRIO);
30007340:	e3a03064 	mov	r3, #100	@ 0x64
30007344:	ea000032 	b	30007414 <OSTaskResume+0x128>
    }
    if((ptcb->OSTCBStat & OS_STAT_SUSPEND) != OS_STAT_RDY){
30007348:	e51b300c 	ldr	r3, [fp, #-12]
3000734c:	e5d3301f 	ldrb	r3, [r3, #31]
30007350:	e2033008 	and	r3, r3, #8
30007354:	e3530000 	cmp	r3, #0
30007358:	0a00002a 	beq	30007408 <OSTaskResume+0x11c>
        if(((ptcb->OSTCBStat &= ~OS_STAT_SUSPEND) == OS_STAT_RDY) && (ptcb->OSTCBDly == 0)){
3000735c:	e51b300c 	ldr	r3, [fp, #-12]
30007360:	e5d3301f 	ldrb	r3, [r3, #31]
30007364:	e3c33008 	bic	r3, r3, #8
30007368:	e20320ff 	and	r2, r3, #255	@ 0xff
3000736c:	e51b300c 	ldr	r3, [fp, #-12]
30007370:	e5c3201f 	strb	r2, [r3, #31]
30007374:	e51b300c 	ldr	r3, [fp, #-12]
30007378:	e5d3301f 	ldrb	r3, [r3, #31]
3000737c:	e3530000 	cmp	r3, #0
30007380:	1a00001c 	bne	300073f8 <OSTaskResume+0x10c>
30007384:	e51b300c 	ldr	r3, [fp, #-12]
30007388:	e1d331bc 	ldrh	r3, [r3, #28]
3000738c:	e3530000 	cmp	r3, #0
30007390:	1a000018 	bne	300073f8 <OSTaskResume+0x10c>
            OSRdyGrp |= ptcb->OSTCBBitY;
30007394:	e51b300c 	ldr	r3, [fp, #-12]
30007398:	e5d32023 	ldrb	r2, [r3, #35]	@ 0x23
3000739c:	e59f3084 	ldr	r3, [pc, #132]	@ 30007428 <OSTaskResume+0x13c>
300073a0:	e5d33000 	ldrb	r3, [r3]
300073a4:	e1823003 	orr	r3, r2, r3
300073a8:	e20320ff 	and	r2, r3, #255	@ 0xff
300073ac:	e59f3074 	ldr	r3, [pc, #116]	@ 30007428 <OSTaskResume+0x13c>
300073b0:	e5c32000 	strb	r2, [r3]
            OSRdyTbl[ptcb->OSTCBY] |= ptcb->OSTCBBitX;
300073b4:	e51b300c 	ldr	r3, [fp, #-12]
300073b8:	e5d33021 	ldrb	r3, [r3, #33]	@ 0x21
300073bc:	e1a02003 	mov	r2, r3
300073c0:	e59f3064 	ldr	r3, [pc, #100]	@ 3000742c <OSTaskResume+0x140>
300073c4:	e7d32002 	ldrb	r2, [r3, r2]
300073c8:	e51b300c 	ldr	r3, [fp, #-12]
300073cc:	e5d33022 	ldrb	r3, [r3, #34]	@ 0x22
300073d0:	e51b100c 	ldr	r1, [fp, #-12]
300073d4:	e5d11021 	ldrb	r1, [r1, #33]	@ 0x21
300073d8:	e1823003 	orr	r3, r2, r3
300073dc:	e20320ff 	and	r2, r3, #255	@ 0xff
300073e0:	e59f3044 	ldr	r3, [pc, #68]	@ 3000742c <OSTaskResume+0x140>
300073e4:	e7c32001 	strb	r2, [r3, r1]
            OS_EXIT_CRITICAL();
300073e8:	e51b0008 	ldr	r0, [fp, #-8]
300073ec:	ebffe3f6 	bl	300003cc <OS_CPU_SR_Restore>
            OS_Sched();
300073f0:	ebffed51 	bl	3000293c <OS_Sched>
300073f4:	ea000001 	b	30007400 <OSTaskResume+0x114>
        }
        else{
            OS_EXIT_CRITICAL();
300073f8:	e51b0008 	ldr	r0, [fp, #-8]
300073fc:	ebffe3f2 	bl	300003cc <OS_CPU_SR_Restore>
        }
        return(OS_NO_ERR);
30007400:	e3a03000 	mov	r3, #0
30007404:	ea000002 	b	30007414 <OSTaskResume+0x128>
    }
    OS_EXIT_CRITICAL();
30007408:	e51b0008 	ldr	r0, [fp, #-8]
3000740c:	ebffe3ee 	bl	300003cc <OS_CPU_SR_Restore>
    return (OS_TASK_NOT_SUSPENDED);
30007410:	e3a03065 	mov	r3, #101	@ 0x65
}
30007414:	e1a00003 	mov	r0, r3
30007418:	e24bd004 	sub	sp, fp, #4
3000741c:	e8bd4800 	pop	{fp, lr}
30007420:	e12fff1e 	bx	lr
30007424:	3000b5c8 	.word	0x3000b5c8
30007428:	3000ac95 	.word	0x3000ac95
3000742c:	3000ac98 	.word	0x3000ac98

30007430 <OSTaskStkChk>:
* 移植要点:
* - 依赖于堆栈增长方向 (OS_STK_GROWTH)。在 Mini2440 (ARM) 上，OS_STK_GROWTH 为 1，扫描需适应从低地址向高地址检查空闲区域。
*********************************************************************************************************
*/
INT8U  OSTaskStkChk (INT8U prio, OS_STK_DATA *p_data)
{
30007430:	e52db004 	push	{fp}		@ (str fp, [sp, #-4]!)
30007434:	e28db000 	add	fp, sp, #0
30007438:	e24dd00c 	sub	sp, sp, #12
3000743c:	e1a03000 	mov	r3, r0
30007440:	e50b100c 	str	r1, [fp, #-12]
30007444:	e54b3005 	strb	r3, [fp, #-5]
    // 不实现
    return (OS_NO_ERR);
30007448:	e3a03000 	mov	r3, #0
}
3000744c:	e1a00003 	mov	r0, r3
30007450:	e28bd000 	add	sp, fp, #0
30007454:	e49db004 	pop	{fp}		@ (ldr fp, [sp], #4)
30007458:	e12fff1e 	bx	lr

3000745c <OSTaskSuspend>:
* 移植要点:
* - 纯逻辑操作。
*********************************************************************************************************
*/
INT8U  OSTaskSuspend (INT8U prio)
{
3000745c:	e92d4800 	push	{fp, lr}
30007460:	e28db004 	add	fp, sp, #4
30007464:	e24dd018 	sub	sp, sp, #24
30007468:	e1a03000 	mov	r3, r0
3000746c:	e54b3015 	strb	r3, [fp, #-21]	@ 0xffffffeb
    OS_CPU_SR cpu_sr;
    BOOLEAN self;
    OS_TCB *ptcb;

    if(prio == OS_IDLE_PRIO){
30007470:	e55b3015 	ldrb	r3, [fp, #-21]	@ 0xffffffeb
30007474:	e353003e 	cmp	r3, #62	@ 0x3e
30007478:	1a000001 	bne	30007484 <OSTaskSuspend+0x28>
        return (OS_TASK_SUSPEND_IDLE);
3000747c:	e3a0305b 	mov	r3, #91	@ 0x5b
30007480:	ea000061 	b	3000760c <OSTaskSuspend+0x1b0>
    }
    if(prio >= OS_LOWEST_PRIO && prio != OS_PRIO_SELF){
30007484:	e55b3015 	ldrb	r3, [fp, #-21]	@ 0xffffffeb
30007488:	e353003d 	cmp	r3, #61	@ 0x3d
3000748c:	9a000004 	bls	300074a4 <OSTaskSuspend+0x48>
30007490:	e55b3015 	ldrb	r3, [fp, #-21]	@ 0xffffffeb
30007494:	e35300ff 	cmp	r3, #255	@ 0xff
30007498:	0a000001 	beq	300074a4 <OSTaskSuspend+0x48>
        return (OS_PRIO_INVALID);
3000749c:	e3a0302a 	mov	r3, #42	@ 0x2a
300074a0:	ea000059 	b	3000760c <OSTaskSuspend+0x1b0>
    }
    OS_ENTER_CRITICAL();
300074a4:	ebffe3c4 	bl	300003bc <OS_CPU_SR_Save>
300074a8:	e50b000c 	str	r0, [fp, #-12]
    if(prio == OS_PRIO_SELF){
300074ac:	e55b3015 	ldrb	r3, [fp, #-21]	@ 0xffffffeb
300074b0:	e35300ff 	cmp	r3, #255	@ 0xff
300074b4:	1a000006 	bne	300074d4 <OSTaskSuspend+0x78>
        prio = OSTCBCur->OSTCBPrio;
300074b8:	e59f315c 	ldr	r3, [pc, #348]	@ 3000761c <OSTaskSuspend+0x1c0>
300074bc:	e5933000 	ldr	r3, [r3]
300074c0:	e5d3301e 	ldrb	r3, [r3, #30]
300074c4:	e54b3015 	strb	r3, [fp, #-21]	@ 0xffffffeb
        self = TRUE;
300074c8:	e3a03001 	mov	r3, #1
300074cc:	e54b3005 	strb	r3, [fp, #-5]
300074d0:	ea00000a 	b	30007500 <OSTaskSuspend+0xa4>
    }
    else if(prio == OSTCBCur->OSTCBPrio){
300074d4:	e59f3140 	ldr	r3, [pc, #320]	@ 3000761c <OSTaskSuspend+0x1c0>
300074d8:	e5933000 	ldr	r3, [r3]
300074dc:	e5d3301e 	ldrb	r3, [r3, #30]
300074e0:	e55b2015 	ldrb	r2, [fp, #-21]	@ 0xffffffeb
300074e4:	e1520003 	cmp	r2, r3
300074e8:	1a000002 	bne	300074f8 <OSTaskSuspend+0x9c>
        self = TRUE;
300074ec:	e3a03001 	mov	r3, #1
300074f0:	e54b3005 	strb	r3, [fp, #-5]
300074f4:	ea000001 	b	30007500 <OSTaskSuspend+0xa4>
    }
    else{
        self = TRUE;
300074f8:	e3a03001 	mov	r3, #1
300074fc:	e54b3005 	strb	r3, [fp, #-5]
    }
    ptcb = OSTCBPrioTbl[prio];
30007500:	e55b3015 	ldrb	r3, [fp, #-21]	@ 0xffffffeb
30007504:	e59f2114 	ldr	r2, [pc, #276]	@ 30007620 <OSTaskSuspend+0x1c4>
30007508:	e7923103 	ldr	r3, [r2, r3, lsl #2]
3000750c:	e50b3010 	str	r3, [fp, #-16]
    if(ptcb == (OS_TCB *)0){
30007510:	e51b3010 	ldr	r3, [fp, #-16]
30007514:	e3530000 	cmp	r3, #0
30007518:	1a000003 	bne	3000752c <OSTaskSuspend+0xd0>
        OS_EXIT_CRITICAL();
3000751c:	e51b000c 	ldr	r0, [fp, #-12]
30007520:	ebffe3a9 	bl	300003cc <OS_CPU_SR_Restore>
        return (OS_TASK_SUSPEND_PRIO);
30007524:	e3a0305a 	mov	r3, #90	@ 0x5a
30007528:	ea000037 	b	3000760c <OSTaskSuspend+0x1b0>
    }
    if((OSRdyTbl[ptcb->OSTCBY] &= ~ptcb->OSTCBBitX) == 0x00){
3000752c:	e51b3010 	ldr	r3, [fp, #-16]
30007530:	e5d33021 	ldrb	r3, [r3, #33]	@ 0x21
30007534:	e1a02003 	mov	r2, r3
30007538:	e59f30e4 	ldr	r3, [pc, #228]	@ 30007624 <OSTaskSuspend+0x1c8>
3000753c:	e7d33002 	ldrb	r3, [r3, r2]
30007540:	e1a03c03 	lsl	r3, r3, #24
30007544:	e1a02c43 	asr	r2, r3, #24
30007548:	e51b3010 	ldr	r3, [fp, #-16]
3000754c:	e5d33022 	ldrb	r3, [r3, #34]	@ 0x22
30007550:	e1a03c03 	lsl	r3, r3, #24
30007554:	e1a03c43 	asr	r3, r3, #24
30007558:	e1e03003 	mvn	r3, r3
3000755c:	e1a03c03 	lsl	r3, r3, #24
30007560:	e1a03c43 	asr	r3, r3, #24
30007564:	e0033002 	and	r3, r3, r2
30007568:	e1a03c03 	lsl	r3, r3, #24
3000756c:	e1a02c43 	asr	r2, r3, #24
30007570:	e51b3010 	ldr	r3, [fp, #-16]
30007574:	e5d33021 	ldrb	r3, [r3, #33]	@ 0x21
30007578:	e20210ff 	and	r1, r2, #255	@ 0xff
3000757c:	e59f20a0 	ldr	r2, [pc, #160]	@ 30007624 <OSTaskSuspend+0x1c8>
30007580:	e7c21003 	strb	r1, [r2, r3]
30007584:	e59f2098 	ldr	r2, [pc, #152]	@ 30007624 <OSTaskSuspend+0x1c8>
30007588:	e7d23003 	ldrb	r3, [r2, r3]
3000758c:	e3530000 	cmp	r3, #0
30007590:	1a000010 	bne	300075d8 <OSTaskSuspend+0x17c>
        OSRdyGrp &= ~ptcb->OSTCBBitY;
30007594:	e51b3010 	ldr	r3, [fp, #-16]
30007598:	e5d33023 	ldrb	r3, [r3, #35]	@ 0x23
3000759c:	e1a03c03 	lsl	r3, r3, #24
300075a0:	e1a03c43 	asr	r3, r3, #24
300075a4:	e1e03003 	mvn	r3, r3
300075a8:	e1a03c03 	lsl	r3, r3, #24
300075ac:	e1a02c43 	asr	r2, r3, #24
300075b0:	e59f3070 	ldr	r3, [pc, #112]	@ 30007628 <OSTaskSuspend+0x1cc>
300075b4:	e5d33000 	ldrb	r3, [r3]
300075b8:	e1a03c03 	lsl	r3, r3, #24
300075bc:	e1a03c43 	asr	r3, r3, #24
300075c0:	e0033002 	and	r3, r3, r2
300075c4:	e1a03c03 	lsl	r3, r3, #24
300075c8:	e1a03c43 	asr	r3, r3, #24
300075cc:	e20320ff 	and	r2, r3, #255	@ 0xff
300075d0:	e59f3050 	ldr	r3, [pc, #80]	@ 30007628 <OSTaskSuspend+0x1cc>
300075d4:	e5c32000 	strb	r2, [r3]
    }
    ptcb->OSTCBStat |= OS_STAT_SUSPEND;
300075d8:	e51b3010 	ldr	r3, [fp, #-16]
300075dc:	e5d3301f 	ldrb	r3, [r3, #31]
300075e0:	e3833008 	orr	r3, r3, #8
300075e4:	e20320ff 	and	r2, r3, #255	@ 0xff
300075e8:	e51b3010 	ldr	r3, [fp, #-16]
300075ec:	e5c3201f 	strb	r2, [r3, #31]
    OS_EXIT_CRITICAL();
300075f0:	e51b000c 	ldr	r0, [fp, #-12]
300075f4:	ebffe374 	bl	300003cc <OS_CPU_SR_Restore>
    if(self == TRUE){
300075f8:	e55b3005 	ldrb	r3, [fp, #-5]
300075fc:	e3530001 	cmp	r3, #1
30007600:	1a000000 	bne	30007608 <OSTaskSuspend+0x1ac>
        OS_Sched();
30007604:	ebffeccc 	bl	3000293c <OS_Sched>
    }
    return (OS_NO_ERR);
30007608:	e3a03000 	mov	r3, #0
}
3000760c:	e1a00003 	mov	r0, r3
30007610:	e24bd004 	sub	sp, fp, #4
30007614:	e8bd4800 	pop	{fp, lr}
30007618:	e12fff1e 	bx	lr
3000761c:	3000b5b8 	.word	0x3000b5b8
30007620:	3000b5c8 	.word	0x3000b5c8
30007624:	3000ac98 	.word	0x3000ac98
30007628:	3000ac95 	.word	0x3000ac95

3000762c <OSTaskQuery>:
* 移植要点:
* - 涉及内存拷贝，注意结构体对齐。
*********************************************************************************************************
*/
INT8U  OSTaskQuery (INT8U prio, OS_TCB *pdata)
{
3000762c:	e92d4800 	push	{fp, lr}
30007630:	e28db004 	add	fp, sp, #4
30007634:	e24dd010 	sub	sp, sp, #16
30007638:	e1a03000 	mov	r3, r0
3000763c:	e50b1014 	str	r1, [fp, #-20]	@ 0xffffffec
30007640:	e54b300d 	strb	r3, [fp, #-13]
    OS_CPU_SR  cpu_sr;
    OS_TCB    *ptcb;

    if (prio > OS_LOWEST_PRIO && prio != OS_PRIO_SELF) {   
30007644:	e55b300d 	ldrb	r3, [fp, #-13]
30007648:	e353003e 	cmp	r3, #62	@ 0x3e
3000764c:	9a000004 	bls	30007664 <OSTaskQuery+0x38>
30007650:	e55b300d 	ldrb	r3, [fp, #-13]
30007654:	e35300ff 	cmp	r3, #255	@ 0xff
30007658:	0a000001 	beq	30007664 <OSTaskQuery+0x38>
        return (OS_PRIO_INVALID);
3000765c:	e3a0302a 	mov	r3, #42	@ 0x2a
30007660:	ea000018 	b	300076c8 <OSTaskQuery+0x9c>
    }
    OS_ENTER_CRITICAL();
30007664:	ebffe354 	bl	300003bc <OS_CPU_SR_Save>
30007668:	e50b0008 	str	r0, [fp, #-8]
    if (prio == OS_PRIO_SELF) {                            
3000766c:	e55b300d 	ldrb	r3, [fp, #-13]
30007670:	e35300ff 	cmp	r3, #255	@ 0xff
30007674:	1a000003 	bne	30007688 <OSTaskQuery+0x5c>
        prio = OSTCBCur->OSTCBPrio;
30007678:	e59f3058 	ldr	r3, [pc, #88]	@ 300076d8 <OSTaskQuery+0xac>
3000767c:	e5933000 	ldr	r3, [r3]
30007680:	e5d3301e 	ldrb	r3, [r3, #30]
30007684:	e54b300d 	strb	r3, [fp, #-13]
    }
    ptcb = OSTCBPrioTbl[prio];
30007688:	e55b300d 	ldrb	r3, [fp, #-13]
3000768c:	e59f2048 	ldr	r2, [pc, #72]	@ 300076dc <OSTaskQuery+0xb0>
30007690:	e7923103 	ldr	r3, [r2, r3, lsl #2]
30007694:	e50b300c 	str	r3, [fp, #-12]
    if (ptcb == (OS_TCB *)0) {                             
30007698:	e51b300c 	ldr	r3, [fp, #-12]
3000769c:	e3530000 	cmp	r3, #0
300076a0:	1a000003 	bne	300076b4 <OSTaskQuery+0x88>
        OS_EXIT_CRITICAL();
300076a4:	e51b0008 	ldr	r0, [fp, #-8]
300076a8:	ebffe347 	bl	300003cc <OS_CPU_SR_Restore>
        return (OS_PRIO_ERR);
300076ac:	e3a03029 	mov	r3, #41	@ 0x29
300076b0:	ea000004 	b	300076c8 <OSTaskQuery+0x9c>
    }
    memcpy(pdata, ptcb, sizeof(OS_TCB));                   
300076b4:	e3a02028 	mov	r2, #40	@ 0x28
300076b8:	e51b100c 	ldr	r1, [fp, #-12]
300076bc:	e51b0014 	ldr	r0, [fp, #-20]	@ 0xffffffec
300076c0:	eb00013e 	bl	30007bc0 <memcpy>
    return (OS_NO_ERR);
300076c4:	e3a03000 	mov	r3, #0
}
300076c8:	e1a00003 	mov	r0, r3
300076cc:	e24bd004 	sub	sp, fp, #4
300076d0:	e8bd4800 	pop	{fp, lr}
300076d4:	e12fff1e 	bx	lr
300076d8:	3000b5b8 	.word	0x3000b5b8
300076dc:	3000b5c8 	.word	0x3000b5c8

300076e0 <OSTimeDly>:
* 移植要点:
* - 纯逻辑操作。
*********************************************************************************************************
*/
void  OSTimeDly (INT16U ticks)
{
300076e0:	e92d4800 	push	{fp, lr}
300076e4:	e28db004 	add	fp, sp, #4
300076e8:	e24dd010 	sub	sp, sp, #16
300076ec:	e1a03000 	mov	r3, r0
300076f0:	e14b30be 	strh	r3, [fp, #-14]
    OS_CPU_SR cpu_sr;
    if(ticks > 0){
300076f4:	e15b30be 	ldrh	r3, [fp, #-14]
300076f8:	e3530000 	cmp	r3, #0
300076fc:	0a000037 	beq	300077e0 <OSTimeDly+0x100>
        OS_ENTER_CRITICAL();
30007700:	ebffe32d 	bl	300003bc <OS_CPU_SR_Save>
30007704:	e50b0008 	str	r0, [fp, #-8]
        if((OSRdyTbl[OSTCBCur->OSTCBY] &= ~(OSTCBCur->OSTCBBitX)) == 0){
30007708:	e59f30e0 	ldr	r3, [pc, #224]	@ 300077f0 <OSTimeDly+0x110>
3000770c:	e5933000 	ldr	r3, [r3]
30007710:	e5d33021 	ldrb	r3, [r3, #33]	@ 0x21
30007714:	e1a02003 	mov	r2, r3
30007718:	e59f30d4 	ldr	r3, [pc, #212]	@ 300077f4 <OSTimeDly+0x114>
3000771c:	e7d33002 	ldrb	r3, [r3, r2]
30007720:	e1a03c03 	lsl	r3, r3, #24
30007724:	e1a02c43 	asr	r2, r3, #24
30007728:	e59f30c0 	ldr	r3, [pc, #192]	@ 300077f0 <OSTimeDly+0x110>
3000772c:	e5933000 	ldr	r3, [r3]
30007730:	e5d33022 	ldrb	r3, [r3, #34]	@ 0x22
30007734:	e1a03c03 	lsl	r3, r3, #24
30007738:	e1a03c43 	asr	r3, r3, #24
3000773c:	e1e03003 	mvn	r3, r3
30007740:	e1a03c03 	lsl	r3, r3, #24
30007744:	e1a03c43 	asr	r3, r3, #24
30007748:	e0033002 	and	r3, r3, r2
3000774c:	e1a03c03 	lsl	r3, r3, #24
30007750:	e1a02c43 	asr	r2, r3, #24
30007754:	e59f3094 	ldr	r3, [pc, #148]	@ 300077f0 <OSTimeDly+0x110>
30007758:	e5933000 	ldr	r3, [r3]
3000775c:	e5d33021 	ldrb	r3, [r3, #33]	@ 0x21
30007760:	e20210ff 	and	r1, r2, #255	@ 0xff
30007764:	e59f2088 	ldr	r2, [pc, #136]	@ 300077f4 <OSTimeDly+0x114>
30007768:	e7c21003 	strb	r1, [r2, r3]
3000776c:	e59f2080 	ldr	r2, [pc, #128]	@ 300077f4 <OSTimeDly+0x114>
30007770:	e7d23003 	ldrb	r3, [r2, r3]
30007774:	e3530000 	cmp	r3, #0
30007778:	1a000011 	bne	300077c4 <OSTimeDly+0xe4>
            OSRdyGrp &= ~(OSTCBCur->OSTCBBitY);
3000777c:	e59f306c 	ldr	r3, [pc, #108]	@ 300077f0 <OSTimeDly+0x110>
30007780:	e5933000 	ldr	r3, [r3]
30007784:	e5d33023 	ldrb	r3, [r3, #35]	@ 0x23
30007788:	e1a03c03 	lsl	r3, r3, #24
3000778c:	e1a03c43 	asr	r3, r3, #24
30007790:	e1e03003 	mvn	r3, r3
30007794:	e1a03c03 	lsl	r3, r3, #24
30007798:	e1a02c43 	asr	r2, r3, #24
3000779c:	e59f3054 	ldr	r3, [pc, #84]	@ 300077f8 <OSTimeDly+0x118>
300077a0:	e5d33000 	ldrb	r3, [r3]
300077a4:	e1a03c03 	lsl	r3, r3, #24
300077a8:	e1a03c43 	asr	r3, r3, #24
300077ac:	e0033002 	and	r3, r3, r2
300077b0:	e1a03c03 	lsl	r3, r3, #24
300077b4:	e1a03c43 	asr	r3, r3, #24
300077b8:	e20320ff 	and	r2, r3, #255	@ 0xff
300077bc:	e59f3034 	ldr	r3, [pc, #52]	@ 300077f8 <OSTimeDly+0x118>
300077c0:	e5c32000 	strb	r2, [r3]
        }
        OSTCBCur->OSTCBDly = ticks;
300077c4:	e59f3024 	ldr	r3, [pc, #36]	@ 300077f0 <OSTimeDly+0x110>
300077c8:	e5933000 	ldr	r3, [r3]
300077cc:	e15b20be 	ldrh	r2, [fp, #-14]
300077d0:	e1c321bc 	strh	r2, [r3, #28]
        OS_EXIT_CRITICAL();
300077d4:	e51b0008 	ldr	r0, [fp, #-8]
300077d8:	ebffe2fb 	bl	300003cc <OS_CPU_SR_Restore>
        OS_Sched();
300077dc:	ebffec56 	bl	3000293c <OS_Sched>
    }
}
300077e0:	e1a00000 	nop			@ (mov r0, r0)
300077e4:	e24bd004 	sub	sp, fp, #4
300077e8:	e8bd4800 	pop	{fp, lr}
300077ec:	e12fff1e 	bx	lr
300077f0:	3000b5b8 	.word	0x3000b5b8
300077f4:	3000ac98 	.word	0x3000ac98
300077f8:	3000ac95 	.word	0x3000ac95

300077fc <OSTimeDlyHMSM>:
* 移植要点:
* - 计算涉及 32 位乘法和除法。Mini2440 (ARM9) 硬件支持乘法，但除法需软件库支持，可能会增加些许开销。
*********************************************************************************************************
*/
INT8U  OSTimeDlyHMSM (INT8U hours, INT8U minutes, INT8U seconds, INT16U milli)
{
300077fc:	e92d4800 	push	{fp, lr}
30007800:	e28db004 	add	fp, sp, #4
30007804:	e24dd010 	sub	sp, sp, #16
30007808:	e1a0c000 	mov	ip, r0
3000780c:	e1a00001 	mov	r0, r1
30007810:	e1a01002 	mov	r1, r2
30007814:	e1a02003 	mov	r2, r3
30007818:	e1a0300c 	mov	r3, ip
3000781c:	e54b300d 	strb	r3, [fp, #-13]
30007820:	e1a03000 	mov	r3, r0
30007824:	e54b300e 	strb	r3, [fp, #-14]
30007828:	e1a03001 	mov	r3, r1
3000782c:	e54b300f 	strb	r3, [fp, #-15]
30007830:	e1a03002 	mov	r3, r2
30007834:	e14b31b2 	strh	r3, [fp, #-18]	@ 0xffffffee
    // 在此输入代码
    INT32U ticks;
    INT16U loops;

    if (hours > 0 || minutes > 0 || seconds > 0 || milli > 0) {
30007838:	e55b300d 	ldrb	r3, [fp, #-13]
3000783c:	e3530000 	cmp	r3, #0
30007840:	1a000008 	bne	30007868 <OSTimeDlyHMSM+0x6c>
30007844:	e55b300e 	ldrb	r3, [fp, #-14]
30007848:	e3530000 	cmp	r3, #0
3000784c:	1a000005 	bne	30007868 <OSTimeDlyHMSM+0x6c>
30007850:	e55b300f 	ldrb	r3, [fp, #-15]
30007854:	e3530000 	cmp	r3, #0
30007858:	1a000002 	bne	30007868 <OSTimeDlyHMSM+0x6c>
3000785c:	e15b31b2 	ldrh	r3, [fp, #-18]	@ 0xffffffee
30007860:	e3530000 	cmp	r3, #0
30007864:	0a00004c 	beq	3000799c <OSTimeDlyHMSM+0x1a0>
        if (minutes > 59) {
30007868:	e55b300e 	ldrb	r3, [fp, #-14]
3000786c:	e353003b 	cmp	r3, #59	@ 0x3b
30007870:	9a000001 	bls	3000787c <OSTimeDlyHMSM+0x80>
            return (OS_TIME_INVALID_MINUTES);    // Validate arguments to be within range
30007874:	e3a03051 	mov	r3, #81	@ 0x51
30007878:	ea000048 	b	300079a0 <OSTimeDlyHMSM+0x1a4>
        }
        if (seconds > 59) {
3000787c:	e55b300f 	ldrb	r3, [fp, #-15]
30007880:	e353003b 	cmp	r3, #59	@ 0x3b
30007884:	9a000001 	bls	30007890 <OSTimeDlyHMSM+0x94>
            return (OS_TIME_INVALID_SECONDS);
30007888:	e3a03052 	mov	r3, #82	@ 0x52
3000788c:	ea000043 	b	300079a0 <OSTimeDlyHMSM+0x1a4>
        }
        if (milli > 999) {
30007890:	e15b31b2 	ldrh	r3, [fp, #-18]	@ 0xffffffee
30007894:	e3530ffa 	cmp	r3, #1000	@ 0x3e8
30007898:	3a000001 	bcc	300078a4 <OSTimeDlyHMSM+0xa8>
            return (OS_TIME_INVALID_MILLI);
3000789c:	e3a03053 	mov	r3, #83	@ 0x53
300078a0:	ea00003e 	b	300079a0 <OSTimeDlyHMSM+0x1a4>
        }
                                                // Compute the total number of clock ticks required..
                                                // .. (rounded to the nearest tick)
        ticks = ((INT32U)hours * 3600L + (INT32U)minutes * 60L + (INT32U)seconds) * OS_TICKS_PER_SEC
300078a4:	e55b200d 	ldrb	r2, [fp, #-13]
300078a8:	e1a03002 	mov	r3, r2
300078ac:	e1a03203 	lsl	r3, r3, #4
300078b0:	e0433002 	sub	r3, r3, r2
300078b4:	e1a02203 	lsl	r2, r3, #4
300078b8:	e0422003 	sub	r2, r2, r3
300078bc:	e1a03202 	lsl	r3, r2, #4
300078c0:	e1a02003 	mov	r2, r3
300078c4:	e1a01002 	mov	r1, r2
300078c8:	e55b200e 	ldrb	r2, [fp, #-14]
300078cc:	e1a03002 	mov	r3, r2
300078d0:	e1a03203 	lsl	r3, r3, #4
300078d4:	e0433002 	sub	r3, r3, r2
300078d8:	e1a03103 	lsl	r3, r3, #2
300078dc:	e0812003 	add	r2, r1, r3
300078e0:	e55b300f 	ldrb	r3, [fp, #-15]
300078e4:	e0822003 	add	r2, r2, r3
300078e8:	e1a03002 	mov	r3, r2
300078ec:	e1a03103 	lsl	r3, r3, #2
300078f0:	e0833002 	add	r3, r3, r2
300078f4:	e1a02103 	lsl	r2, r3, #2
300078f8:	e0833002 	add	r3, r3, r2
300078fc:	e1a03083 	lsl	r3, r3, #1
30007900:	e1a01003 	mov	r1, r3
            + OS_TICKS_PER_SEC * ((INT32U)milli + 500L / OS_TICKS_PER_SEC) / 1000L;
30007904:	e15b21b2 	ldrh	r2, [fp, #-18]	@ 0xffffffee
30007908:	e1a03002 	mov	r3, r2
3000790c:	e1a03103 	lsl	r3, r3, #2
30007910:	e0833002 	add	r3, r3, r2
30007914:	e1a02103 	lsl	r2, r3, #2
30007918:	e0833002 	add	r3, r3, r2
3000791c:	e1a03083 	lsl	r3, r3, #1
30007920:	e2833f7d 	add	r3, r3, #500	@ 0x1f4
30007924:	e59f2084 	ldr	r2, [pc, #132]	@ 300079b0 <OSTimeDlyHMSM+0x1b4>
30007928:	e0830392 	umull	r0, r3, r2, r3
3000792c:	e1a03323 	lsr	r3, r3, #6
        ticks = ((INT32U)hours * 3600L + (INT32U)minutes * 60L + (INT32U)seconds) * OS_TICKS_PER_SEC
30007930:	e0813003 	add	r3, r1, r3
30007934:	e50b300c 	str	r3, [fp, #-12]
        loops = (INT16U)(ticks / 65536L);        // Compute the integral number of 65536 tick delays
30007938:	e51b300c 	ldr	r3, [fp, #-12]
3000793c:	e1a03823 	lsr	r3, r3, #16
30007940:	e14b30b6 	strh	r3, [fp, #-6]
        ticks = ticks % 65536L;                  // Obtain  the fractional number of ticks
30007944:	e51b300c 	ldr	r3, [fp, #-12]
30007948:	e1a03803 	lsl	r3, r3, #16
3000794c:	e1a03823 	lsr	r3, r3, #16
30007950:	e50b300c 	str	r3, [fp, #-12]
        OSTimeDly((INT16U)ticks);
30007954:	e51b300c 	ldr	r3, [fp, #-12]
30007958:	e1a03803 	lsl	r3, r3, #16
3000795c:	e1a03823 	lsr	r3, r3, #16
30007960:	e1a00003 	mov	r0, r3
30007964:	ebffff5d 	bl	300076e0 <OSTimeDly>
        while (loops > 0) {
30007968:	ea000006 	b	30007988 <OSTimeDlyHMSM+0x18c>
            OSTimeDly(32768);
3000796c:	e3a00902 	mov	r0, #32768	@ 0x8000
30007970:	ebffff5a 	bl	300076e0 <OSTimeDly>
            OSTimeDly(32768);
30007974:	e3a00902 	mov	r0, #32768	@ 0x8000
30007978:	ebffff58 	bl	300076e0 <OSTimeDly>
            loops--;
3000797c:	e15b30b6 	ldrh	r3, [fp, #-6]
30007980:	e2433001 	sub	r3, r3, #1
30007984:	e14b30b6 	strh	r3, [fp, #-6]
        while (loops > 0) {
30007988:	e15b30b6 	ldrh	r3, [fp, #-6]
3000798c:	e3530000 	cmp	r3, #0
30007990:	1afffff5 	bne	3000796c <OSTimeDlyHMSM+0x170>
        }
        return (OS_NO_ERR);
30007994:	e3a03000 	mov	r3, #0
30007998:	ea000000 	b	300079a0 <OSTimeDlyHMSM+0x1a4>
    }
    return (OS_TIME_ZERO_DLY);
3000799c:	e3a03054 	mov	r3, #84	@ 0x54
}
300079a0:	e1a00003 	mov	r0, r3
300079a4:	e24bd004 	sub	sp, fp, #4
300079a8:	e8bd4800 	pop	{fp, lr}
300079ac:	e12fff1e 	bx	lr
300079b0:	10624dd3 	.word	0x10624dd3

300079b4 <OSTimeDlyResume>:
* 移植要点:
* - 纯逻辑操作。
*********************************************************************************************************
*/
INT8U  OSTimeDlyResume (INT8U prio)
{
300079b4:	e92d4800 	push	{fp, lr}
300079b8:	e28db004 	add	fp, sp, #4
300079bc:	e24dd010 	sub	sp, sp, #16
300079c0:	e1a03000 	mov	r3, r0
300079c4:	e54b300d 	strb	r3, [fp, #-13]
    OS_CPU_SR  cpu_sr; 
    OS_TCB    *ptcb;

    if (prio >= OS_LOWEST_PRIO) {
300079c8:	e55b300d 	ldrb	r3, [fp, #-13]
300079cc:	e353003d 	cmp	r3, #61	@ 0x3d
300079d0:	9a000001 	bls	300079dc <OSTimeDlyResume+0x28>
        return (OS_PRIO_INVALID);
300079d4:	e3a0302a 	mov	r3, #42	@ 0x2a
300079d8:	ea000038 	b	30007ac0 <OSTimeDlyResume+0x10c>
    }
    OS_ENTER_CRITICAL();
300079dc:	ebffe276 	bl	300003bc <OS_CPU_SR_Save>
300079e0:	e50b0008 	str	r0, [fp, #-8]
    ptcb = (OS_TCB *)OSTCBPrioTbl[prio];                   // Make sure that task exist
300079e4:	e55b300d 	ldrb	r3, [fp, #-13]
300079e8:	e59f20e0 	ldr	r2, [pc, #224]	@ 30007ad0 <OSTimeDlyResume+0x11c>
300079ec:	e7923103 	ldr	r3, [r2, r3, lsl #2]
300079f0:	e50b300c 	str	r3, [fp, #-12]
    if (ptcb != (OS_TCB *)0) {
300079f4:	e51b300c 	ldr	r3, [fp, #-12]
300079f8:	e3530000 	cmp	r3, #0
300079fc:	0a00002c 	beq	30007ab4 <OSTimeDlyResume+0x100>
        if (ptcb->OSTCBDly != 0) {                         // See if task is delayed
30007a00:	e51b300c 	ldr	r3, [fp, #-12]
30007a04:	e1d331bc 	ldrh	r3, [r3, #28]
30007a08:	e3530000 	cmp	r3, #0
30007a0c:	0a000024 	beq	30007aa4 <OSTimeDlyResume+0xf0>
            ptcb->OSTCBDly  = 0;                           // Clear the time delay
30007a10:	e51b300c 	ldr	r3, [fp, #-12]
30007a14:	e3a02000 	mov	r2, #0
30007a18:	e1c321bc 	strh	r2, [r3, #28]
            if ((ptcb->OSTCBStat & OS_STAT_SUSPEND) == OS_STAT_RDY) {  // See if task is ready to run
30007a1c:	e51b300c 	ldr	r3, [fp, #-12]
30007a20:	e5d3301f 	ldrb	r3, [r3, #31]
30007a24:	e2033008 	and	r3, r3, #8
30007a28:	e3530000 	cmp	r3, #0
30007a2c:	1a000018 	bne	30007a94 <OSTimeDlyResume+0xe0>
                OSRdyGrp               |= ptcb->OSTCBBitY;             // Make task ready to run
30007a30:	e51b300c 	ldr	r3, [fp, #-12]
30007a34:	e5d32023 	ldrb	r2, [r3, #35]	@ 0x23
30007a38:	e59f3094 	ldr	r3, [pc, #148]	@ 30007ad4 <OSTimeDlyResume+0x120>
30007a3c:	e5d33000 	ldrb	r3, [r3]
30007a40:	e1823003 	orr	r3, r2, r3
30007a44:	e20320ff 	and	r2, r3, #255	@ 0xff
30007a48:	e59f3084 	ldr	r3, [pc, #132]	@ 30007ad4 <OSTimeDlyResume+0x120>
30007a4c:	e5c32000 	strb	r2, [r3]
                OSRdyTbl[ptcb->OSTCBY] |= ptcb->OSTCBBitX;
30007a50:	e51b300c 	ldr	r3, [fp, #-12]
30007a54:	e5d33021 	ldrb	r3, [r3, #33]	@ 0x21
30007a58:	e1a02003 	mov	r2, r3
30007a5c:	e59f3074 	ldr	r3, [pc, #116]	@ 30007ad8 <OSTimeDlyResume+0x124>
30007a60:	e7d32002 	ldrb	r2, [r3, r2]
30007a64:	e51b300c 	ldr	r3, [fp, #-12]
30007a68:	e5d33022 	ldrb	r3, [r3, #34]	@ 0x22
30007a6c:	e51b100c 	ldr	r1, [fp, #-12]
30007a70:	e5d11021 	ldrb	r1, [r1, #33]	@ 0x21
30007a74:	e1823003 	orr	r3, r2, r3
30007a78:	e20320ff 	and	r2, r3, #255	@ 0xff
30007a7c:	e59f3054 	ldr	r3, [pc, #84]	@ 30007ad8 <OSTimeDlyResume+0x124>
30007a80:	e7c32001 	strb	r2, [r3, r1]
                OS_EXIT_CRITICAL();
30007a84:	e51b0008 	ldr	r0, [fp, #-8]
30007a88:	ebffe24f 	bl	300003cc <OS_CPU_SR_Restore>
                OS_Sched();                                // See if this is new highest priority
30007a8c:	ebffebaa 	bl	3000293c <OS_Sched>
30007a90:	ea000001 	b	30007a9c <OSTimeDlyResume+0xe8>
            } else {
                OS_EXIT_CRITICAL();                        // Task may be suspended
30007a94:	e51b0008 	ldr	r0, [fp, #-8]
30007a98:	ebffe24b 	bl	300003cc <OS_CPU_SR_Restore>
            }
            return (OS_NO_ERR);
30007a9c:	e3a03000 	mov	r3, #0
30007aa0:	ea000006 	b	30007ac0 <OSTimeDlyResume+0x10c>
        } else {
            OS_EXIT_CRITICAL();
30007aa4:	e51b0008 	ldr	r0, [fp, #-8]
30007aa8:	ebffe247 	bl	300003cc <OS_CPU_SR_Restore>
            return (OS_TIME_NOT_DLY);                      // Indicate that task was not delayed
30007aac:	e3a03050 	mov	r3, #80	@ 0x50
30007ab0:	ea000002 	b	30007ac0 <OSTimeDlyResume+0x10c>
        }
    }
    OS_EXIT_CRITICAL();
30007ab4:	e51b0008 	ldr	r0, [fp, #-8]
30007ab8:	ebffe243 	bl	300003cc <OS_CPU_SR_Restore>
    return (OS_TASK_NOT_EXIST);                            // The task does not exist
30007abc:	e3a0300b 	mov	r3, #11
}
30007ac0:	e1a00003 	mov	r0, r3
30007ac4:	e24bd004 	sub	sp, fp, #4
30007ac8:	e8bd4800 	pop	{fp, lr}
30007acc:	e12fff1e 	bx	lr
30007ad0:	3000b5c8 	.word	0x3000b5c8
30007ad4:	3000ac95 	.word	0x3000ac95
30007ad8:	3000ac98 	.word	0x3000ac98

30007adc <OSTimeGet>:
* 移植要点:
* - 在 32 位系统 (Mini2440) 上，读取 32 位整数通常是原子的，但为了可移植性和防止编译器优化问题，仍建议使用临界区。
*********************************************************************************************************
*/
INT32U  OSTimeGet (void)
{
30007adc:	e92d4800 	push	{fp, lr}
30007ae0:	e28db004 	add	fp, sp, #4
30007ae4:	e24dd008 	sub	sp, sp, #8
    // 在此输入代码
    OS_CPU_SR cpu_sr;
    INT32U ticks;
    OS_ENTER_CRITICAL();
30007ae8:	ebffe233 	bl	300003bc <OS_CPU_SR_Save>
30007aec:	e50b0008 	str	r0, [fp, #-8]
    ticks = OSTime;
30007af0:	e59f3020 	ldr	r3, [pc, #32]	@ 30007b18 <OSTimeGet+0x3c>
30007af4:	e5933000 	ldr	r3, [r3]
30007af8:	e50b300c 	str	r3, [fp, #-12]
    OS_EXIT_CRITICAL();
30007afc:	e51b0008 	ldr	r0, [fp, #-8]
30007b00:	ebffe231 	bl	300003cc <OS_CPU_SR_Restore>
    return (ticks);
30007b04:	e51b300c 	ldr	r3, [fp, #-12]
}
30007b08:	e1a00003 	mov	r0, r3
30007b0c:	e24bd004 	sub	sp, fp, #4
30007b10:	e8bd4800 	pop	{fp, lr}
30007b14:	e12fff1e 	bx	lr
30007b18:	3000ac8c 	.word	0x3000ac8c

30007b1c <OSTimeSet>:
* 移植要点:
* - 同 OSTimeGet。
*********************************************************************************************************
*/
void  OSTimeSet (INT32U ticks)
{
30007b1c:	e92d4800 	push	{fp, lr}
30007b20:	e28db004 	add	fp, sp, #4
30007b24:	e24dd010 	sub	sp, sp, #16
30007b28:	e50b0010 	str	r0, [fp, #-16]
    OS_CPU_SR  cpu_sr;
    OS_ENTER_CRITICAL();
30007b2c:	ebffe222 	bl	300003bc <OS_CPU_SR_Save>
30007b30:	e50b0008 	str	r0, [fp, #-8]
    OSTime = ticks;
30007b34:	e59f201c 	ldr	r2, [pc, #28]	@ 30007b58 <OSTimeSet+0x3c>
30007b38:	e51b3010 	ldr	r3, [fp, #-16]
30007b3c:	e5823000 	str	r3, [r2]
    OS_EXIT_CRITICAL();
30007b40:	e51b0008 	ldr	r0, [fp, #-8]
30007b44:	ebffe220 	bl	300003cc <OS_CPU_SR_Restore>
}
30007b48:	e1a00000 	nop			@ (mov r0, r0)
30007b4c:	e24bd004 	sub	sp, fp, #4
30007b50:	e8bd4800 	pop	{fp, lr}
30007b54:	e12fff1e 	bx	lr
30007b58:	3000ac8c 	.word	0x3000ac8c

30007b5c <memset>:
* 描述: 将内存块填充为指定的值
* 用途: OS_EventWaitListInit 中清零等待表
*********************************************************************************************************
*/
void *memset(void *s, int c, unsigned int count)
{
30007b5c:	e52db004 	push	{fp}		@ (str fp, [sp, #-4]!)
30007b60:	e28db000 	add	fp, sp, #0
30007b64:	e24dd01c 	sub	sp, sp, #28
30007b68:	e50b0010 	str	r0, [fp, #-16]
30007b6c:	e50b1014 	str	r1, [fp, #-20]	@ 0xffffffec
30007b70:	e50b2018 	str	r2, [fp, #-24]	@ 0xffffffe8
    char *xs = (char *)s; 
30007b74:	e51b3010 	ldr	r3, [fp, #-16]
30007b78:	e50b3008 	str	r3, [fp, #-8]
    while (count--) {
30007b7c:	ea000005 	b	30007b98 <memset+0x3c>
        *xs++ = c;
30007b80:	e51b3008 	ldr	r3, [fp, #-8]
30007b84:	e2832001 	add	r2, r3, #1
30007b88:	e50b2008 	str	r2, [fp, #-8]
30007b8c:	e51b2014 	ldr	r2, [fp, #-20]	@ 0xffffffec
30007b90:	e20220ff 	and	r2, r2, #255	@ 0xff
30007b94:	e5c32000 	strb	r2, [r3]
    while (count--) {
30007b98:	e51b3018 	ldr	r3, [fp, #-24]	@ 0xffffffe8
30007b9c:	e2432001 	sub	r2, r3, #1
30007ba0:	e50b2018 	str	r2, [fp, #-24]	@ 0xffffffe8
30007ba4:	e3530000 	cmp	r3, #0
30007ba8:	1afffff4 	bne	30007b80 <memset+0x24>
    }
    return s;
30007bac:	e51b3010 	ldr	r3, [fp, #-16]
}
30007bb0:	e1a00003 	mov	r0, r3
30007bb4:	e28bd000 	add	sp, fp, #0
30007bb8:	e49db004 	pop	{fp}		@ (ldr fp, [sp], #4)
30007bbc:	e12fff1e 	bx	lr

30007bc0 <memcpy>:
* 用途: OSTaskQuery 中复制 TCB
* 优化: 针对 ARM 32位特性，尝试按 4 字节搬运以提高效率
*********************************************************************************************************
*/
void *memcpy(void *dest, const void *src, unsigned int count)
{
30007bc0:	e52db004 	push	{fp}		@ (str fp, [sp, #-4]!)
30007bc4:	e28db000 	add	fp, sp, #0
30007bc8:	e24dd024 	sub	sp, sp, #36	@ 0x24
30007bcc:	e50b0018 	str	r0, [fp, #-24]	@ 0xffffffe8
30007bd0:	e50b101c 	str	r1, [fp, #-28]	@ 0xffffffe4
30007bd4:	e50b2020 	str	r2, [fp, #-32]	@ 0xffffffe0
    char *tmp = (char *)dest;
30007bd8:	e51b3018 	ldr	r3, [fp, #-24]	@ 0xffffffe8
30007bdc:	e50b3008 	str	r3, [fp, #-8]
    const char *s = (const char *)src;
30007be0:	e51b301c 	ldr	r3, [fp, #-28]	@ 0xffffffe4
30007be4:	e50b300c 	str	r3, [fp, #-12]

    // 1. 如果源和目的地址都是 4 字节对齐的，且长度 >= 4，则按 int 拷贝 (速度快4倍)
    if ((((unsigned int)dest & 3) == 0) && 
30007be8:	e51b3018 	ldr	r3, [fp, #-24]	@ 0xffffffe8
30007bec:	e2033003 	and	r3, r3, #3
30007bf0:	e3530000 	cmp	r3, #0
30007bf4:	1a000026 	bne	30007c94 <memcpy+0xd4>
        (((unsigned int)src  & 3) == 0) && 
30007bf8:	e51b301c 	ldr	r3, [fp, #-28]	@ 0xffffffe4
30007bfc:	e2033003 	and	r3, r3, #3
    if ((((unsigned int)dest & 3) == 0) && 
30007c00:	e3530000 	cmp	r3, #0
30007c04:	1a000022 	bne	30007c94 <memcpy+0xd4>
        (((unsigned int)src  & 3) == 0) && 
30007c08:	e51b3020 	ldr	r3, [fp, #-32]	@ 0xffffffe0
30007c0c:	e3530003 	cmp	r3, #3
30007c10:	9a00001f 	bls	30007c94 <memcpy+0xd4>
        (count >= 4)) 
    {
        unsigned int *d_32 = (unsigned int *)dest;
30007c14:	e51b3018 	ldr	r3, [fp, #-24]	@ 0xffffffe8
30007c18:	e50b3010 	str	r3, [fp, #-16]
        const unsigned int *s_32 = (const unsigned int *)src;
30007c1c:	e51b301c 	ldr	r3, [fp, #-28]	@ 0xffffffe4
30007c20:	e50b3014 	str	r3, [fp, #-20]	@ 0xffffffec
        
        while (count >= 4) {
30007c24:	ea00000a 	b	30007c54 <memcpy+0x94>
            *d_32++ = *s_32++;
30007c28:	e51b2014 	ldr	r2, [fp, #-20]	@ 0xffffffec
30007c2c:	e2823004 	add	r3, r2, #4
30007c30:	e50b3014 	str	r3, [fp, #-20]	@ 0xffffffec
30007c34:	e51b3010 	ldr	r3, [fp, #-16]
30007c38:	e2831004 	add	r1, r3, #4
30007c3c:	e50b1010 	str	r1, [fp, #-16]
30007c40:	e5922000 	ldr	r2, [r2]
30007c44:	e5832000 	str	r2, [r3]
            count -= 4;
30007c48:	e51b3020 	ldr	r3, [fp, #-32]	@ 0xffffffe0
30007c4c:	e2433004 	sub	r3, r3, #4
30007c50:	e50b3020 	str	r3, [fp, #-32]	@ 0xffffffe0
        while (count >= 4) {
30007c54:	e51b3020 	ldr	r3, [fp, #-32]	@ 0xffffffe0
30007c58:	e3530003 	cmp	r3, #3
30007c5c:	8afffff1 	bhi	30007c28 <memcpy+0x68>
        }
        
        // 更新指针位置，处理剩余字节
        tmp = (char *)d_32;
30007c60:	e51b3010 	ldr	r3, [fp, #-16]
30007c64:	e50b3008 	str	r3, [fp, #-8]
        s   = (char *)s_32;
30007c68:	e51b3014 	ldr	r3, [fp, #-20]	@ 0xffffffec
30007c6c:	e50b300c 	str	r3, [fp, #-12]
    }

    // 2. 处理剩余的字节 (或者处理不对齐的情况)
    while (count--) {
30007c70:	ea000007 	b	30007c94 <memcpy+0xd4>
        *tmp++ = *s++;
30007c74:	e51b200c 	ldr	r2, [fp, #-12]
30007c78:	e2823001 	add	r3, r2, #1
30007c7c:	e50b300c 	str	r3, [fp, #-12]
30007c80:	e51b3008 	ldr	r3, [fp, #-8]
30007c84:	e2831001 	add	r1, r3, #1
30007c88:	e50b1008 	str	r1, [fp, #-8]
30007c8c:	e5d22000 	ldrb	r2, [r2]
30007c90:	e5c32000 	strb	r2, [r3]
    while (count--) {
30007c94:	e51b3020 	ldr	r3, [fp, #-32]	@ 0xffffffe0
30007c98:	e2432001 	sub	r2, r3, #1
30007c9c:	e50b2020 	str	r2, [fp, #-32]	@ 0xffffffe0
30007ca0:	e3530000 	cmp	r3, #0
30007ca4:	1afffff2 	bne	30007c74 <memcpy+0xb4>
    }

    return dest;
30007ca8:	e51b3018 	ldr	r3, [fp, #-24]	@ 0xffffffe8
}
30007cac:	e1a00003 	mov	r0, r3
30007cb0:	e28bd000 	add	sp, fp, #0
30007cb4:	e49db004 	pop	{fp}		@ (ldr fp, [sp], #4)
30007cb8:	e12fff1e 	bx	lr

30007cbc <__udivsi3>:
30007cbc:	e2512001 	subs	r2, r1, #1
30007cc0:	012fff1e 	bxeq	lr
30007cc4:	3a000036 	bcc	30007da4 <__udivsi3+0xe8>
30007cc8:	e1500001 	cmp	r0, r1
30007ccc:	9a000022 	bls	30007d5c <__udivsi3+0xa0>
30007cd0:	e1110002 	tst	r1, r2
30007cd4:	0a000023 	beq	30007d68 <__udivsi3+0xac>
30007cd8:	e311020e 	tst	r1, #-536870912	@ 0xe0000000
30007cdc:	01a01181 	lsleq	r1, r1, #3
30007ce0:	03a03008 	moveq	r3, #8
30007ce4:	13a03001 	movne	r3, #1
30007ce8:	e3510201 	cmp	r1, #268435456	@ 0x10000000
30007cec:	31510000 	cmpcc	r1, r0
30007cf0:	31a01201 	lslcc	r1, r1, #4
30007cf4:	31a03203 	lslcc	r3, r3, #4
30007cf8:	3afffffa 	bcc	30007ce8 <__udivsi3+0x2c>
30007cfc:	e3510102 	cmp	r1, #-2147483648	@ 0x80000000
30007d00:	31510000 	cmpcc	r1, r0
30007d04:	31a01081 	lslcc	r1, r1, #1
30007d08:	31a03083 	lslcc	r3, r3, #1
30007d0c:	3afffffa 	bcc	30007cfc <__udivsi3+0x40>
30007d10:	e3a02000 	mov	r2, #0
30007d14:	e1500001 	cmp	r0, r1
30007d18:	20400001 	subcs	r0, r0, r1
30007d1c:	21822003 	orrcs	r2, r2, r3
30007d20:	e15000a1 	cmp	r0, r1, lsr #1
30007d24:	204000a1 	subcs	r0, r0, r1, lsr #1
30007d28:	218220a3 	orrcs	r2, r2, r3, lsr #1
30007d2c:	e1500121 	cmp	r0, r1, lsr #2
30007d30:	20400121 	subcs	r0, r0, r1, lsr #2
30007d34:	21822123 	orrcs	r2, r2, r3, lsr #2
30007d38:	e15001a1 	cmp	r0, r1, lsr #3
30007d3c:	204001a1 	subcs	r0, r0, r1, lsr #3
30007d40:	218221a3 	orrcs	r2, r2, r3, lsr #3
30007d44:	e3500000 	cmp	r0, #0
30007d48:	11b03223 	lsrsne	r3, r3, #4
30007d4c:	11a01221 	lsrne	r1, r1, #4
30007d50:	1affffef 	bne	30007d14 <__udivsi3+0x58>
30007d54:	e1a00002 	mov	r0, r2
30007d58:	e12fff1e 	bx	lr
30007d5c:	03a00001 	moveq	r0, #1
30007d60:	13a00000 	movne	r0, #0
30007d64:	e12fff1e 	bx	lr
30007d68:	e3510801 	cmp	r1, #65536	@ 0x10000
30007d6c:	21a01821 	lsrcs	r1, r1, #16
30007d70:	23a02010 	movcs	r2, #16
30007d74:	33a02000 	movcc	r2, #0
30007d78:	e3510c01 	cmp	r1, #256	@ 0x100
30007d7c:	21a01421 	lsrcs	r1, r1, #8
30007d80:	22822008 	addcs	r2, r2, #8
30007d84:	e3510010 	cmp	r1, #16
30007d88:	21a01221 	lsrcs	r1, r1, #4
30007d8c:	22822004 	addcs	r2, r2, #4
30007d90:	e3510004 	cmp	r1, #4
30007d94:	82822003 	addhi	r2, r2, #3
30007d98:	908220a1 	addls	r2, r2, r1, lsr #1
30007d9c:	e1a00230 	lsr	r0, r0, r2
30007da0:	e12fff1e 	bx	lr
30007da4:	e3500000 	cmp	r0, #0
30007da8:	13e00000 	mvnne	r0, #0
30007dac:	ea000059 	b	30007f18 <__aeabi_idiv0>

30007db0 <__aeabi_uidivmod>:
30007db0:	e3510000 	cmp	r1, #0
30007db4:	0afffffa 	beq	30007da4 <__udivsi3+0xe8>
30007db8:	e92d4003 	push	{r0, r1, lr}
30007dbc:	ebffffbe 	bl	30007cbc <__udivsi3>
30007dc0:	e8bd4006 	pop	{r1, r2, lr}
30007dc4:	e0030092 	mul	r3, r2, r0
30007dc8:	e0411003 	sub	r1, r1, r3
30007dcc:	e12fff1e 	bx	lr

30007dd0 <__divsi3>:
30007dd0:	e3510000 	cmp	r1, #0
30007dd4:	0a000043 	beq	30007ee8 <.divsi3_skip_div0_test+0x110>

30007dd8 <.divsi3_skip_div0_test>:
30007dd8:	e020c001 	eor	ip, r0, r1
30007ddc:	42611000 	rsbmi	r1, r1, #0
30007de0:	e2512001 	subs	r2, r1, #1
30007de4:	0a000027 	beq	30007e88 <.divsi3_skip_div0_test+0xb0>
30007de8:	e1b03000 	movs	r3, r0
30007dec:	42603000 	rsbmi	r3, r0, #0
30007df0:	e1530001 	cmp	r3, r1
30007df4:	9a000026 	bls	30007e94 <.divsi3_skip_div0_test+0xbc>
30007df8:	e1110002 	tst	r1, r2
30007dfc:	0a000028 	beq	30007ea4 <.divsi3_skip_div0_test+0xcc>
30007e00:	e311020e 	tst	r1, #-536870912	@ 0xe0000000
30007e04:	01a01181 	lsleq	r1, r1, #3
30007e08:	03a02008 	moveq	r2, #8
30007e0c:	13a02001 	movne	r2, #1
30007e10:	e3510201 	cmp	r1, #268435456	@ 0x10000000
30007e14:	31510003 	cmpcc	r1, r3
30007e18:	31a01201 	lslcc	r1, r1, #4
30007e1c:	31a02202 	lslcc	r2, r2, #4
30007e20:	3afffffa 	bcc	30007e10 <.divsi3_skip_div0_test+0x38>
30007e24:	e3510102 	cmp	r1, #-2147483648	@ 0x80000000
30007e28:	31510003 	cmpcc	r1, r3
30007e2c:	31a01081 	lslcc	r1, r1, #1
30007e30:	31a02082 	lslcc	r2, r2, #1
30007e34:	3afffffa 	bcc	30007e24 <.divsi3_skip_div0_test+0x4c>
30007e38:	e3a00000 	mov	r0, #0
30007e3c:	e1530001 	cmp	r3, r1
30007e40:	20433001 	subcs	r3, r3, r1
30007e44:	21800002 	orrcs	r0, r0, r2
30007e48:	e15300a1 	cmp	r3, r1, lsr #1
30007e4c:	204330a1 	subcs	r3, r3, r1, lsr #1
30007e50:	218000a2 	orrcs	r0, r0, r2, lsr #1
30007e54:	e1530121 	cmp	r3, r1, lsr #2
30007e58:	20433121 	subcs	r3, r3, r1, lsr #2
30007e5c:	21800122 	orrcs	r0, r0, r2, lsr #2
30007e60:	e15301a1 	cmp	r3, r1, lsr #3
30007e64:	204331a1 	subcs	r3, r3, r1, lsr #3
30007e68:	218001a2 	orrcs	r0, r0, r2, lsr #3
30007e6c:	e3530000 	cmp	r3, #0
30007e70:	11b02222 	lsrsne	r2, r2, #4
30007e74:	11a01221 	lsrne	r1, r1, #4
30007e78:	1affffef 	bne	30007e3c <.divsi3_skip_div0_test+0x64>
30007e7c:	e35c0000 	cmp	ip, #0
30007e80:	42600000 	rsbmi	r0, r0, #0
30007e84:	e12fff1e 	bx	lr
30007e88:	e13c0000 	teq	ip, r0
30007e8c:	42600000 	rsbmi	r0, r0, #0
30007e90:	e12fff1e 	bx	lr
30007e94:	33a00000 	movcc	r0, #0
30007e98:	01a00fcc 	asreq	r0, ip, #31
30007e9c:	03800001 	orreq	r0, r0, #1
30007ea0:	e12fff1e 	bx	lr
30007ea4:	e3510801 	cmp	r1, #65536	@ 0x10000
30007ea8:	21a01821 	lsrcs	r1, r1, #16
30007eac:	23a02010 	movcs	r2, #16
30007eb0:	33a02000 	movcc	r2, #0
30007eb4:	e3510c01 	cmp	r1, #256	@ 0x100
30007eb8:	21a01421 	lsrcs	r1, r1, #8
30007ebc:	22822008 	addcs	r2, r2, #8
30007ec0:	e3510010 	cmp	r1, #16
30007ec4:	21a01221 	lsrcs	r1, r1, #4
30007ec8:	22822004 	addcs	r2, r2, #4
30007ecc:	e3510004 	cmp	r1, #4
30007ed0:	82822003 	addhi	r2, r2, #3
30007ed4:	908220a1 	addls	r2, r2, r1, lsr #1
30007ed8:	e35c0000 	cmp	ip, #0
30007edc:	e1a00233 	lsr	r0, r3, r2
30007ee0:	42600000 	rsbmi	r0, r0, #0
30007ee4:	e12fff1e 	bx	lr
30007ee8:	e3500000 	cmp	r0, #0
30007eec:	c3e00102 	mvngt	r0, #-2147483648	@ 0x80000000
30007ef0:	b3a00102 	movlt	r0, #-2147483648	@ 0x80000000
30007ef4:	ea000007 	b	30007f18 <__aeabi_idiv0>

30007ef8 <__aeabi_idivmod>:
30007ef8:	e3510000 	cmp	r1, #0
30007efc:	0afffff9 	beq	30007ee8 <.divsi3_skip_div0_test+0x110>
30007f00:	e92d4003 	push	{r0, r1, lr}
30007f04:	ebffffb3 	bl	30007dd8 <.divsi3_skip_div0_test>
30007f08:	e8bd4006 	pop	{r1, r2, lr}
30007f0c:	e0030092 	mul	r3, r2, r0
30007f10:	e0411003 	sub	r1, r1, r3
30007f14:	e12fff1e 	bx	lr

30007f18 <__aeabi_idiv0>:
30007f18:	e12fff1e 	bx	lr
30007f1c:	4375200a 	.word	0x4375200a
30007f20:	2d534f2f 	.word	0x2d534f2f
30007f24:	53204949 	.word	0x53204949
30007f28:	74726174 	.word	0x74726174
30007f2c:	6f206465 	.word	0x6f206465
30007f30:	694d206e 	.word	0x694d206e
30007f34:	3432696e 	.word	0x3432696e
30007f38:	202e3034 	.word	0x202e3034
30007f3c:	0000000a 	.word	0x0000000a
30007f40:	59454b5b 	.word	0x59454b5b
30007f44:	254b205d 	.word	0x254b205d
30007f48:	72502064 	.word	0x72502064
30007f4c:	65737365 	.word	0x65737365
30007f50:	3e2d2064 	.word	0x3e2d2064
30007f54:	00000020 	.word	0x00000020
30007f58:	6e676953 	.word	0x6e676953
30007f5c:	42206c61 	.word	0x42206c61
30007f60:	0a706565 	.word	0x0a706565
30007f64:	00000000 	.word	0x00000000
30007f68:	646e6553 	.word	0x646e6553
30007f6c:	6f624d20 	.word	0x6f624d20
30007f70:	6f742078 	.word	0x6f742078
30007f74:	44454c20 	.word	0x44454c20
30007f78:	0000000a 	.word	0x0000000a
30007f7c:	646e6553 	.word	0x646e6553
30007f80:	61745320 	.word	0x61745320
30007f84:	20636974 	.word	0x20636974
30007f88:	75657551 	.word	0x75657551
30007f8c:	00000a65 	.word	0x00000a65
30007f90:	6f6c6c41 	.word	0x6f6c6c41
30007f94:	654d2063 	.word	0x654d2063
30007f98:	2026206d 	.word	0x2026206d
30007f9c:	646e6553 	.word	0x646e6553
30007fa0:	0000000a 	.word	0x0000000a
30007fa4:	206d654d 	.word	0x206d654d
30007fa8:	6c6c7546 	.word	0x6c6c7546
30007fac:	00000a21 	.word	0x00000a21
30007fb0:	75736552 	.word	0x75736552
30007fb4:	5720656d 	.word	0x5720656d
30007fb8:	206b726f 	.word	0x206b726f
30007fbc:	6b736154 	.word	0x6b736154
30007fc0:	0000000a 	.word	0x0000000a
30007fc4:	70737553 	.word	0x70737553
30007fc8:	20646e65 	.word	0x20646e65
30007fcc:	6b726f57 	.word	0x6b726f57
30007fd0:	73615420 	.word	0x73615420
30007fd4:	00000a6b 	.word	0x00000a6b
30007fd8:	20746553 	.word	0x20746553
30007fdc:	65646f4d 	.word	0x65646f4d
30007fe0:	5554203a 	.word	0x5554203a
30007fe4:	0a4f4252 	.word	0x0a4f4252
30007fe8:	00000000 	.word	0x00000000
30007fec:	726f575b 	.word	0x726f575b
30007ff0:	52205d6b 	.word	0x52205d6b
30007ff4:	3a766365 	.word	0x3a766365
30007ff8:	70795420 	.word	0x70795420
30007ffc:	64253d65 	.word	0x64253d65
30008000:	6156202c 	.word	0x6156202c
30008004:	78303d6c 	.word	0x78303d6c
30008008:	000a5825 	.word	0x000a5825
3000800c:	726f575b 	.word	0x726f575b
30008010:	4d205d6b 	.word	0x4d205d6b
30008014:	46206d65 	.word	0x46206d65
30008018:	64656572 	.word	0x64656572
3000801c:	00000a2e 	.word	0x00000a2e
30008020:	2d2d2d0a 	.word	0x2d2d2d0a
30008024:	73795320 	.word	0x73795320
30008028:	206d6574 	.word	0x206d6574
3000802c:	696e6f4d 	.word	0x696e6f4d
30008030:	20726f74 	.word	0x20726f74
30008034:	0a2d2d2d 	.word	0x0a2d2d2d
30008038:	00000000 	.word	0x00000000
3000803c:	20555043 	.word	0x20555043
30008040:	67617355 	.word	0x67617355
30008044:	25203a65 	.word	0x25203a65
30008048:	0a252564 	.word	0x0a252564
3000804c:	00000000 	.word	0x00000000
30008050:	206d654d 	.word	0x206d654d
30008054:	65657246 	.word	0x65657246
30008058:	25203a20 	.word	0x25203a20
3000805c:	6c622064 	.word	0x6c622064
30008060:	736b636f 	.word	0x736b636f
30008064:	0000000a 	.word	0x0000000a
30008068:	734d2051 	.word	0x734d2051
3000806c:	20202067 	.word	0x20202067
30008070:	25203a20 	.word	0x25203a20
30008074:	61772064 	.word	0x61772064
30008078:	6e697469 	.word	0x6e697469
3000807c:	00000a67 	.word	0x00000a67
30008080:	73616820 	.word	0x73616820
30008084:	65656220 	.word	0x65656220
30008088:	6564206e 	.word	0x6564206e
3000808c:	6574656c 	.word	0x6574656c
30008090:	6e2f2064 	.word	0x6e2f2064
30008094:	00000000 	.word	0x00000000
30008098:	74206e2f 	.word	0x74206e2f
3000809c:	206b7361 	.word	0x206b7361
300080a0:	0000003a 	.word	0x0000003a
300080a4:	33323130 	.word	0x33323130
300080a8:	37363534 	.word	0x37363534
300080ac:	62613938 	.word	0x62613938
300080b0:	66656463 	.word	0x66656463
	...
